
node2.elf:     file format elf32-littlearm

Sections:
Idx Name          Size      VMA       LMA       File off  Algn
  0 .text         00006710  00080000  00080000  00010000  2**3
                  CONTENTS, ALLOC, LOAD, READONLY, CODE
  1 .ARM.exidx    00000008  00086710  00086710  00016710  2**2
                  CONTENTS, ALLOC, LOAD, READONLY, DATA
  2 .relocate     000009b8  20000000  00086718  00020000  2**3
                  CONTENTS, ALLOC, LOAD, DATA
  3 .bss          000004b8  200009b8  000870d0  000209b8  2**3
                  ALLOC
  4 .stack        00000400  20000e70  00087588  000209b8  2**0
                  ALLOC
  5 .heap         00000200  20001270  00087988  000209b8  2**0
                  ALLOC
  6 .ARM.attributes 00000029  00000000  00000000  000209b8  2**0
                  CONTENTS, READONLY
  7 .comment      00000059  00000000  00000000  000209e1  2**0
                  CONTENTS, READONLY
  8 .debug_info   0000a65e  00000000  00000000  00020a3a  2**0
                  CONTENTS, READONLY, DEBUGGING
  9 .debug_abbrev 000016ea  00000000  00000000  0002b098  2**0
                  CONTENTS, READONLY, DEBUGGING
 10 .debug_loc    00000e4c  00000000  00000000  0002c782  2**0
                  CONTENTS, READONLY, DEBUGGING
 11 .debug_aranges 000002a8  00000000  00000000  0002d5ce  2**0
                  CONTENTS, READONLY, DEBUGGING
 12 .debug_ranges 00000208  00000000  00000000  0002d876  2**0
                  CONTENTS, READONLY, DEBUGGING
 13 .debug_macro  0001359a  00000000  00000000  0002da7e  2**0
                  CONTENTS, READONLY, DEBUGGING
 14 .debug_line   00004f8e  00000000  00000000  00041018  2**0
                  CONTENTS, READONLY, DEBUGGING
 15 .debug_str    00055c2f  00000000  00000000  00045fa6  2**0
                  CONTENTS, READONLY, DEBUGGING
 16 .debug_frame  00001964  00000000  00000000  0009bbd8  2**2
                  CONTENTS, READONLY, DEBUGGING

Disassembly of section .text:

00080000 <exception_table>:
   80000:	70 12 00 20 65 01 08 00 61 01 08 00 61 01 08 00     p.. e...a...a...
   80010:	61 01 08 00 61 01 08 00 61 01 08 00 00 00 00 00     a...a...a.......
	...
   8002c:	61 01 08 00 61 01 08 00 00 00 00 00 61 01 08 00     a...a.......a...
   8003c:	0d 07 08 00 61 01 08 00 61 01 08 00 61 01 08 00     ....a...a...a...
   8004c:	61 01 08 00 61 01 08 00 61 01 08 00 61 01 08 00     a...a...a...a...
   8005c:	61 01 08 00 15 0b 08 00 61 01 08 00 00 00 00 00     a.......a.......
   8006c:	61 01 08 00 61 01 08 00 61 01 08 00 61 01 08 00     a...a...a...a...
	...
   80084:	61 01 08 00 61 01 08 00 61 01 08 00 61 01 08 00     a...a...a...a...
   80094:	61 01 08 00 61 01 08 00 61 01 08 00 61 01 08 00     a...a...a...a...
   800a4:	00 00 00 00 61 01 08 00 61 01 08 00 61 01 08 00     ....a...a...a...
   800b4:	61 01 08 00 61 01 08 00 61 01 08 00 61 01 08 00     a...a...a...a...
   800c4:	61 01 08 00 61 01 08 00 61 01 08 00 61 01 08 00     a...a...a...a...
   800d4:	b5 02 08 00 61 01 08 00 61 01 08 00 61 01 08 00     ....a...a...a...
   800e4:	61 01 08 00 61 01 08 00 7d 04 08 00 61 01 08 00     a...a...}...a...

000800f4 <__do_global_dtors_aux>:
   800f4:	b510      	push	{r4, lr}
   800f6:	4c05      	ldr	r4, [pc, #20]	; (8010c <__do_global_dtors_aux+0x18>)
   800f8:	7823      	ldrb	r3, [r4, #0]
   800fa:	b933      	cbnz	r3, 8010a <__do_global_dtors_aux+0x16>
   800fc:	4b04      	ldr	r3, [pc, #16]	; (80110 <__do_global_dtors_aux+0x1c>)
   800fe:	b113      	cbz	r3, 80106 <__do_global_dtors_aux+0x12>
   80100:	4804      	ldr	r0, [pc, #16]	; (80114 <__do_global_dtors_aux+0x20>)
   80102:	f3af 8000 	nop.w
   80106:	2301      	movs	r3, #1
   80108:	7023      	strb	r3, [r4, #0]
   8010a:	bd10      	pop	{r4, pc}
   8010c:	200009b8 	.word	0x200009b8
   80110:	00000000 	.word	0x00000000
   80114:	00086718 	.word	0x00086718

00080118 <frame_dummy>:
   80118:	4b0c      	ldr	r3, [pc, #48]	; (8014c <frame_dummy+0x34>)
   8011a:	b143      	cbz	r3, 8012e <frame_dummy+0x16>
   8011c:	480c      	ldr	r0, [pc, #48]	; (80150 <frame_dummy+0x38>)
   8011e:	b510      	push	{r4, lr}
   80120:	490c      	ldr	r1, [pc, #48]	; (80154 <frame_dummy+0x3c>)
   80122:	f3af 8000 	nop.w
   80126:	480c      	ldr	r0, [pc, #48]	; (80158 <frame_dummy+0x40>)
   80128:	6803      	ldr	r3, [r0, #0]
   8012a:	b923      	cbnz	r3, 80136 <frame_dummy+0x1e>
   8012c:	bd10      	pop	{r4, pc}
   8012e:	480a      	ldr	r0, [pc, #40]	; (80158 <frame_dummy+0x40>)
   80130:	6803      	ldr	r3, [r0, #0]
   80132:	b933      	cbnz	r3, 80142 <frame_dummy+0x2a>
   80134:	4770      	bx	lr
   80136:	4b09      	ldr	r3, [pc, #36]	; (8015c <frame_dummy+0x44>)
   80138:	2b00      	cmp	r3, #0
   8013a:	d0f7      	beq.n	8012c <frame_dummy+0x14>
   8013c:	e8bd 4010 	ldmia.w	sp!, {r4, lr}
   80140:	4718      	bx	r3
   80142:	4b06      	ldr	r3, [pc, #24]	; (8015c <frame_dummy+0x44>)
   80144:	2b00      	cmp	r3, #0
   80146:	d0f5      	beq.n	80134 <frame_dummy+0x1c>
   80148:	4718      	bx	r3
   8014a:	bf00      	nop
   8014c:	00000000 	.word	0x00000000
   80150:	00086718 	.word	0x00086718
   80154:	200009bc 	.word	0x200009bc
   80158:	00086718 	.word	0x00086718
   8015c:	00000000 	.word	0x00000000

00080160 <Dummy_Handler>:

/**
 * \brief Default interrupt handler for unused IRQs.
 */
void Dummy_Handler(void)
{
   80160:	e7fe      	b.n	80160 <Dummy_Handler>
	...

00080164 <Reset_Handler>:
{
   80164:	b508      	push	{r3, lr}
        if (pSrc != pDest) {
   80166:	4b11      	ldr	r3, [pc, #68]	; (801ac <Reset_Handler+0x48>)
   80168:	4a11      	ldr	r2, [pc, #68]	; (801b0 <Reset_Handler+0x4c>)
   8016a:	429a      	cmp	r2, r3
   8016c:	d009      	beq.n	80182 <Reset_Handler+0x1e>
   8016e:	4b0f      	ldr	r3, [pc, #60]	; (801ac <Reset_Handler+0x48>)
   80170:	4a0f      	ldr	r2, [pc, #60]	; (801b0 <Reset_Handler+0x4c>)
   80172:	e003      	b.n	8017c <Reset_Handler+0x18>
                        *pDest++ = *pSrc++;
   80174:	6811      	ldr	r1, [r2, #0]
   80176:	6019      	str	r1, [r3, #0]
   80178:	3304      	adds	r3, #4
   8017a:	3204      	adds	r2, #4
                for (; pDest < &_erelocate;) {
   8017c:	490d      	ldr	r1, [pc, #52]	; (801b4 <Reset_Handler+0x50>)
   8017e:	428b      	cmp	r3, r1
   80180:	d3f8      	bcc.n	80174 <Reset_Handler+0x10>
                        *pDest++ = *pSrc++;
   80182:	4b0d      	ldr	r3, [pc, #52]	; (801b8 <Reset_Handler+0x54>)
   80184:	e002      	b.n	8018c <Reset_Handler+0x28>
                *pDest++ = 0;
   80186:	2200      	movs	r2, #0
   80188:	601a      	str	r2, [r3, #0]
   8018a:	3304      	adds	r3, #4
        for (pDest = &_szero; pDest < &_ezero;) {
   8018c:	4a0b      	ldr	r2, [pc, #44]	; (801bc <Reset_Handler+0x58>)
   8018e:	4293      	cmp	r3, r2
   80190:	d3f9      	bcc.n	80186 <Reset_Handler+0x22>
        SCB->VTOR = ((uint32_t) pSrc & SCB_VTOR_TBLOFF_Msk);
   80192:	4b0b      	ldr	r3, [pc, #44]	; (801c0 <Reset_Handler+0x5c>)
   80194:	f023 4360 	bic.w	r3, r3, #3758096384	; 0xe0000000
   80198:	f023 037f 	bic.w	r3, r3, #127	; 0x7f
   8019c:	4a09      	ldr	r2, [pc, #36]	; (801c4 <Reset_Handler+0x60>)
   8019e:	6093      	str	r3, [r2, #8]
        __libc_init_array();
   801a0:	4b09      	ldr	r3, [pc, #36]	; (801c8 <Reset_Handler+0x64>)
   801a2:	4798      	blx	r3
        main();
   801a4:	4b09      	ldr	r3, [pc, #36]	; (801cc <Reset_Handler+0x68>)
   801a6:	4798      	blx	r3
   801a8:	e7fe      	b.n	801a8 <Reset_Handler+0x44>
   801aa:	bf00      	nop
   801ac:	20000000 	.word	0x20000000
   801b0:	00086718 	.word	0x00086718
   801b4:	200009b8 	.word	0x200009b8
   801b8:	200009b8 	.word	0x200009b8
   801bc:	20000e70 	.word	0x20000e70
   801c0:	00080000 	.word	0x00080000
   801c4:	e000ed00 	.word	0xe000ed00
   801c8:	000819f1 	.word	0x000819f1
   801cc:	00080bf5 	.word	0x00080bf5

000801d0 <SystemInit>:
 * Initialize the System and update the SystemFrequency variable.
 */
void SystemInit( void )
{
  /* Set FWS according to SYS_BOARD_MCKR configuration */
  EFC0->EEFC_FMR = EEFC_FMR_FWS(4);
   801d0:	f44f 6380 	mov.w	r3, #1024	; 0x400
   801d4:	4a20      	ldr	r2, [pc, #128]	; (80258 <SystemInit+0x88>)
   801d6:	6013      	str	r3, [r2, #0]
  EFC1->EEFC_FMR = EEFC_FMR_FWS(4);
   801d8:	f502 7200 	add.w	r2, r2, #512	; 0x200
   801dc:	6013      	str	r3, [r2, #0]

  /* Initialize main oscillator */
  if ( !(PMC->CKGR_MOR & CKGR_MOR_MOSCSEL) )
   801de:	4b1f      	ldr	r3, [pc, #124]	; (8025c <SystemInit+0x8c>)
   801e0:	6a1b      	ldr	r3, [r3, #32]
   801e2:	f013 7f80 	tst.w	r3, #16777216	; 0x1000000
   801e6:	d107      	bne.n	801f8 <SystemInit+0x28>
  {
    PMC->CKGR_MOR = CKGR_MOR_KEY_PASSWD | SYS_BOARD_OSCOUNT | CKGR_MOR_MOSCRCEN | CKGR_MOR_MOSCXTEN;
   801e8:	4a1d      	ldr	r2, [pc, #116]	; (80260 <SystemInit+0x90>)
   801ea:	4b1c      	ldr	r3, [pc, #112]	; (8025c <SystemInit+0x8c>)
   801ec:	621a      	str	r2, [r3, #32]
    while ( !(PMC->PMC_SR & PMC_SR_MOSCXTS) )
   801ee:	4b1b      	ldr	r3, [pc, #108]	; (8025c <SystemInit+0x8c>)
   801f0:	6e9b      	ldr	r3, [r3, #104]	; 0x68
   801f2:	f013 0f01 	tst.w	r3, #1
   801f6:	d0fa      	beq.n	801ee <SystemInit+0x1e>
    {
    }
  }

  /* Switch to 3-20MHz Xtal oscillator */
  PMC->CKGR_MOR = CKGR_MOR_KEY_PASSWD | SYS_BOARD_OSCOUNT | CKGR_MOR_MOSCRCEN | CKGR_MOR_MOSCXTEN | CKGR_MOR_MOSCSEL;
   801f8:	4a1a      	ldr	r2, [pc, #104]	; (80264 <SystemInit+0x94>)
   801fa:	4b18      	ldr	r3, [pc, #96]	; (8025c <SystemInit+0x8c>)
   801fc:	621a      	str	r2, [r3, #32]

  while ( !(PMC->PMC_SR & PMC_SR_MOSCSELS) )
   801fe:	4b17      	ldr	r3, [pc, #92]	; (8025c <SystemInit+0x8c>)
   80200:	6e9b      	ldr	r3, [r3, #104]	; 0x68
   80202:	f413 3f80 	tst.w	r3, #65536	; 0x10000
   80206:	d0fa      	beq.n	801fe <SystemInit+0x2e>
  {
  }
 	PMC->PMC_MCKR = (PMC->PMC_MCKR & ~(uint32_t)PMC_MCKR_CSS_Msk) | PMC_MCKR_CSS_MAIN_CLK;
   80208:	4a14      	ldr	r2, [pc, #80]	; (8025c <SystemInit+0x8c>)
   8020a:	6b13      	ldr	r3, [r2, #48]	; 0x30
   8020c:	f023 0303 	bic.w	r3, r3, #3
   80210:	f043 0301 	orr.w	r3, r3, #1
   80214:	6313      	str	r3, [r2, #48]	; 0x30
  while (!(PMC->PMC_SR & PMC_SR_MCKRDY))
   80216:	4b11      	ldr	r3, [pc, #68]	; (8025c <SystemInit+0x8c>)
   80218:	6e9b      	ldr	r3, [r3, #104]	; 0x68
   8021a:	f013 0f08 	tst.w	r3, #8
   8021e:	d0fa      	beq.n	80216 <SystemInit+0x46>
  {
  }

  /* Initialize PLLA */
  PMC->CKGR_PLLAR = SYS_BOARD_PLLAR;
   80220:	4a11      	ldr	r2, [pc, #68]	; (80268 <SystemInit+0x98>)
   80222:	4b0e      	ldr	r3, [pc, #56]	; (8025c <SystemInit+0x8c>)
   80224:	629a      	str	r2, [r3, #40]	; 0x28
  while ( !(PMC->PMC_SR & PMC_SR_LOCKA) )
   80226:	4b0d      	ldr	r3, [pc, #52]	; (8025c <SystemInit+0x8c>)
   80228:	6e9b      	ldr	r3, [r3, #104]	; 0x68
   8022a:	f013 0f02 	tst.w	r3, #2
   8022e:	d0fa      	beq.n	80226 <SystemInit+0x56>
  {
  }

  /* Switch to main clock */
  PMC->PMC_MCKR = (SYS_BOARD_MCKR & ~PMC_MCKR_CSS_Msk) | PMC_MCKR_CSS_MAIN_CLK;
   80230:	2211      	movs	r2, #17
   80232:	4b0a      	ldr	r3, [pc, #40]	; (8025c <SystemInit+0x8c>)
   80234:	631a      	str	r2, [r3, #48]	; 0x30
  while ( !(PMC->PMC_SR & PMC_SR_MCKRDY) )
   80236:	4b09      	ldr	r3, [pc, #36]	; (8025c <SystemInit+0x8c>)
   80238:	6e9b      	ldr	r3, [r3, #104]	; 0x68
   8023a:	f013 0f08 	tst.w	r3, #8
   8023e:	d0fa      	beq.n	80236 <SystemInit+0x66>
  {
  }

  /* Switch to PLLA */
  PMC->PMC_MCKR = SYS_BOARD_MCKR;
   80240:	2212      	movs	r2, #18
   80242:	4b06      	ldr	r3, [pc, #24]	; (8025c <SystemInit+0x8c>)
   80244:	631a      	str	r2, [r3, #48]	; 0x30
  while ( !(PMC->PMC_SR & PMC_SR_MCKRDY) )
   80246:	4b05      	ldr	r3, [pc, #20]	; (8025c <SystemInit+0x8c>)
   80248:	6e9b      	ldr	r3, [r3, #104]	; 0x68
   8024a:	f013 0f08 	tst.w	r3, #8
   8024e:	d0fa      	beq.n	80246 <SystemInit+0x76>
  {
  }

  SystemCoreClock = CHIP_FREQ_CPU_MAX;
   80250:	4a06      	ldr	r2, [pc, #24]	; (8026c <SystemInit+0x9c>)
   80252:	4b07      	ldr	r3, [pc, #28]	; (80270 <SystemInit+0xa0>)
   80254:	601a      	str	r2, [r3, #0]
   80256:	4770      	bx	lr
   80258:	400e0a00 	.word	0x400e0a00
   8025c:	400e0600 	.word	0x400e0600
   80260:	00370809 	.word	0x00370809
   80264:	01370809 	.word	0x01370809
   80268:	200d3f01 	.word	0x200d3f01
   8026c:	0501bd00 	.word	0x0501bd00
   80270:	20000000 	.word	0x20000000

00080274 <adc_init>:

Time last_time;
Time GOAL_TIME_TRESHOLD = (Time){.msecs = 500};

void adc_init(){
	PMC->PMC_PCER1 |= PMC_PCER1_PID37;
   80274:	4a0c      	ldr	r2, [pc, #48]	; (802a8 <adc_init+0x34>)
   80276:	f8d2 3100 	ldr.w	r3, [r2, #256]	; 0x100
   8027a:	f043 0320 	orr.w	r3, r3, #32
   8027e:	f8c2 3100 	str.w	r3, [r2, #256]	; 0x100
	ADC->ADC_MR = ADC_MR_FREERUN_ON | ADC_MR_PRESCAL(32);
   80282:	4b0a      	ldr	r3, [pc, #40]	; (802ac <adc_init+0x38>)
   80284:	f44f 5202 	mov.w	r2, #8320	; 0x2080
   80288:	605a      	str	r2, [r3, #4]

	//Enable the specific ADC channel for AD0
	ADC->ADC_CHER = ADC_CHER_CH0; // Enable channel 0 (AD0 pin)
   8028a:	2201      	movs	r2, #1
   8028c:	611a      	str	r2, [r3, #16]

	//Enable interrupt for low threshold comparison
	ADC->ADC_CWR = ADC_CWR_LOWTHRES(ADC_THRESHOLD); //threshold for low-level comparison
   8028e:	f44f 627a 	mov.w	r2, #4000	; 0xfa0
   80292:	645a      	str	r2, [r3, #68]	; 0x44
	ADC->ADC_IER = ADC_IER_COMPE; //Enable comparison event interrupt
   80294:	f04f 6280 	mov.w	r2, #67108864	; 0x4000000
   80298:	625a      	str	r2, [r3, #36]	; 0x24
 */
__STATIC_INLINE void __NVIC_EnableIRQ(IRQn_Type IRQn)
{
  if ((int32_t)(IRQn) >= 0)
  {
    NVIC->ISER[(((uint32_t)IRQn) >> 5UL)] = (uint32_t)(1UL << (((uint32_t)IRQn) & 0x1FUL));
   8029a:	2120      	movs	r1, #32
   8029c:	4a04      	ldr	r2, [pc, #16]	; (802b0 <adc_init+0x3c>)
   8029e:	6051      	str	r1, [r2, #4]
	
	NVIC_EnableIRQ(ADC_IRQn);
	ADC->ADC_CR = ADC_CR_START;
   802a0:	2202      	movs	r2, #2
   802a2:	601a      	str	r2, [r3, #0]
   802a4:	4770      	bx	lr
   802a6:	bf00      	nop
   802a8:	400e0600 	.word	0x400e0600
   802ac:	400c0000 	.word	0x400c0000
   802b0:	e000e100 	.word	0xe000e100

000802b4 <ADC_Handler>:
}

void ADC_Handler(void) {
	if (ADC->ADC_ISR & ADC_ISR_COMPE) { // Check if the comparison event triggered the interrupt
   802b4:	4b1d      	ldr	r3, [pc, #116]	; (8032c <ADC_Handler+0x78>)
   802b6:	6b1b      	ldr	r3, [r3, #48]	; 0x30
   802b8:	f013 6f80 	tst.w	r3, #67108864	; 0x4000000
   802bc:	d100      	bne.n	802c0 <ADC_Handler+0xc>
   802be:	4770      	bx	lr
void ADC_Handler(void) {
   802c0:	b570      	push	{r4, r5, r6, lr}
   802c2:	b086      	sub	sp, #24
		if (time_now() - time_combine(last_time) >= time_combine(GOAL_TIME_TRESHOLD)){
   802c4:	4b1a      	ldr	r3, [pc, #104]	; (80330 <ADC_Handler+0x7c>)
   802c6:	4798      	blx	r3
   802c8:	4604      	mov	r4, r0
   802ca:	460d      	mov	r5, r1
   802cc:	4b19      	ldr	r3, [pc, #100]	; (80334 <ADC_Handler+0x80>)
   802ce:	6818      	ldr	r0, [r3, #0]
   802d0:	6859      	ldr	r1, [r3, #4]
   802d2:	4e19      	ldr	r6, [pc, #100]	; (80338 <ADC_Handler+0x84>)
   802d4:	47b0      	blx	r6
   802d6:	1a24      	subs	r4, r4, r0
   802d8:	eb65 0501 	sbc.w	r5, r5, r1
   802dc:	4b17      	ldr	r3, [pc, #92]	; (8033c <ADC_Handler+0x88>)
   802de:	e893 0003 	ldmia.w	r3, {r0, r1}
   802e2:	47b0      	blx	r6
   802e4:	428d      	cmp	r5, r1
   802e6:	bf08      	it	eq
   802e8:	4284      	cmpeq	r4, r0
   802ea:	d201      	bcs.n	802f0 <ADC_Handler+0x3c>
			CanMsg can_msg = (CanMsg){.id=CAN_ID_GOAL, .length=1, .unsigned_data={(uint8_t)result}};
			can_tx(can_msg);
		}
	}
	//ADC->ADC_CR |= ADC_CR_START;
   802ec:	b006      	add	sp, #24
   802ee:	bd70      	pop	{r4, r5, r6, pc}
			last_time = time_split(time_now());
   802f0:	4b0f      	ldr	r3, [pc, #60]	; (80330 <ADC_Handler+0x7c>)
   802f2:	4798      	blx	r3
   802f4:	4c0f      	ldr	r4, [pc, #60]	; (80334 <ADC_Handler+0x80>)
   802f6:	4602      	mov	r2, r0
   802f8:	460b      	mov	r3, r1
   802fa:	4668      	mov	r0, sp
   802fc:	4910      	ldr	r1, [pc, #64]	; (80340 <ADC_Handler+0x8c>)
   802fe:	4788      	blx	r1
   80300:	9a00      	ldr	r2, [sp, #0]
   80302:	9b01      	ldr	r3, [sp, #4]
   80304:	6022      	str	r2, [r4, #0]
   80306:	6063      	str	r3, [r4, #4]
			uint32_t result = ADC->ADC_CDR[0];
   80308:	4b08      	ldr	r3, [pc, #32]	; (8032c <ADC_Handler+0x78>)
   8030a:	6d19      	ldr	r1, [r3, #80]	; 0x50
			CanMsg can_msg = (CanMsg){.id=CAN_ID_GOAL, .length=1, .unsigned_data={(uint8_t)result}};
   8030c:	ab03      	add	r3, sp, #12
   8030e:	2200      	movs	r2, #0
   80310:	9203      	str	r2, [sp, #12]
   80312:	9204      	str	r2, [sp, #16]
   80314:	9205      	str	r2, [sp, #20]
   80316:	2201      	movs	r2, #1
   80318:	f88d 200d 	strb.w	r2, [sp, #13]
   8031c:	f88d 1010 	strb.w	r1, [sp, #16]
			can_tx(can_msg);
   80320:	e893 0007 	ldmia.w	r3, {r0, r1, r2}
   80324:	4b07      	ldr	r3, [pc, #28]	; (80344 <ADC_Handler+0x90>)
   80326:	4798      	blx	r3
   80328:	e7e0      	b.n	802ec <ADC_Handler+0x38>
   8032a:	bf00      	nop
   8032c:	400c0000 	.word	0x400c0000
   80330:	00080731 	.word	0x00080731
   80334:	20000e30 	.word	0x20000e30
   80338:	0008099d 	.word	0x0008099d
   8033c:	20000004 	.word	0x20000004
   80340:	0008084d 	.word	0x0008084d
   80344:	000803e5 	.word	0x000803e5

00080348 <can_init>:
}

#define txMailbox 0
#define rxMailbox 1

void can_init(CanInit init, uint8_t rxInterrupt){
   80348:	b410      	push	{r4}
    // Disable CAN
    CAN0->CAN_MR &= ~CAN_MR_CANEN; 
   8034a:	4b22      	ldr	r3, [pc, #136]	; (803d4 <can_init+0x8c>)
   8034c:	681a      	ldr	r2, [r3, #0]
   8034e:	f022 0201 	bic.w	r2, r2, #1
   80352:	601a      	str	r2, [r3, #0]
    
    // Clear status register by reading it
    __attribute__((unused)) uint32_t ul_status = CAN0->CAN_SR;     
   80354:	691a      	ldr	r2, [r3, #16]
    
    // Disable interrupts on CANH and CANL pins
    PIOA->PIO_IDR = PIO_PA8A_URXD | PIO_PA9A_UTXD;
   80356:	4a20      	ldr	r2, [pc, #128]	; (803d8 <can_init+0x90>)
   80358:	f44f 7440 	mov.w	r4, #768	; 0x300
   8035c:	6454      	str	r4, [r2, #68]	; 0x44
    
    // Select CAN0 RX and TX in PIOA
    PIOA->PIO_ABSR &= ~(PIO_PA1A_CANRX0 | PIO_PA0A_CANTX0);
   8035e:	6f14      	ldr	r4, [r2, #112]	; 0x70
   80360:	f024 0403 	bic.w	r4, r4, #3
   80364:	6714      	str	r4, [r2, #112]	; 0x70
    
    // Disable the Parallel IO (PIO) of the Rx and Tx pins so that the peripheral controller can use them
    PIOA->PIO_PDR = PIO_PA1A_CANRX0 | PIO_PA0A_CANTX0;
   80366:	2403      	movs	r4, #3
   80368:	6054      	str	r4, [r2, #4]
    
    // Enable pull up on CANH and CANL pin
    PIOA->PIO_PUER = (PIO_PA1A_CANRX0 | PIO_PA0A_CANTX0);    
   8036a:	6654      	str	r4, [r2, #100]	; 0x64
    
    // Enable Clock for CAN0 in PMC
    // DIV = 1 (can clk = MCK/2), CMD = 1 (write), PID = 2B (CAN0)
    PMC->PMC_PCR = PMC_PCR_EN | (0/*??*/ << PMC_PCR_DIV_Pos) | PMC_PCR_CMD | (ID_CAN0 << PMC_PCR_PID_Pos); 
   8036c:	f5a2 6200 	sub.w	r2, r2, #2048	; 0x800
   80370:	4c1a      	ldr	r4, [pc, #104]	; (803dc <can_init+0x94>)
   80372:	f8c2 410c 	str.w	r4, [r2, #268]	; 0x10c
    PMC->PMC_PCER1 |= 1 << (ID_CAN0 - 32);
   80376:	f8d2 4100 	ldr.w	r4, [r2, #256]	; 0x100
   8037a:	f444 6400 	orr.w	r4, r4, #2048	; 0x800
   8037e:	f8c2 4100 	str.w	r4, [r2, #256]	; 0x100
    
    //Set baudrate, Phase1, phase2 and propagation delay for can bus. Must match on all nodes!
    CAN0->CAN_BR = init.reg; 
   80382:	6158      	str	r0, [r3, #20]
    


    // Configure mailboxes
    // transmit
    CAN0->CAN_MB[txMailbox].CAN_MID = CAN_MID_MIDE;
   80384:	f04f 5200 	mov.w	r2, #536870912	; 0x20000000
   80388:	f8c3 2208 	str.w	r2, [r3, #520]	; 0x208
    CAN0->CAN_MB[txMailbox].CAN_MMR = CAN_MMR_MOT_MB_TX;
   8038c:	f04f 7040 	mov.w	r0, #50331648	; 0x3000000
   80390:	f8c3 0200 	str.w	r0, [r3, #512]	; 0x200
    
    // receive
    CAN0->CAN_MB[rxMailbox].CAN_MAM = 0; // Accept all messages
   80394:	2000      	movs	r0, #0
   80396:	f8c3 0224 	str.w	r0, [r3, #548]	; 0x224
    CAN0->CAN_MB[rxMailbox].CAN_MID = CAN_MID_MIDE;
   8039a:	f8c3 2228 	str.w	r2, [r3, #552]	; 0x228
    CAN0->CAN_MB[rxMailbox].CAN_MMR = CAN_MMR_MOT_MB_RX;
   8039e:	f04f 7280 	mov.w	r2, #16777216	; 0x1000000
   803a2:	f8c3 2220 	str.w	r2, [r3, #544]	; 0x220
    CAN0->CAN_MB[rxMailbox].CAN_MCR |= CAN_MCR_MTCR;
   803a6:	f8d3 223c 	ldr.w	r2, [r3, #572]	; 0x23c
   803aa:	f442 0200 	orr.w	r2, r2, #8388608	; 0x800000
   803ae:	f8c3 223c 	str.w	r2, [r3, #572]	; 0x23c
    if(rxInterrupt){
   803b2:	b141      	cbz	r1, 803c6 <can_init+0x7e>
        // Enable interrupt on receive
        CAN0->CAN_IER |= (1 << rxMailbox); 
   803b4:	461a      	mov	r2, r3
   803b6:	685b      	ldr	r3, [r3, #4]
   803b8:	f043 0302 	orr.w	r3, r3, #2
   803bc:	6053      	str	r3, [r2, #4]
   803be:	f44f 6200 	mov.w	r2, #2048	; 0x800
   803c2:	4b07      	ldr	r3, [pc, #28]	; (803e0 <can_init+0x98>)
   803c4:	605a      	str	r2, [r3, #4]
        // Enable interrupt in NVIC 
        NVIC_EnableIRQ(ID_CAN0);
    }

    // Enable CAN
    CAN0->CAN_MR |= CAN_MR_CANEN;
   803c6:	4a03      	ldr	r2, [pc, #12]	; (803d4 <can_init+0x8c>)
   803c8:	6813      	ldr	r3, [r2, #0]
   803ca:	f043 0301 	orr.w	r3, r3, #1
   803ce:	6013      	str	r3, [r2, #0]
}
   803d0:	bc10      	pop	{r4}
   803d2:	4770      	bx	lr
   803d4:	400b4000 	.word	0x400b4000
   803d8:	400e0e00 	.word	0x400e0e00
   803dc:	1000102b 	.word	0x1000102b
   803e0:	e000e100 	.word	0xe000e100

000803e4 <can_tx>:


void can_tx(CanMsg m){
   803e4:	b084      	sub	sp, #16
   803e6:	ab04      	add	r3, sp, #16
   803e8:	e903 0007 	stmdb	r3, {r0, r1, r2}
    while(!(CAN0->CAN_MB[txMailbox].CAN_MSR & CAN_MSR_MRDY)){}
   803ec:	4b0e      	ldr	r3, [pc, #56]	; (80428 <can_tx+0x44>)
   803ee:	f8d3 3210 	ldr.w	r3, [r3, #528]	; 0x210
   803f2:	f413 0f00 	tst.w	r3, #8388608	; 0x800000
   803f6:	d0f9      	beq.n	803ec <can_tx+0x8>
    
    // Set message ID and use CAN 2.0A protocol
    CAN0->CAN_MB[txMailbox].CAN_MID = CAN_MID_MIDvA(m.id) & ~CAN_MID_MIDE ;
   803f8:	f89d 3004 	ldrb.w	r3, [sp, #4]
   803fc:	049b      	lsls	r3, r3, #18
   803fe:	4a0a      	ldr	r2, [pc, #40]	; (80428 <can_tx+0x44>)
   80400:	f8c2 3208 	str.w	r3, [r2, #520]	; 0x208
        
    // Coerce maximum 8 byte length
    m.length = m.length > 8 ? 8 : m.length;
   80404:	f89d 3005 	ldrb.w	r3, [sp, #5]
   80408:	2b08      	cmp	r3, #8
   8040a:	bf28      	it	cs
   8040c:	2308      	movcs	r3, #8
    
    //  Put message in can data registers
    CAN0->CAN_MB[txMailbox].CAN_MDL = m.dword[0];
   8040e:	9902      	ldr	r1, [sp, #8]
   80410:	f8c2 1214 	str.w	r1, [r2, #532]	; 0x214
    CAN0->CAN_MB[txMailbox].CAN_MDH = m.dword[1];
   80414:	9903      	ldr	r1, [sp, #12]
   80416:	f8c2 1218 	str.w	r1, [r2, #536]	; 0x218
        
    // Set message length and mailbox ready to send
    CAN0->CAN_MB[txMailbox].CAN_MCR = (m.length << CAN_MCR_MDLC_Pos) | CAN_MCR_MTCR;
   8041a:	041b      	lsls	r3, r3, #16
   8041c:	f443 0300 	orr.w	r3, r3, #8388608	; 0x800000
   80420:	f8c2 321c 	str.w	r3, [r2, #540]	; 0x21c
}
   80424:	b004      	add	sp, #16
   80426:	4770      	bx	lr
   80428:	400b4000 	.word	0x400b4000

0008042c <can_rx>:

uint8_t can_rx(CanMsg* m){
    if(!(CAN0->CAN_MB[rxMailbox].CAN_MSR & CAN_MSR_MRDY)){
   8042c:	4b12      	ldr	r3, [pc, #72]	; (80478 <can_rx+0x4c>)
   8042e:	f8d3 3230 	ldr.w	r3, [r3, #560]	; 0x230
   80432:	f413 0f00 	tst.w	r3, #8388608	; 0x800000
   80436:	d01c      	beq.n	80472 <can_rx+0x46>
        return 0;
    }

    // Get message ID
    m->id = (uint8_t)((CAN0->CAN_MB[rxMailbox].CAN_MID & CAN_MID_MIDvA_Msk) >> CAN_MID_MIDvA_Pos);
   80438:	4b0f      	ldr	r3, [pc, #60]	; (80478 <can_rx+0x4c>)
   8043a:	f8d3 2228 	ldr.w	r2, [r3, #552]	; 0x228
   8043e:	f3c2 4287 	ubfx	r2, r2, #18, #8
   80442:	7002      	strb	r2, [r0, #0]
        
    // Get data length
    m->length = (uint8_t)((CAN0->CAN_MB[rxMailbox].CAN_MSR & CAN_MSR_MDLC_Msk) >> CAN_MSR_MDLC_Pos);
   80444:	f8d3 2230 	ldr.w	r2, [r3, #560]	; 0x230
   80448:	f3c2 4203 	ubfx	r2, r2, #16, #4
   8044c:	7042      	strb	r2, [r0, #1]
    
    // Get data from CAN mailbox
    m->dword[0] = CAN0->CAN_MB[rxMailbox].CAN_MDL;
   8044e:	f8d3 2234 	ldr.w	r2, [r3, #564]	; 0x234
   80452:	6042      	str	r2, [r0, #4]
    m->dword[1] = CAN0->CAN_MB[rxMailbox].CAN_MDH;
   80454:	f8d3 2238 	ldr.w	r2, [r3, #568]	; 0x238
   80458:	6082      	str	r2, [r0, #8]
                
    // Reset for new receive
    CAN0->CAN_MB[rxMailbox].CAN_MMR = CAN_MMR_MOT_MB_RX;
   8045a:	f04f 7280 	mov.w	r2, #16777216	; 0x1000000
   8045e:	f8c3 2220 	str.w	r2, [r3, #544]	; 0x220
    CAN0->CAN_MB[rxMailbox].CAN_MCR |= CAN_MCR_MTCR;
   80462:	f8d3 223c 	ldr.w	r2, [r3, #572]	; 0x23c
   80466:	f442 0200 	orr.w	r2, r2, #8388608	; 0x800000
   8046a:	f8c3 223c 	str.w	r2, [r3, #572]	; 0x23c
    return 1;
   8046e:	2001      	movs	r0, #1
   80470:	4770      	bx	lr
        return 0;
   80472:	2000      	movs	r0, #0
}
   80474:	4770      	bx	lr
   80476:	bf00      	nop
   80478:	400b4000 	.word	0x400b4000

0008047c <CAN0_Handler>:
int8_t rec_pos_x;
int8_t rec_pos_y;
uint8_t rec_pos_sl;

// Example CAN interrupt handler
void CAN0_Handler(void){
   8047c:	b510      	push	{r4, lr}
   8047e:	b084      	sub	sp, #16
	char can_sr = CAN0->CAN_SR;
   80480:	4b14      	ldr	r3, [pc, #80]	; (804d4 <CAN0_Handler+0x58>)
   80482:	691c      	ldr	r4, [r3, #16]
	
	// RX interrupt
	if(can_sr & (1 << rxMailbox)){
   80484:	f014 0f02 	tst.w	r4, #2
   80488:	d013      	beq.n	804b2 <CAN0_Handler+0x36>
		// Add your message-handling code here
		CanMsg can_msg;
		can_rx(&can_msg);
   8048a:	a801      	add	r0, sp, #4
   8048c:	4b12      	ldr	r3, [pc, #72]	; (804d8 <CAN0_Handler+0x5c>)
   8048e:	4798      	blx	r3
		//can_print_JOY(can_msg);
		
		if(can_msg.id == CAN_ID_JOYSTICK){
   80490:	f89d 3004 	ldrb.w	r3, [sp, #4]
   80494:	2b01      	cmp	r3, #1
   80496:	d10f      	bne.n	804b8 <CAN0_Handler+0x3c>
			rec_pos_x = can_msg.signed_data[0];
   80498:	f99d 2008 	ldrsb.w	r2, [sp, #8]
   8049c:	4b0f      	ldr	r3, [pc, #60]	; (804dc <CAN0_Handler+0x60>)
   8049e:	701a      	strb	r2, [r3, #0]
			rec_pos_y = can_msg.signed_data[1];
   804a0:	f99d 2009 	ldrsb.w	r2, [sp, #9]
   804a4:	4b0e      	ldr	r3, [pc, #56]	; (804e0 <CAN0_Handler+0x64>)
   804a6:	701a      	strb	r2, [r3, #0]
			rec_pos_sl = can_msg.unsigned_data[2];
   804a8:	f89d 200a 	ldrb.w	r2, [sp, #10]
   804ac:	4b0d      	ldr	r3, [pc, #52]	; (804e4 <CAN0_Handler+0x68>)
   804ae:	701a      	strb	r2, [r3, #0]
   804b0:	e002      	b.n	804b8 <CAN0_Handler+0x3c>
			
			//can_msg = (CanMsg){.id=CAN_ID_PWM, .length=1, .signed_data={pwm_value}};
			//can_tx(can_msg);
		}
		} else {
		printf("CAN0 message arrived in non-used mailbox\n\r");
   804b2:	480d      	ldr	r0, [pc, #52]	; (804e8 <CAN0_Handler+0x6c>)
   804b4:	4b0d      	ldr	r3, [pc, #52]	; (804ec <CAN0_Handler+0x70>)
   804b6:	4798      	blx	r3
	}
	
	if(can_sr & CAN_SR_MB0){
   804b8:	f014 0f01 	tst.w	r4, #1
   804bc:	d002      	beq.n	804c4 <CAN0_Handler+0x48>
		// Disable interrupt
		CAN0->CAN_IDR = CAN_IER_MB0;
   804be:	2201      	movs	r2, #1
   804c0:	4b04      	ldr	r3, [pc, #16]	; (804d4 <CAN0_Handler+0x58>)
   804c2:	609a      	str	r2, [r3, #8]
 */
__STATIC_INLINE void __NVIC_ClearPendingIRQ(IRQn_Type IRQn)
{
  if ((int32_t)(IRQn) >= 0)
  {
    NVIC->ICPR[(((uint32_t)IRQn) >> 5UL)] = (uint32_t)(1UL << (((uint32_t)IRQn) & 0x1FUL));
   804c4:	f44f 6200 	mov.w	r2, #2048	; 0x800
   804c8:	4b09      	ldr	r3, [pc, #36]	; (804f0 <CAN0_Handler+0x74>)
   804ca:	f8c3 2184 	str.w	r2, [r3, #388]	; 0x184
	}
	
	NVIC_ClearPendingIRQ(ID_CAN0);
   804ce:	b004      	add	sp, #16
   804d0:	bd10      	pop	{r4, pc}
   804d2:	bf00      	nop
   804d4:	400b4000 	.word	0x400b4000
   804d8:	0008042d 	.word	0x0008042d
   804dc:	20000e39 	.word	0x20000e39
   804e0:	20000e3a 	.word	0x20000e3a
   804e4:	20000e38 	.word	0x20000e38
   804e8:	00086414 	.word	0x00086414
   804ec:	00081add 	.word	0x00081add
   804f0:	e000e100 	.word	0xe000e100

000804f4 <encoder_init>:
#include "../include/encoder.h"
#include "sam3x8e.h"


void encoder_init(){
	PMC->PMC_PCER1 |= (1<<ID_TC6-32);
   804f4:	4a14      	ldr	r2, [pc, #80]	; (80548 <encoder_init+0x54>)
   804f6:	f8d2 3100 	ldr.w	r3, [r2, #256]	; 0x100
   804fa:	f043 0302 	orr.w	r3, r3, #2
   804fe:	f8c2 3100 	str.w	r3, [r2, #256]	; 0x100
	
	PIOC->PIO_PDR |= PIO_PDR_P25;
   80502:	4b12      	ldr	r3, [pc, #72]	; (8054c <encoder_init+0x58>)
   80504:	685a      	ldr	r2, [r3, #4]
   80506:	f042 7200 	orr.w	r2, r2, #33554432	; 0x2000000
   8050a:	605a      	str	r2, [r3, #4]
	PIOC->PIO_PDR |= PIO_PDR_P26;
   8050c:	685a      	ldr	r2, [r3, #4]
   8050e:	f042 6280 	orr.w	r2, r2, #67108864	; 0x4000000
   80512:	605a      	str	r2, [r3, #4]
	
	PIOC->PIO_OER |= PIO_OER_P25;
   80514:	691a      	ldr	r2, [r3, #16]
   80516:	f042 7200 	orr.w	r2, r2, #33554432	; 0x2000000
   8051a:	611a      	str	r2, [r3, #16]
	PIOC->PIO_OER |= PIO_OER_P26;
   8051c:	691a      	ldr	r2, [r3, #16]
   8051e:	f042 6280 	orr.w	r2, r2, #67108864	; 0x4000000
   80522:	611a      	str	r2, [r3, #16]
	
	PIOC->PIO_ABSR |= PIO_ABSR_P25;
   80524:	6f1a      	ldr	r2, [r3, #112]	; 0x70
   80526:	f042 7200 	orr.w	r2, r2, #33554432	; 0x2000000
   8052a:	671a      	str	r2, [r3, #112]	; 0x70
	PIOC->PIO_ABSR |= PIO_ABSR_P26;
   8052c:	6f1a      	ldr	r2, [r3, #112]	; 0x70
   8052e:	f042 6280 	orr.w	r2, r2, #67108864	; 0x4000000
   80532:	671a      	str	r2, [r3, #112]	; 0x70
	
	TC2->TC_BMR = TC_BMR_QDEN | TC_BMR_POSEN | TC_BMR_EDGPHA;
   80534:	4b06      	ldr	r3, [pc, #24]	; (80550 <encoder_init+0x5c>)
   80536:	f44f 5298 	mov.w	r2, #4864	; 0x1300
   8053a:	f8c3 20c4 	str.w	r2, [r3, #196]	; 0xc4
	TC2->TC_CHANNEL[0].TC_CMR = TC_CMR_TCCLKS_XC0; 
   8053e:	2205      	movs	r2, #5
   80540:	605a      	str	r2, [r3, #4]
	TC2->TC_CHANNEL[0].TC_CCR = TC_CCR_CLKEN | TC_CCR_SWTRG;
   80542:	601a      	str	r2, [r3, #0]
   80544:	4770      	bx	lr
   80546:	bf00      	nop
   80548:	400e0600 	.word	0x400e0600
   8054c:	400e1200 	.word	0x400e1200
   80550:	40088000 	.word	0x40088000

00080554 <encoder_read>:
}

uint32_t encoder_read(){
	return TC2->TC_CHANNEL[0].TC_CV;
   80554:	4b01      	ldr	r3, [pc, #4]	; (8055c <encoder_read+0x8>)
   80556:	6918      	ldr	r0, [r3, #16]
   80558:	4770      	bx	lr
   8055a:	bf00      	nop
   8055c:	40088000 	.word	0x40088000

00080560 <pid>:
#define kd 0.25 //0,15

int32_t e_past = 0;
int32_t e_accum = 0;

int32_t pid(int32_t r, int32_t y){
   80560:	e92d 47f0 	stmdb	sp!, {r4, r5, r6, r7, r8, r9, sl, lr}
	int64_t u;
	int32_t e = r-y;
   80564:	1a44      	subs	r4, r0, r1
	int32_t e_dot = (e - e_past) / 0.016;
   80566:	4b20      	ldr	r3, [pc, #128]	; (805e8 <pid+0x88>)
   80568:	6818      	ldr	r0, [r3, #0]
   8056a:	1a20      	subs	r0, r4, r0
   8056c:	4b1f      	ldr	r3, [pc, #124]	; (805ec <pid+0x8c>)
   8056e:	4798      	blx	r3
   80570:	a31b      	add	r3, pc, #108	; (adr r3, 805e0 <pid+0x80>)
   80572:	e9d3 2300 	ldrd	r2, r3, [r3]
   80576:	4d1e      	ldr	r5, [pc, #120]	; (805f0 <pid+0x90>)
   80578:	47a8      	blx	r5
   8057a:	4b1e      	ldr	r3, [pc, #120]	; (805f4 <pid+0x94>)
   8057c:	4798      	blx	r3
   8057e:	4682      	mov	sl, r0
	int16_t sf = (e>0) ? 450 : -450;
   80580:	2c00      	cmp	r4, #0
   80582:	dd28      	ble.n	805d6 <pid+0x76>
   80584:	f44f 77e1 	mov.w	r7, #450	; 0x1c2
	u = kp*e + kd*e_dot + ki*e_accum + sf;
   80588:	4e18      	ldr	r6, [pc, #96]	; (805ec <pid+0x8c>)
   8058a:	4620      	mov	r0, r4
   8058c:	47b0      	blx	r6
   8058e:	4d1a      	ldr	r5, [pc, #104]	; (805f8 <pid+0x98>)
   80590:	2200      	movs	r2, #0
   80592:	4b1a      	ldr	r3, [pc, #104]	; (805fc <pid+0x9c>)
   80594:	47a8      	blx	r5
   80596:	4680      	mov	r8, r0
   80598:	4689      	mov	r9, r1
   8059a:	4650      	mov	r0, sl
   8059c:	47b0      	blx	r6
   8059e:	2200      	movs	r2, #0
   805a0:	4b17      	ldr	r3, [pc, #92]	; (80600 <pid+0xa0>)
   805a2:	47a8      	blx	r5
   805a4:	4d17      	ldr	r5, [pc, #92]	; (80604 <pid+0xa4>)
   805a6:	4602      	mov	r2, r0
   805a8:	460b      	mov	r3, r1
   805aa:	4640      	mov	r0, r8
   805ac:	4649      	mov	r1, r9
   805ae:	47a8      	blx	r5
   805b0:	2200      	movs	r2, #0
   805b2:	2300      	movs	r3, #0
   805b4:	47a8      	blx	r5
   805b6:	4680      	mov	r8, r0
   805b8:	4689      	mov	r9, r1
   805ba:	4638      	mov	r0, r7
   805bc:	47b0      	blx	r6
   805be:	4642      	mov	r2, r8
   805c0:	464b      	mov	r3, r9
   805c2:	47a8      	blx	r5
   805c4:	4b10      	ldr	r3, [pc, #64]	; (80608 <pid+0xa8>)
   805c6:	4798      	blx	r3
	
	e_past = e;
   805c8:	4b07      	ldr	r3, [pc, #28]	; (805e8 <pid+0x88>)
   805ca:	601c      	str	r4, [r3, #0]
	e_accum += e;
   805cc:	685a      	ldr	r2, [r3, #4]
   805ce:	4414      	add	r4, r2
   805d0:	605c      	str	r4, [r3, #4]
	//	e_accum = +1000;
	//else if (e_accum <= -1000)
	//	e_accum = -1000;
	
	return (int32_t)u;
   805d2:	e8bd 87f0 	ldmia.w	sp!, {r4, r5, r6, r7, r8, r9, sl, pc}
	int16_t sf = (e>0) ? 450 : -450;
   805d6:	4f0d      	ldr	r7, [pc, #52]	; (8060c <pid+0xac>)
   805d8:	e7d6      	b.n	80588 <pid+0x28>
   805da:	bf00      	nop
   805dc:	f3af 8000 	nop.w
   805e0:	d2f1a9fc 	.word	0xd2f1a9fc
   805e4:	3f90624d 	.word	0x3f90624d
   805e8:	200009d4 	.word	0x200009d4
   805ec:	00080fd9 	.word	0x00080fd9
   805f0:	000812f9 	.word	0x000812f9
   805f4:	000814c9 	.word	0x000814c9
   805f8:	000810a5 	.word	0x000810a5
   805fc:	40040000 	.word	0x40040000
   80600:	3fd00000 	.word	0x3fd00000
   80604:	00080d41 	.word	0x00080d41
   80608:	00081549 	.word	0x00081549
   8060c:	fffffe3e 	.word	0xfffffe3e

00080610 <pwm_init>:

#include "../include/PWM.h"

/* Set up PWM used by the servo */
void pwm_init(void){
	PMC->PMC_PCER1 |= PMC_PCER1_PID36;   // Enable peripheral clock on PWM Controller 
   80610:	4a1e      	ldr	r2, [pc, #120]	; (8068c <pwm_init+0x7c>)
   80612:	f8d2 3100 	ldr.w	r3, [r2, #256]	; 0x100
   80616:	f043 0310 	orr.w	r3, r3, #16
   8061a:	f8c2 3100 	str.w	r3, [r2, #256]	; 0x100
	PIOB->PIO_OER |= PIO_PB13;
   8061e:	4b1c      	ldr	r3, [pc, #112]	; (80690 <pwm_init+0x80>)
   80620:	691a      	ldr	r2, [r3, #16]
   80622:	f442 5200 	orr.w	r2, r2, #8192	; 0x2000
   80626:	611a      	str	r2, [r3, #16]
	PIOB->PIO_PDR |= PIO_PB13;
   80628:	685a      	ldr	r2, [r3, #4]
   8062a:	f442 5200 	orr.w	r2, r2, #8192	; 0x2000
   8062e:	605a      	str	r2, [r3, #4]
	PIOB->PIO_ABSR |= PIO_ABSR_P13;		// Set peripheral MUX to channel B (PWM)
   80630:	6f1a      	ldr	r2, [r3, #112]	; 0x70
   80632:	f442 5200 	orr.w	r2, r2, #8192	; 0x2000
   80636:	671a      	str	r2, [r3, #112]	; 0x70

	PWM->PWM_CH_NUM[1].PWM_CMR = PWM_CMR_CPRE_MCK_DIV_1024 | PWM_CMR_CPOL; // Use CLKA for this channel
   80638:	4a16      	ldr	r2, [pc, #88]	; (80694 <pwm_init+0x84>)
   8063a:	f240 210a 	movw	r1, #522	; 0x20a
   8063e:	f8c2 1220 	str.w	r1, [r2, #544]	; 0x220
	PWM->PWM_CH_NUM[1].PWM_CPRD = CPRD_VALUE; //Set period (Adjust as per your frequency requirement)
   80642:	f240 6169 	movw	r1, #1641	; 0x669
   80646:	f8c2 122c 	str.w	r1, [r2, #556]	; 0x22c
	PWM->PWM_CH_NUM[1].PWM_CDTY = CENTER_PWM;
   8064a:	217b      	movs	r1, #123	; 0x7b
   8064c:	f8c2 1224 	str.w	r1, [r2, #548]	; 0x224

	PWM->PWM_ENA = PWM_ENA_CHID1; // Enable PWM on Channel 1 (PWMH1 on PB13)
   80650:	2102      	movs	r1, #2
   80652:	6051      	str	r1, [r2, #4]
	
	//pwm for motor
	PIOB->PIO_OER |= PIO_PB12;
   80654:	6919      	ldr	r1, [r3, #16]
   80656:	f441 5180 	orr.w	r1, r1, #4096	; 0x1000
   8065a:	6119      	str	r1, [r3, #16]
	PIOB->PIO_PDR |= PIO_PB12;
   8065c:	6859      	ldr	r1, [r3, #4]
   8065e:	f441 5180 	orr.w	r1, r1, #4096	; 0x1000
   80662:	6059      	str	r1, [r3, #4]
	PIOB->PIO_ABSR |= PIO_ABSR_P12;		// Set peripheral MUX to channel B (PWM)
   80664:	6f19      	ldr	r1, [r3, #112]	; 0x70
   80666:	f441 5180 	orr.w	r1, r1, #4096	; 0x1000
   8066a:	6719      	str	r1, [r3, #112]	; 0x70

	PWM->PWM_CH_NUM[0].PWM_CMR =  PWM_CMR_CPOL; // Use CLKA for this channel
   8066c:	f44f 7300 	mov.w	r3, #512	; 0x200
   80670:	f8c2 3200 	str.w	r3, [r2, #512]	; 0x200
	PWM->PWM_CH_NUM[0].PWM_CPRD = 3360; //Set period (Adjust as per your frequency requirement)
   80674:	f44f 6352 	mov.w	r3, #3360	; 0xd20
   80678:	f8c2 320c 	str.w	r3, [r2, #524]	; 0x20c
	PWM->PWM_CH_NUM[0].PWM_CDTY = 0;
   8067c:	2300      	movs	r3, #0
   8067e:	f8c2 3204 	str.w	r3, [r2, #516]	; 0x204

	PWM->PWM_ENA |= PWM_ENA_CHID0;
   80682:	6853      	ldr	r3, [r2, #4]
   80684:	f043 0301 	orr.w	r3, r3, #1
   80688:	6053      	str	r3, [r2, #4]
   8068a:	4770      	bx	lr
   8068c:	400e0600 	.word	0x400e0600
   80690:	400e1000 	.word	0x400e1000
   80694:	40094000 	.word	0x40094000

00080698 <set_duty_cycle>:
}

/* Up date PWM servo position based on 8-bit unsigned value */
void set_duty_cycle(uint8_t value){
	if (value <= MIN_PWM)
   80698:	284a      	cmp	r0, #74	; 0x4a
   8069a:	d903      	bls.n	806a4 <set_duty_cycle+0xc>
		value = MIN_PWM;
	else if (value >= MAX_PWM)
   8069c:	28ab      	cmp	r0, #171	; 0xab
   8069e:	d902      	bls.n	806a6 <set_duty_cycle+0xe>
		value = MAX_PWM;
   806a0:	20ac      	movs	r0, #172	; 0xac
   806a2:	e000      	b.n	806a6 <set_duty_cycle+0xe>
		value = MIN_PWM;
   806a4:	204a      	movs	r0, #74	; 0x4a
		
	PWM->PWM_CH_NUM[1].PWM_CDTY = value;
   806a6:	4b02      	ldr	r3, [pc, #8]	; (806b0 <set_duty_cycle+0x18>)
   806a8:	f8c3 0224 	str.w	r0, [r3, #548]	; 0x224
   806ac:	4770      	bx	lr
   806ae:	bf00      	nop
   806b0:	40094000 	.word	0x40094000

000806b4 <from_joy2pwm>:
}

uint8_t from_joy2pwm(int8_t raw_x){
	//maps from -127+127 to 0.9ms-2.1ms pwm equivalent value
	uint16_t pwm = MIN_PWM + (raw_x + POS_SCALE) * ((MAX_PWM-MIN_PWM)/2) / POS_SCALE;
   806b4:	307f      	adds	r0, #127	; 0x7f
   806b6:	ebc0 00c0 	rsb	r0, r0, r0, lsl #3
   806ba:	ebc0 00c0 	rsb	r0, r0, r0, lsl #3
   806be:	4b05      	ldr	r3, [pc, #20]	; (806d4 <from_joy2pwm+0x20>)
   806c0:	fb83 2300 	smull	r2, r3, r3, r0
   806c4:	4403      	add	r3, r0
   806c6:	17c0      	asrs	r0, r0, #31
   806c8:	ebc0 10a3 	rsb	r0, r0, r3, asr #6
   806cc:	b280      	uxth	r0, r0
   806ce:	304a      	adds	r0, #74	; 0x4a
	
	return (uint8_t)pwm;
}
   806d0:	b2c0      	uxtb	r0, r0
   806d2:	4770      	bx	lr
   806d4:	81020409 	.word	0x81020409

000806d8 <time_init>:
static uint64_t now = 0;
    
__attribute__((constructor)) void time_init(void){
    // Clock calibration is set to '(num cycles for 1ms) / 8'
    // (SysTick is by default set to use 8x clock divisor)
    calib = SysTick->CALIB * 8;
   806d8:	4a09      	ldr	r2, [pc, #36]	; (80700 <time_init+0x28>)
   806da:	68d3      	ldr	r3, [r2, #12]
   806dc:	00db      	lsls	r3, r3, #3
   806de:	2100      	movs	r1, #0
   806e0:	4808      	ldr	r0, [pc, #32]	; (80704 <time_init+0x2c>)
   806e2:	6003      	str	r3, [r0, #0]
   806e4:	6041      	str	r1, [r0, #4]
    // Set reload at calib-1 ticks 
	SysTick->LOAD = (calib & SysTick_LOAD_RELOAD_Msk)-1;
   806e6:	f023 437f 	bic.w	r3, r3, #4278190080	; 0xff000000
   806ea:	3b01      	subs	r3, #1
   806ec:	6053      	str	r3, [r2, #4]
    // Reset counter
	SysTick->VAL = 0; 
   806ee:	6091      	str	r1, [r2, #8]
  {
    NVIC->IP[((uint32_t)IRQn)]               = (uint8_t)((priority << (8U - __NVIC_PRIO_BITS)) & (uint32_t)0xFFUL);
  }
  else
  {
    SCB->SHP[(((uint32_t)IRQn) & 0xFUL)-4UL] = (uint8_t)((priority << (8U - __NVIC_PRIO_BITS)) & (uint32_t)0xFFUL);
   806f0:	2120      	movs	r1, #32
   806f2:	4b05      	ldr	r3, [pc, #20]	; (80708 <time_init+0x30>)
   806f4:	f883 1023 	strb.w	r1, [r3, #35]	; 0x23
    // Set interrupt priority
	NVIC_SetPriority(SysTick_IRQn, 2);
	SysTick->CTRL = 
   806f8:	2307      	movs	r3, #7
   806fa:	6013      	str	r3, [r2, #0]
   806fc:	4770      	bx	lr
   806fe:	bf00      	nop
   80700:	e000e010 	.word	0xe000e010
   80704:	20000e40 	.word	0x20000e40
   80708:	e000ed00 	.word	0xe000ed00

0008070c <SysTick_Handler>:
	    ((1 << SysTick_CTRL_TICKINT_Pos)   & SysTick_CTRL_TICKINT_Msk)      |   // Enable interrupt
	    ((1 << SysTick_CTRL_ENABLE_Pos)    & SysTick_CTRL_ENABLE_Msk);	        // Enable SysTick
}    


void SysTick_Handler(void){
   8070c:	b430      	push	{r4, r5}
    now += calib;
   8070e:	4906      	ldr	r1, [pc, #24]	; (80728 <SysTick_Handler+0x1c>)
   80710:	e9d1 2300 	ldrd	r2, r3, [r1]
   80714:	4805      	ldr	r0, [pc, #20]	; (8072c <SysTick_Handler+0x20>)
   80716:	e9d0 4500 	ldrd	r4, r5, [r0]
   8071a:	1912      	adds	r2, r2, r4
   8071c:	416b      	adcs	r3, r5
   8071e:	e9c1 2300 	strd	r2, r3, [r1]
}
   80722:	bc30      	pop	{r4, r5}
   80724:	4770      	bx	lr
   80726:	bf00      	nop
   80728:	200009e0 	.word	0x200009e0
   8072c:	20000e40 	.word	0x20000e40

00080730 <time_now>:


uint64_t time_now(void){
   80730:	f84d bd04 	str.w	fp, [sp, #-4]!
    return now + calib - SysTick->VAL;
   80734:	4b09      	ldr	r3, [pc, #36]	; (8075c <time_now+0x2c>)
   80736:	e9d3 2300 	ldrd	r2, r3, [r3]
   8073a:	4909      	ldr	r1, [pc, #36]	; (80760 <time_now+0x30>)
   8073c:	e9d1 0100 	ldrd	r0, r1, [r1]
   80740:	1812      	adds	r2, r2, r0
   80742:	414b      	adcs	r3, r1
   80744:	4907      	ldr	r1, [pc, #28]	; (80764 <time_now+0x34>)
   80746:	6888      	ldr	r0, [r1, #8]
}
   80748:	ebb2 0b00 	subs.w	fp, r2, r0
   8074c:	f163 0c00 	sbc.w	ip, r3, #0
   80750:	4658      	mov	r0, fp
   80752:	4661      	mov	r1, ip
   80754:	f85d bb04 	ldr.w	fp, [sp], #4
   80758:	4770      	bx	lr
   8075a:	bf00      	nop
   8075c:	200009e0 	.word	0x200009e0
   80760:	20000e40 	.word	0x20000e40
   80764:	e000e010 	.word	0xe000e010

00080768 <msecs>:

uint64_t usecs(uint64_t s){
    return s*calib/1000;
}
uint64_t msecs(uint64_t s){
    return s*calib;
   80768:	4a05      	ldr	r2, [pc, #20]	; (80780 <msecs+0x18>)
   8076a:	6813      	ldr	r3, [r2, #0]
   8076c:	6852      	ldr	r2, [r2, #4]
   8076e:	fb00 f202 	mul.w	r2, r0, r2
   80772:	fb01 2203 	mla	r2, r1, r3, r2
   80776:	fba3 0100 	umull	r0, r1, r3, r0
   8077a:	4411      	add	r1, r2
}
   8077c:	4770      	bx	lr
   8077e:	bf00      	nop
   80780:	20000e40 	.word	0x20000e40

00080784 <seconds>:
uint64_t seconds(uint64_t s){
   80784:	b430      	push	{r4, r5}
    return s*1000*calib;
   80786:	4b10      	ldr	r3, [pc, #64]	; (807c8 <seconds+0x44>)
   80788:	681a      	ldr	r2, [r3, #0]
   8078a:	685b      	ldr	r3, [r3, #4]
   8078c:	fb00 f303 	mul.w	r3, r0, r3
   80790:	fb01 3102 	mla	r1, r1, r2, r3
   80794:	fba2 2300 	umull	r2, r3, r2, r0
   80798:	440b      	add	r3, r1
   8079a:	015c      	lsls	r4, r3, #5
   8079c:	0150      	lsls	r0, r2, #5
   8079e:	ea44 61d2 	orr.w	r1, r4, r2, lsr #27
   807a2:	1a80      	subs	r0, r0, r2
   807a4:	eb61 0103 	sbc.w	r1, r1, r3
   807a8:	008c      	lsls	r4, r1, #2
   807aa:	ea44 7490 	orr.w	r4, r4, r0, lsr #30
   807ae:	0085      	lsls	r5, r0, #2
   807b0:	18a8      	adds	r0, r5, r2
   807b2:	eb44 0103 	adc.w	r1, r4, r3
   807b6:	00cb      	lsls	r3, r1, #3
   807b8:	ea43 7350 	orr.w	r3, r3, r0, lsr #29
   807bc:	00c2      	lsls	r2, r0, #3
   807be:	4610      	mov	r0, r2
   807c0:	4619      	mov	r1, r3
}
   807c2:	bc30      	pop	{r4, r5}
   807c4:	4770      	bx	lr
   807c6:	bf00      	nop
   807c8:	20000e40 	.word	0x20000e40

000807cc <minutes>:
uint64_t minutes(uint64_t s){
   807cc:	b430      	push	{r4, r5}
    return s*60*1000*calib;
   807ce:	4b13      	ldr	r3, [pc, #76]	; (8081c <minutes+0x50>)
   807d0:	681a      	ldr	r2, [r3, #0]
   807d2:	685b      	ldr	r3, [r3, #4]
   807d4:	fb00 f303 	mul.w	r3, r0, r3
   807d8:	fb01 3302 	mla	r3, r1, r2, r3
   807dc:	fba2 0100 	umull	r0, r1, r2, r0
   807e0:	4419      	add	r1, r3
   807e2:	014c      	lsls	r4, r1, #5
   807e4:	0142      	lsls	r2, r0, #5
   807e6:	ea44 63d0 	orr.w	r3, r4, r0, lsr #27
   807ea:	1a12      	subs	r2, r2, r0
   807ec:	eb63 0301 	sbc.w	r3, r3, r1
   807f0:	009c      	lsls	r4, r3, #2
   807f2:	ea44 7492 	orr.w	r4, r4, r2, lsr #30
   807f6:	0095      	lsls	r5, r2, #2
   807f8:	182a      	adds	r2, r5, r0
   807fa:	eb44 0301 	adc.w	r3, r4, r1
   807fe:	0119      	lsls	r1, r3, #4
   80800:	ea41 7112 	orr.w	r1, r1, r2, lsr #28
   80804:	0110      	lsls	r0, r2, #4
   80806:	1a80      	subs	r0, r0, r2
   80808:	eb61 0103 	sbc.w	r1, r1, r3
   8080c:	014b      	lsls	r3, r1, #5
   8080e:	ea43 63d0 	orr.w	r3, r3, r0, lsr #27
   80812:	0142      	lsls	r2, r0, #5
   80814:	4610      	mov	r0, r2
   80816:	4619      	mov	r1, r3
}
   80818:	bc30      	pop	{r4, r5}
   8081a:	4770      	bx	lr
   8081c:	20000e40 	.word	0x20000e40

00080820 <hours>:
uint64_t hours(uint64_t s){
   80820:	b410      	push	{r4}
    return s*60*60*1000*calib;
   80822:	4b08      	ldr	r3, [pc, #32]	; (80844 <hours+0x24>)
   80824:	681a      	ldr	r2, [r3, #0]
   80826:	685b      	ldr	r3, [r3, #4]
   80828:	fb00 f303 	mul.w	r3, r0, r3
   8082c:	fb01 3102 	mla	r1, r1, r2, r3
   80830:	fba2 2300 	umull	r2, r3, r2, r0
   80834:	440b      	add	r3, r1
   80836:	4c04      	ldr	r4, [pc, #16]	; (80848 <hours+0x28>)
   80838:	fba2 0104 	umull	r0, r1, r2, r4
   8083c:	fb04 1103 	mla	r1, r4, r3, r1
}
   80840:	bc10      	pop	{r4}
   80842:	4770      	bx	lr
   80844:	20000e40 	.word	0x20000e40
   80848:	0036ee80 	.word	0x0036ee80

0008084c <time_split>:
}
float totalHours(uint64_t t){
    return t / (1.0 * calib * 1000 * 60 * 60);
}

Time time_split(uint64_t t){
   8084c:	e92d 4ff8 	stmdb	sp!, {r3, r4, r5, r6, r7, r8, r9, sl, fp, lr}
   80850:	4682      	mov	sl, r0
   80852:	4616      	mov	r6, r2
   80854:	461f      	mov	r7, r3
    Time r;
    uint64_t d;
    d = t / (calib*1000*60*60);
   80856:	4b4e      	ldr	r3, [pc, #312]	; (80990 <time_split+0x144>)
   80858:	e9d3 4500 	ldrd	r4, r5, [r3]
   8085c:	f8df 9134 	ldr.w	r9, [pc, #308]	; 80994 <time_split+0x148>
   80860:	fba4 2309 	umull	r2, r3, r4, r9
   80864:	fb09 3305 	mla	r3, r9, r5, r3
   80868:	f8df b12c 	ldr.w	fp, [pc, #300]	; 80998 <time_split+0x14c>
   8086c:	4630      	mov	r0, r6
   8086e:	4639      	mov	r1, r7
   80870:	47d8      	blx	fp
    r.hours = d;
   80872:	f8aa 0006 	strh.w	r0, [sl, #6]
    t = t - d * (calib*1000*60*60);
   80876:	fb04 f101 	mul.w	r1, r4, r1
   8087a:	fb00 1105 	mla	r1, r0, r5, r1
   8087e:	fba4 2300 	umull	r2, r3, r4, r0
   80882:	440b      	add	r3, r1
   80884:	fba2 0109 	umull	r0, r1, r2, r9
   80888:	fb09 1103 	mla	r1, r9, r3, r1
   8088c:	1a36      	subs	r6, r6, r0
   8088e:	eb67 0701 	sbc.w	r7, r7, r1
   80892:	46b0      	mov	r8, r6
   80894:	46b9      	mov	r9, r7
    
    d = t / (calib*1000*60);
   80896:	016b      	lsls	r3, r5, #5
   80898:	0166      	lsls	r6, r4, #5
   8089a:	ea43 67d4 	orr.w	r7, r3, r4, lsr #27
   8089e:	1b36      	subs	r6, r6, r4
   808a0:	eb67 0705 	sbc.w	r7, r7, r5
   808a4:	00bb      	lsls	r3, r7, #2
   808a6:	ea43 7396 	orr.w	r3, r3, r6, lsr #30
   808aa:	00b2      	lsls	r2, r6, #2
   808ac:	1916      	adds	r6, r2, r4
   808ae:	eb43 0705 	adc.w	r7, r3, r5
   808b2:	013b      	lsls	r3, r7, #4
   808b4:	ea43 7316 	orr.w	r3, r3, r6, lsr #28
   808b8:	0132      	lsls	r2, r6, #4
   808ba:	1b92      	subs	r2, r2, r6
   808bc:	eb63 0307 	sbc.w	r3, r3, r7
   808c0:	0159      	lsls	r1, r3, #5
   808c2:	ea41 61d2 	orr.w	r1, r1, r2, lsr #27
   808c6:	0150      	lsls	r0, r2, #5
   808c8:	4602      	mov	r2, r0
   808ca:	460b      	mov	r3, r1
   808cc:	4640      	mov	r0, r8
   808ce:	4649      	mov	r1, r9
   808d0:	47d8      	blx	fp
    r.minutes = d;
   808d2:	f88a 0005 	strb.w	r0, [sl, #5]
    t = t - d * (calib*1000*60);
   808d6:	fb04 f301 	mul.w	r3, r4, r1
   808da:	fb00 3305 	mla	r3, r0, r5, r3
   808de:	fba4 0100 	umull	r0, r1, r4, r0
   808e2:	4419      	add	r1, r3
   808e4:	ea4f 1e41 	mov.w	lr, r1, lsl #5
   808e8:	0142      	lsls	r2, r0, #5
   808ea:	ea4e 63d0 	orr.w	r3, lr, r0, lsr #27
   808ee:	1a12      	subs	r2, r2, r0
   808f0:	eb63 0301 	sbc.w	r3, r3, r1
   808f4:	ea4f 0e83 	mov.w	lr, r3, lsl #2
   808f8:	ea4e 7e92 	orr.w	lr, lr, r2, lsr #30
   808fc:	ea4f 0c82 	mov.w	ip, r2, lsl #2
   80900:	eb1c 0200 	adds.w	r2, ip, r0
   80904:	eb4e 0301 	adc.w	r3, lr, r1
   80908:	0119      	lsls	r1, r3, #4
   8090a:	ea41 7112 	orr.w	r1, r1, r2, lsr #28
   8090e:	0110      	lsls	r0, r2, #4
   80910:	1a82      	subs	r2, r0, r2
   80912:	eb61 0303 	sbc.w	r3, r1, r3
   80916:	0159      	lsls	r1, r3, #5
   80918:	ea41 61d2 	orr.w	r1, r1, r2, lsr #27
   8091c:	0150      	lsls	r0, r2, #5
   8091e:	ebb8 0800 	subs.w	r8, r8, r0
   80922:	eb69 0901 	sbc.w	r9, r9, r1
    
    d = t / (calib*1000);
   80926:	00f9      	lsls	r1, r7, #3
   80928:	00f2      	lsls	r2, r6, #3
   8092a:	ea41 7356 	orr.w	r3, r1, r6, lsr #29
   8092e:	4640      	mov	r0, r8
   80930:	4649      	mov	r1, r9
   80932:	47d8      	blx	fp
    r.seconds = d;
   80934:	f88a 0004 	strb.w	r0, [sl, #4]
    t = t - d * (calib*1000);
   80938:	fb04 f301 	mul.w	r3, r4, r1
   8093c:	fb00 3305 	mla	r3, r0, r5, r3
   80940:	fba4 0100 	umull	r0, r1, r4, r0
   80944:	4419      	add	r1, r3
   80946:	014e      	lsls	r6, r1, #5
   80948:	0142      	lsls	r2, r0, #5
   8094a:	ea46 63d0 	orr.w	r3, r6, r0, lsr #27
   8094e:	1a12      	subs	r2, r2, r0
   80950:	eb63 0301 	sbc.w	r3, r3, r1
   80954:	009e      	lsls	r6, r3, #2
   80956:	ea46 7692 	orr.w	r6, r6, r2, lsr #30
   8095a:	0097      	lsls	r7, r2, #2
   8095c:	19c0      	adds	r0, r0, r7
   8095e:	4171      	adcs	r1, r6
   80960:	00cb      	lsls	r3, r1, #3
   80962:	ea43 7350 	orr.w	r3, r3, r0, lsr #29
   80966:	00c2      	lsls	r2, r0, #3
   80968:	ebb8 0802 	subs.w	r8, r8, r2
   8096c:	eb69 0903 	sbc.w	r9, r9, r3
    
    d = t / (calib);
   80970:	4622      	mov	r2, r4
   80972:	462b      	mov	r3, r5
   80974:	4640      	mov	r0, r8
   80976:	4649      	mov	r1, r9
   80978:	47d8      	blx	fp
    r.msecs = d;
   8097a:	b280      	uxth	r0, r0
   8097c:	f8aa 0002 	strh.w	r0, [sl, #2]
    r.ticks = t - d * calib;
   80980:	fb00 8814 	mls	r8, r0, r4, r8
   80984:	f8aa 8000 	strh.w	r8, [sl]
    return r;
}
   80988:	4650      	mov	r0, sl
   8098a:	e8bd 8ff8 	ldmia.w	sp!, {r3, r4, r5, r6, r7, r8, r9, sl, fp, pc}
   8098e:	bf00      	nop
   80990:	20000e40 	.word	0x20000e40
   80994:	0036ee80 	.word	0x0036ee80
   80998:	00081519 	.word	0x00081519

0008099c <time_combine>:

uint64_t time_combine(Time t){
   8099c:	b530      	push	{r4, r5, lr}
   8099e:	b083      	sub	sp, #12
   809a0:	ab02      	add	r3, sp, #8
   809a2:	e903 0003 	stmdb	r3, {r0, r1}
    uint64_t a = 0;
    a += t.ticks + msecs(t.msecs) + seconds(t.seconds) + minutes(t.minutes) + hours(t.hours);
   809a6:	f8bd 4000 	ldrh.w	r4, [sp]
   809aa:	2500      	movs	r5, #0
   809ac:	f8bd 0002 	ldrh.w	r0, [sp, #2]
   809b0:	2100      	movs	r1, #0
   809b2:	4b0d      	ldr	r3, [pc, #52]	; (809e8 <time_combine+0x4c>)
   809b4:	4798      	blx	r3
   809b6:	1824      	adds	r4, r4, r0
   809b8:	414d      	adcs	r5, r1
   809ba:	f89d 0004 	ldrb.w	r0, [sp, #4]
   809be:	2100      	movs	r1, #0
   809c0:	4b0a      	ldr	r3, [pc, #40]	; (809ec <time_combine+0x50>)
   809c2:	4798      	blx	r3
   809c4:	1824      	adds	r4, r4, r0
   809c6:	414d      	adcs	r5, r1
   809c8:	f89d 0005 	ldrb.w	r0, [sp, #5]
   809cc:	2100      	movs	r1, #0
   809ce:	4b08      	ldr	r3, [pc, #32]	; (809f0 <time_combine+0x54>)
   809d0:	4798      	blx	r3
   809d2:	1824      	adds	r4, r4, r0
   809d4:	414d      	adcs	r5, r1
   809d6:	f8bd 0006 	ldrh.w	r0, [sp, #6]
   809da:	2100      	movs	r1, #0
   809dc:	4b05      	ldr	r3, [pc, #20]	; (809f4 <time_combine+0x58>)
   809de:	4798      	blx	r3
    return a;
}     
   809e0:	1900      	adds	r0, r0, r4
   809e2:	4169      	adcs	r1, r5
   809e4:	b003      	add	sp, #12
   809e6:	bd30      	pop	{r4, r5, pc}
   809e8:	00080769 	.word	0x00080769
   809ec:	00080785 	.word	0x00080785
   809f0:	000807cd 	.word	0x000807cd
   809f4:	00080821 	.word	0x00080821

000809f8 <time_spinUntil>:

void time_spinFor(uint64_t duration){
    time_spinUntil(time_now() + duration);
}    

void time_spinUntil(uint64_t then){
   809f8:	b538      	push	{r3, r4, r5, lr}
   809fa:	4604      	mov	r4, r0
   809fc:	460d      	mov	r5, r1
    while(then > time_now()){}        
   809fe:	4b03      	ldr	r3, [pc, #12]	; (80a0c <time_spinUntil+0x14>)
   80a00:	4798      	blx	r3
   80a02:	42a9      	cmp	r1, r5
   80a04:	bf08      	it	eq
   80a06:	42a0      	cmpeq	r0, r4
   80a08:	d3f9      	bcc.n	809fe <time_spinUntil+0x6>
}    
   80a0a:	bd38      	pop	{r3, r4, r5, pc}
   80a0c:	00080731 	.word	0x00080731

00080a10 <time_spinFor>:
void time_spinFor(uint64_t duration){
   80a10:	b538      	push	{r3, r4, r5, lr}
   80a12:	4604      	mov	r4, r0
   80a14:	460d      	mov	r5, r1
    time_spinUntil(time_now() + duration);
   80a16:	4b03      	ldr	r3, [pc, #12]	; (80a24 <time_spinFor+0x14>)
   80a18:	4798      	blx	r3
   80a1a:	1900      	adds	r0, r0, r4
   80a1c:	4169      	adcs	r1, r5
   80a1e:	4b02      	ldr	r3, [pc, #8]	; (80a28 <time_spinFor+0x18>)
   80a20:	4798      	blx	r3
   80a22:	bd38      	pop	{r3, r4, r5, pc}
   80a24:	00080731 	.word	0x00080731
   80a28:	000809f9 	.word	0x000809f9

00080a2c <push>:
};
RingBuf ringBuf = {0};


int push(RingBuf* rb, uint8_t val){
    if(rb->length >= (sizeof(rb->buffer)/sizeof(rb->buffer[0]))){
   80a2c:	f8d0 240c 	ldr.w	r2, [r0, #1036]	; 0x40c
   80a30:	f5b2 6f80 	cmp.w	r2, #1024	; 0x400
   80a34:	d20c      	bcs.n	80a50 <push+0x24>
        return 0;
    }
    rb->buffer[rb->insertIdx] = val;
   80a36:	f8d0 3404 	ldr.w	r3, [r0, #1028]	; 0x404
   80a3a:	54c1      	strb	r1, [r0, r3]
    rb->insertIdx = (rb->insertIdx + 1) % (sizeof(rb->buffer)/sizeof(rb->buffer[0]));
   80a3c:	3301      	adds	r3, #1
   80a3e:	f3c3 0309 	ubfx	r3, r3, #0, #10
   80a42:	f8c0 3404 	str.w	r3, [r0, #1028]	; 0x404
    rb->length++;
   80a46:	3201      	adds	r2, #1
   80a48:	f8c0 240c 	str.w	r2, [r0, #1036]	; 0x40c
    return 1;
   80a4c:	2001      	movs	r0, #1
   80a4e:	4770      	bx	lr
        return 0;
   80a50:	2000      	movs	r0, #0
}
   80a52:	4770      	bx	lr

00080a54 <pop>:

int pop(RingBuf* rb, uint8_t* val){    
   80a54:	4603      	mov	r3, r0
    if(!rb->length){
   80a56:	f8d0 040c 	ldr.w	r0, [r0, #1036]	; 0x40c
   80a5a:	b180      	cbz	r0, 80a7e <pop+0x2a>
        return 0;
    }
    *val = rb->buffer[rb->removeIdx];
   80a5c:	f8d3 2408 	ldr.w	r2, [r3, #1032]	; 0x408
   80a60:	5c9a      	ldrb	r2, [r3, r2]
   80a62:	700a      	strb	r2, [r1, #0]
    rb->removeIdx = (rb->removeIdx + 1) % (sizeof(rb->buffer)/sizeof(rb->buffer[0]));
   80a64:	f8d3 2408 	ldr.w	r2, [r3, #1032]	; 0x408
   80a68:	3201      	adds	r2, #1
   80a6a:	f3c2 0209 	ubfx	r2, r2, #0, #10
   80a6e:	f8c3 2408 	str.w	r2, [r3, #1032]	; 0x408
    rb->length--;
   80a72:	f8d3 240c 	ldr.w	r2, [r3, #1036]	; 0x40c
   80a76:	3a01      	subs	r2, #1
   80a78:	f8c3 240c 	str.w	r2, [r3, #1036]	; 0x40c
    return 1;
   80a7c:	2001      	movs	r0, #1
}
   80a7e:	4770      	bx	lr

00080a80 <uart_init>:

void uart_init(uint32_t cpufreq, uint32_t baudrate){
    PMC->PMC_PCER0 |= (1 << ID_UART);
   80a80:	4a13      	ldr	r2, [pc, #76]	; (80ad0 <uart_init+0x50>)
   80a82:	6913      	ldr	r3, [r2, #16]
   80a84:	f443 7380 	orr.w	r3, r3, #256	; 0x100
   80a88:	6113      	str	r3, [r2, #16]
    
    // Set UART pins (A8, A9) to use alternate function (this disables regular IO)
    PIOA->PIO_PDR   |=   PIO_PA8 | PIO_PA9;
   80a8a:	4b12      	ldr	r3, [pc, #72]	; (80ad4 <uart_init+0x54>)
   80a8c:	685a      	ldr	r2, [r3, #4]
   80a8e:	f442 7240 	orr.w	r2, r2, #768	; 0x300
   80a92:	605a      	str	r2, [r3, #4]
    // Set alternate function A (see tables 9-2, 34-2)
    PIOA->PIO_ABSR  &= ~(PIO_PA8 | PIO_PA9);
   80a94:	6f1a      	ldr	r2, [r3, #112]	; 0x70
   80a96:	f422 7240 	bic.w	r2, r2, #768	; 0x300
   80a9a:	671a      	str	r2, [r3, #112]	; 0x70
    
    // Configure UART settings
    UART->UART_CR   |= UART_CR_TXEN | UART_CR_RXEN;
   80a9c:	f5a3 63c0 	sub.w	r3, r3, #1536	; 0x600
   80aa0:	681a      	ldr	r2, [r3, #0]
   80aa2:	f042 0250 	orr.w	r2, r2, #80	; 0x50
   80aa6:	601a      	str	r2, [r3, #0]
    UART->UART_MR   |= UART_MR_PAR_NO;
   80aa8:	685a      	ldr	r2, [r3, #4]
   80aaa:	f442 6200 	orr.w	r2, r2, #2048	; 0x800
   80aae:	605a      	str	r2, [r3, #4]
    UART->UART_BRGR = cpufreq / 16 / baudrate;
   80ab0:	0900      	lsrs	r0, r0, #4
   80ab2:	fbb0 f1f1 	udiv	r1, r0, r1
   80ab6:	6219      	str	r1, [r3, #32]
    
    
    // Configure interrupts on receive ready and errors
    UART->UART_IDR = 0xFFFFFFFF;
   80ab8:	f04f 32ff 	mov.w	r2, #4294967295
   80abc:	60da      	str	r2, [r3, #12]
    UART->UART_IER = UART_IER_RXRDY | UART_IER_OVRE | UART_IER_FRAME | UART_IER_PARE;
   80abe:	22e1      	movs	r2, #225	; 0xe1
   80ac0:	609a      	str	r2, [r3, #8]
    NVIC->ISER[(((uint32_t)IRQn) >> 5UL)] = (uint32_t)(1UL << (((uint32_t)IRQn) & 0x1FUL));
   80ac2:	f44f 7180 	mov.w	r1, #256	; 0x100
   80ac6:	4a04      	ldr	r2, [pc, #16]	; (80ad8 <uart_init+0x58>)
   80ac8:	6011      	str	r1, [r2, #0]

    // Enable UART interrupt in the Nested Vectored Interrupt Controller (NVIC)
    NVIC_EnableIRQ((IRQn_Type) ID_UART);
    
	// Enable UART receiver and transmitter
	UART->UART_CR = UART_CR_RXEN | UART_CR_TXEN;
   80aca:	2250      	movs	r2, #80	; 0x50
   80acc:	601a      	str	r2, [r3, #0]
   80ace:	4770      	bx	lr
   80ad0:	400e0600 	.word	0x400e0600
   80ad4:	400e0e00 	.word	0x400e0e00
   80ad8:	e000e100 	.word	0xe000e100

00080adc <uart_tx>:
}    

void uart_tx(uint8_t val){
    while(!(UART->UART_SR & UART_SR_TXEMPTY)){}
   80adc:	4b06      	ldr	r3, [pc, #24]	; (80af8 <uart_tx+0x1c>)
   80ade:	695b      	ldr	r3, [r3, #20]
   80ae0:	f413 7f00 	tst.w	r3, #512	; 0x200
   80ae4:	d0fa      	beq.n	80adc <uart_tx>
    UART->UART_THR = val;
   80ae6:	4b04      	ldr	r3, [pc, #16]	; (80af8 <uart_tx+0x1c>)
   80ae8:	61d8      	str	r0, [r3, #28]
	
	while(!((UART->UART_SR) & UART_SR_TXEMPTY)); // Wait for the character to be sent
   80aea:	4b03      	ldr	r3, [pc, #12]	; (80af8 <uart_tx+0x1c>)
   80aec:	695b      	ldr	r3, [r3, #20]
   80aee:	f413 7f00 	tst.w	r3, #512	; 0x200
   80af2:	d0fa      	beq.n	80aea <uart_tx+0xe>
}
   80af4:	4770      	bx	lr
   80af6:	bf00      	nop
   80af8:	400e0800 	.word	0x400e0800

00080afc <uart_rx>:

uint8_t uart_rx(uint8_t* val){
   80afc:	b508      	push	{r3, lr}
    return pop(&ringBuf, val);
   80afe:	4601      	mov	r1, r0
   80b00:	4802      	ldr	r0, [pc, #8]	; (80b0c <uart_rx+0x10>)
   80b02:	4b03      	ldr	r3, [pc, #12]	; (80b10 <uart_rx+0x14>)
   80b04:	4798      	blx	r3
}    
   80b06:	b2c0      	uxtb	r0, r0
   80b08:	bd08      	pop	{r3, pc}
   80b0a:	bf00      	nop
   80b0c:	200009e8 	.word	0x200009e8
   80b10:	00080a55 	.word	0x00080a55

00080b14 <UART_Handler>:
    }    
    return r;
}


void UART_Handler(){
   80b14:	b508      	push	{r3, lr}
    
    uint32_t status = UART->UART_SR;
   80b16:	4b0c      	ldr	r3, [pc, #48]	; (80b48 <UART_Handler+0x34>)
   80b18:	695b      	ldr	r3, [r3, #20]
    
    // Errors: Reset UART
    if(status & (UART_SR_OVRE | UART_SR_FRAME | UART_SR_PARE)){
   80b1a:	f013 0fe0 	tst.w	r3, #224	; 0xe0
   80b1e:	d003      	beq.n	80b28 <UART_Handler+0x14>
        UART->UART_CR = UART_CR_RXEN | UART_CR_TXEN | UART_CR_RSTSTA;
   80b20:	f44f 71a8 	mov.w	r1, #336	; 0x150
   80b24:	4a08      	ldr	r2, [pc, #32]	; (80b48 <UART_Handler+0x34>)
   80b26:	6011      	str	r1, [r2, #0]
    }
    
    // Receive ready: push to ring buffer
    if(status & UART_SR_RXRDY){
   80b28:	f013 0f01 	tst.w	r3, #1
   80b2c:	d100      	bne.n	80b30 <UART_Handler+0x1c>
   80b2e:	bd08      	pop	{r3, pc}
        if(!push(&ringBuf, UART->UART_RHR & 0xff)){
   80b30:	4b05      	ldr	r3, [pc, #20]	; (80b48 <UART_Handler+0x34>)
   80b32:	6999      	ldr	r1, [r3, #24]
   80b34:	b2c9      	uxtb	r1, r1
   80b36:	4805      	ldr	r0, [pc, #20]	; (80b4c <UART_Handler+0x38>)
   80b38:	4b05      	ldr	r3, [pc, #20]	; (80b50 <UART_Handler+0x3c>)
   80b3a:	4798      	blx	r3
   80b3c:	2800      	cmp	r0, #0
   80b3e:	d1f6      	bne.n	80b2e <UART_Handler+0x1a>
            printf("UART receive buffer full\n");
   80b40:	4804      	ldr	r0, [pc, #16]	; (80b54 <UART_Handler+0x40>)
   80b42:	4b05      	ldr	r3, [pc, #20]	; (80b58 <UART_Handler+0x44>)
   80b44:	4798      	blx	r3
        }
    }
    
} 
   80b46:	e7f2      	b.n	80b2e <UART_Handler+0x1a>
   80b48:	400e0800 	.word	0x400e0800
   80b4c:	200009e8 	.word	0x200009e8
   80b50:	00080a2d 	.word	0x00080a2d
   80b54:	00086440 	.word	0x00086440
   80b58:	00081ba1 	.word	0x00081ba1

00080b5c <_sbrk>:
// See https://interrupt.memfault.com/blog/boostrapping-libc-with-newlib

extern int _end;
#include <sys/stat.h>

void *_sbrk(int incr){
   80b5c:	4603      	mov	r3, r0
    static unsigned char *heap = NULL;
    unsigned char *prev_heap;

    if(heap == NULL){
   80b5e:	4a08      	ldr	r2, [pc, #32]	; (80b80 <_sbrk+0x24>)
   80b60:	f8d2 2410 	ldr.w	r2, [r2, #1040]	; 0x410
   80b64:	b132      	cbz	r2, 80b74 <_sbrk+0x18>
        heap = (unsigned char*)&_end;
    }
    prev_heap = heap;
   80b66:	4a06      	ldr	r2, [pc, #24]	; (80b80 <_sbrk+0x24>)
   80b68:	f8d2 0410 	ldr.w	r0, [r2, #1040]	; 0x410

    heap += incr;
   80b6c:	4403      	add	r3, r0
   80b6e:	f8c2 3410 	str.w	r3, [r2, #1040]	; 0x410

    return prev_heap;
}
   80b72:	4770      	bx	lr
        heap = (unsigned char*)&_end;
   80b74:	4903      	ldr	r1, [pc, #12]	; (80b84 <_sbrk+0x28>)
   80b76:	4a02      	ldr	r2, [pc, #8]	; (80b80 <_sbrk+0x24>)
   80b78:	f8c2 1410 	str.w	r1, [r2, #1040]	; 0x410
   80b7c:	e7f3      	b.n	80b66 <_sbrk+0xa>
   80b7e:	bf00      	nop
   80b80:	200009e8 	.word	0x200009e8
   80b84:	20001470 	.word	0x20001470

00080b88 <_close>:

int _close(int file){
    return -1;
}
   80b88:	f04f 30ff 	mov.w	r0, #4294967295
   80b8c:	4770      	bx	lr

00080b8e <_fstat>:

int _fstat(int file, struct stat* st){
    st->st_mode = S_IFCHR;
   80b8e:	f44f 5300 	mov.w	r3, #8192	; 0x2000
   80b92:	604b      	str	r3, [r1, #4]
    return 0;
}
   80b94:	2000      	movs	r0, #0
   80b96:	4770      	bx	lr

00080b98 <_isatty>:

int _isatty(int file){
    return 1;
}
   80b98:	2001      	movs	r0, #1
   80b9a:	4770      	bx	lr

00080b9c <_lseek>:

int _lseek(int file, int ptr, int dir){
    return 0;
}
   80b9c:	2000      	movs	r0, #0
   80b9e:	4770      	bx	lr

00080ba0 <_write>:

int _getpid(void){
    return -1;
}

int _write(int file, char* ptr, int len){
   80ba0:	b570      	push	{r4, r5, r6, lr}
    if(file > 1){
   80ba2:	2801      	cmp	r0, #1
   80ba4:	dc0b      	bgt.n	80bbe <_write+0x1e>
   80ba6:	460e      	mov	r6, r1
   80ba8:	4615      	mov	r5, r2
   80baa:	2400      	movs	r4, #0
   80bac:	e003      	b.n	80bb6 <_write+0x16>
        return -1;    
    }

    for(int idx = 0; idx < len; idx++){
        uart_tx((uint8_t)ptr[idx]);
   80bae:	5d30      	ldrb	r0, [r6, r4]
   80bb0:	4b04      	ldr	r3, [pc, #16]	; (80bc4 <_write+0x24>)
   80bb2:	4798      	blx	r3
    for(int idx = 0; idx < len; idx++){
   80bb4:	3401      	adds	r4, #1
   80bb6:	42ac      	cmp	r4, r5
   80bb8:	dbf9      	blt.n	80bae <_write+0xe>
    }
    return len;
}
   80bba:	4628      	mov	r0, r5
   80bbc:	bd70      	pop	{r4, r5, r6, pc}
        return -1;    
   80bbe:	f04f 35ff 	mov.w	r5, #4294967295
   80bc2:	e7fa      	b.n	80bba <_write+0x1a>
   80bc4:	00080add 	.word	0x00080add

00080bc8 <_read>:

int _read(int file, char* ptr, int len){
   80bc8:	b5f8      	push	{r3, r4, r5, r6, r7, lr}
    if(file > 1){
   80bca:	2801      	cmp	r0, #1
   80bcc:	dc0c      	bgt.n	80be8 <_read+0x20>
   80bce:	4616      	mov	r6, r2
   80bd0:	460f      	mov	r7, r1
   80bd2:	2400      	movs	r4, #0
   80bd4:	4625      	mov	r5, r4
        return -1;
    }
    
    int nread = 0;
    for(int idx = 0; idx < len; idx++){
   80bd6:	42b4      	cmp	r4, r6
   80bd8:	da08      	bge.n	80bec <_read+0x24>
        int b = uart_rx((uint8_t*)&ptr[idx]);
   80bda:	1938      	adds	r0, r7, r4
   80bdc:	4b04      	ldr	r3, [pc, #16]	; (80bf0 <_read+0x28>)
   80bde:	4798      	blx	r3
        nread += b;     
   80be0:	4405      	add	r5, r0
        if(!b){
   80be2:	b118      	cbz	r0, 80bec <_read+0x24>
    for(int idx = 0; idx < len; idx++){
   80be4:	3401      	adds	r4, #1
   80be6:	e7f6      	b.n	80bd6 <_read+0xe>
        return -1;
   80be8:	f04f 35ff 	mov.w	r5, #4294967295
            return nread;
        }        
    }
    return nread;
}
   80bec:	4628      	mov	r0, r5
   80bee:	bdf8      	pop	{r3, r4, r5, r6, r7, pc}
   80bf0:	00080afd 	.word	0x00080afd

00080bf4 <main>:

extern int8_t rec_pos_x;
extern int8_t rec_pos_y;
extern uint8_t rec_pos_sl;

int main(void) {
   80bf4:	b508      	push	{r3, lr}
	SystemInit();
   80bf6:	4b3b      	ldr	r3, [pc, #236]	; (80ce4 <main+0xf0>)
   80bf8:	4798      	blx	r3
	WDT->WDT_MR = WDT_MR_WDDIS; //Disable Watchdog Timer
   80bfa:	f44f 4200 	mov.w	r2, #32768	; 0x8000
   80bfe:	4b3a      	ldr	r3, [pc, #232]	; (80ce8 <main+0xf4>)
   80c00:	605a      	str	r2, [r3, #4]
	uart_init(F_CPU, 9600);
   80c02:	f44f 5116 	mov.w	r1, #9600	; 0x2580
   80c06:	4839      	ldr	r0, [pc, #228]	; (80cec <main+0xf8>)
   80c08:	4b39      	ldr	r3, [pc, #228]	; (80cf0 <main+0xfc>)
   80c0a:	4798      	blx	r3
	can_init((CanInit){.brp = 41, .phase1 = 6, .phase2 = 5, .propag = 1, .sjw=2}, 1);
   80c0c:	2000      	movs	r0, #0
   80c0e:	2305      	movs	r3, #5
   80c10:	f363 0003 	bfi	r0, r3, #0, #4
   80c14:	2101      	movs	r1, #1
   80c16:	f361 1007 	bfi	r0, r1, #4, #4
   80c1a:	2306      	movs	r3, #6
   80c1c:	f363 200b 	bfi	r0, r3, #8, #4
   80c20:	2302      	movs	r3, #2
   80c22:	f363 300f 	bfi	r0, r3, #12, #4
   80c26:	2329      	movs	r3, #41	; 0x29
   80c28:	f363 4017 	bfi	r0, r3, #16, #8
   80c2c:	4b31      	ldr	r3, [pc, #196]	; (80cf4 <main+0x100>)
   80c2e:	4798      	blx	r3
	pwm_init();
   80c30:	4b31      	ldr	r3, [pc, #196]	; (80cf8 <main+0x104>)
   80c32:	4798      	blx	r3
	adc_init();
   80c34:	4b31      	ldr	r3, [pc, #196]	; (80cfc <main+0x108>)
   80c36:	4798      	blx	r3
	set_duty_cycle(CENTER_PWM);
   80c38:	207b      	movs	r0, #123	; 0x7b
   80c3a:	4b31      	ldr	r3, [pc, #196]	; (80d00 <main+0x10c>)
   80c3c:	4798      	blx	r3
	encoder_init();
   80c3e:	4b31      	ldr	r3, [pc, #196]	; (80d04 <main+0x110>)
   80c40:	4798      	blx	r3
	
	PMC->PMC_PCER0 |= PMC_PCER0_PID13;
   80c42:	4a31      	ldr	r2, [pc, #196]	; (80d08 <main+0x114>)
   80c44:	6913      	ldr	r3, [r2, #16]
   80c46:	f443 5300 	orr.w	r3, r3, #8192	; 0x2000
   80c4a:	6113      	str	r3, [r2, #16]
	PIOC->PIO_OER |= PIO_OER_P23;
   80c4c:	4b2f      	ldr	r3, [pc, #188]	; (80d0c <main+0x118>)
   80c4e:	691a      	ldr	r2, [r3, #16]
   80c50:	f442 0200 	orr.w	r2, r2, #8388608	; 0x800000
   80c54:	611a      	str	r2, [r3, #16]
	PIOC->PIO_PER |= PIO_PER_P23;
   80c56:	681a      	ldr	r2, [r3, #0]
   80c58:	f442 0200 	orr.w	r2, r2, #8388608	; 0x800000
   80c5c:	601a      	str	r2, [r3, #0]
   80c5e:	e007      	b.n	80c70 <main+0x7c>
		
		int32_t y = -encoder_read() + 2813;
		//printf("%d\n\r",rec_pos_sl);
		int32_t r = (rec_pos_x)*2813/127;
		int32_t u = pid(r,y);
		int8_t dir = (u >= 0) ? 1 : -1;
   80c60:	f04f 33ff 	mov.w	r3, #4294967295
   80c64:	e028      	b.n	80cb8 <main+0xc4>
		
		PWM->PWM_CH_NUM[0].PWM_CDTY = u;
		if (dir >= 0)
			PIOC->PIO_SODR |= PIO_PER_P23;
		else
			PIOC->PIO_CODR |= PIO_PER_P23;
   80c66:	4a29      	ldr	r2, [pc, #164]	; (80d0c <main+0x118>)
   80c68:	6b53      	ldr	r3, [r2, #52]	; 0x34
   80c6a:	f443 0300 	orr.w	r3, r3, #8388608	; 0x800000
   80c6e:	6353      	str	r3, [r2, #52]	; 0x34
		time_spinFor(msecs(16));
   80c70:	2010      	movs	r0, #16
   80c72:	2100      	movs	r1, #0
   80c74:	4b26      	ldr	r3, [pc, #152]	; (80d10 <main+0x11c>)
   80c76:	4798      	blx	r3
   80c78:	4b26      	ldr	r3, [pc, #152]	; (80d14 <main+0x120>)
   80c7a:	4798      	blx	r3
		uint8_t pwm_value = from_joy2pwm(-rec_pos_y);
   80c7c:	4b26      	ldr	r3, [pc, #152]	; (80d18 <main+0x124>)
   80c7e:	7818      	ldrb	r0, [r3, #0]
   80c80:	4240      	negs	r0, r0
   80c82:	b240      	sxtb	r0, r0
   80c84:	4b25      	ldr	r3, [pc, #148]	; (80d1c <main+0x128>)
   80c86:	4798      	blx	r3
		set_duty_cycle(pwm_value);
   80c88:	4b1d      	ldr	r3, [pc, #116]	; (80d00 <main+0x10c>)
   80c8a:	4798      	blx	r3
		int32_t y = -encoder_read() + 2813;
   80c8c:	4b24      	ldr	r3, [pc, #144]	; (80d20 <main+0x12c>)
   80c8e:	4798      	blx	r3
   80c90:	f640 21fd 	movw	r1, #2813	; 0xafd
		int32_t r = (rec_pos_x)*2813/127;
   80c94:	4b23      	ldr	r3, [pc, #140]	; (80d24 <main+0x130>)
   80c96:	f993 3000 	ldrsb.w	r3, [r3]
   80c9a:	fb01 f303 	mul.w	r3, r1, r3
   80c9e:	4a22      	ldr	r2, [pc, #136]	; (80d28 <main+0x134>)
   80ca0:	fb82 e203 	smull	lr, r2, r2, r3
   80ca4:	441a      	add	r2, r3
   80ca6:	17db      	asrs	r3, r3, #31
		int32_t u = pid(r,y);
   80ca8:	1a09      	subs	r1, r1, r0
   80caa:	ebc3 10a2 	rsb	r0, r3, r2, asr #6
   80cae:	4b1f      	ldr	r3, [pc, #124]	; (80d2c <main+0x138>)
   80cb0:	4798      	blx	r3
		int8_t dir = (u >= 0) ? 1 : -1;
   80cb2:	2800      	cmp	r0, #0
   80cb4:	dbd4      	blt.n	80c60 <main+0x6c>
   80cb6:	2301      	movs	r3, #1
		u = (abs(u) >= 3360) ? 3360 : abs(u);
   80cb8:	2800      	cmp	r0, #0
   80cba:	bfb8      	it	lt
   80cbc:	4240      	neglt	r0, r0
   80cbe:	f5b0 6f52 	cmp.w	r0, #3360	; 0xd20
   80cc2:	bfa8      	it	ge
   80cc4:	f44f 6052 	movge.w	r0, #3360	; 0xd20
		PWM->PWM_CH_NUM[0].PWM_CDTY = u;
   80cc8:	4a19      	ldr	r2, [pc, #100]	; (80d30 <main+0x13c>)
   80cca:	f8c2 0204 	str.w	r0, [r2, #516]	; 0x204
		if (dir >= 0)
   80cce:	2b00      	cmp	r3, #0
   80cd0:	dbc9      	blt.n	80c66 <main+0x72>
			PIOC->PIO_SODR |= PIO_PER_P23;
   80cd2:	f502 229a 	add.w	r2, r2, #315392	; 0x4d000
   80cd6:	f502 7200 	add.w	r2, r2, #512	; 0x200
   80cda:	6b13      	ldr	r3, [r2, #48]	; 0x30
   80cdc:	f443 0300 	orr.w	r3, r3, #8388608	; 0x800000
   80ce0:	6313      	str	r3, [r2, #48]	; 0x30
   80ce2:	e7c5      	b.n	80c70 <main+0x7c>
   80ce4:	000801d1 	.word	0x000801d1
   80ce8:	400e1a50 	.word	0x400e1a50
   80cec:	0501bd00 	.word	0x0501bd00
   80cf0:	00080a81 	.word	0x00080a81
   80cf4:	00080349 	.word	0x00080349
   80cf8:	00080611 	.word	0x00080611
   80cfc:	00080275 	.word	0x00080275
   80d00:	00080699 	.word	0x00080699
   80d04:	000804f5 	.word	0x000804f5
   80d08:	400e0600 	.word	0x400e0600
   80d0c:	400e1200 	.word	0x400e1200
   80d10:	00080769 	.word	0x00080769
   80d14:	00080a11 	.word	0x00080a11
   80d18:	20000e3a 	.word	0x20000e3a
   80d1c:	000806b5 	.word	0x000806b5
   80d20:	00080555 	.word	0x00080555
   80d24:	20000e39 	.word	0x20000e39
   80d28:	81020409 	.word	0x81020409
   80d2c:	00080561 	.word	0x00080561
   80d30:	40094000 	.word	0x40094000

00080d34 <__aeabi_drsub>:
   80d34:	f081 4100 	eor.w	r1, r1, #2147483648	; 0x80000000
   80d38:	e002      	b.n	80d40 <__adddf3>
   80d3a:	bf00      	nop

00080d3c <__aeabi_dsub>:
   80d3c:	f083 4300 	eor.w	r3, r3, #2147483648	; 0x80000000

00080d40 <__adddf3>:
   80d40:	b530      	push	{r4, r5, lr}
   80d42:	ea4f 0441 	mov.w	r4, r1, lsl #1
   80d46:	ea4f 0543 	mov.w	r5, r3, lsl #1
   80d4a:	ea94 0f05 	teq	r4, r5
   80d4e:	bf08      	it	eq
   80d50:	ea90 0f02 	teqeq	r0, r2
   80d54:	bf1f      	itttt	ne
   80d56:	ea54 0c00 	orrsne.w	ip, r4, r0
   80d5a:	ea55 0c02 	orrsne.w	ip, r5, r2
   80d5e:	ea7f 5c64 	mvnsne.w	ip, r4, asr #21
   80d62:	ea7f 5c65 	mvnsne.w	ip, r5, asr #21
   80d66:	f000 80e2 	beq.w	80f2e <__adddf3+0x1ee>
   80d6a:	ea4f 5454 	mov.w	r4, r4, lsr #21
   80d6e:	ebd4 5555 	rsbs	r5, r4, r5, lsr #21
   80d72:	bfb8      	it	lt
   80d74:	426d      	neglt	r5, r5
   80d76:	dd0c      	ble.n	80d92 <__adddf3+0x52>
   80d78:	442c      	add	r4, r5
   80d7a:	ea80 0202 	eor.w	r2, r0, r2
   80d7e:	ea81 0303 	eor.w	r3, r1, r3
   80d82:	ea82 0000 	eor.w	r0, r2, r0
   80d86:	ea83 0101 	eor.w	r1, r3, r1
   80d8a:	ea80 0202 	eor.w	r2, r0, r2
   80d8e:	ea81 0303 	eor.w	r3, r1, r3
   80d92:	2d36      	cmp	r5, #54	; 0x36
   80d94:	bf88      	it	hi
   80d96:	bd30      	pophi	{r4, r5, pc}
   80d98:	f011 4f00 	tst.w	r1, #2147483648	; 0x80000000
   80d9c:	ea4f 3101 	mov.w	r1, r1, lsl #12
   80da0:	f44f 1c80 	mov.w	ip, #1048576	; 0x100000
   80da4:	ea4c 3111 	orr.w	r1, ip, r1, lsr #12
   80da8:	d002      	beq.n	80db0 <__adddf3+0x70>
   80daa:	4240      	negs	r0, r0
   80dac:	eb61 0141 	sbc.w	r1, r1, r1, lsl #1
   80db0:	f013 4f00 	tst.w	r3, #2147483648	; 0x80000000
   80db4:	ea4f 3303 	mov.w	r3, r3, lsl #12
   80db8:	ea4c 3313 	orr.w	r3, ip, r3, lsr #12
   80dbc:	d002      	beq.n	80dc4 <__adddf3+0x84>
   80dbe:	4252      	negs	r2, r2
   80dc0:	eb63 0343 	sbc.w	r3, r3, r3, lsl #1
   80dc4:	ea94 0f05 	teq	r4, r5
   80dc8:	f000 80a7 	beq.w	80f1a <__adddf3+0x1da>
   80dcc:	f1a4 0401 	sub.w	r4, r4, #1
   80dd0:	f1d5 0e20 	rsbs	lr, r5, #32
   80dd4:	db0d      	blt.n	80df2 <__adddf3+0xb2>
   80dd6:	fa02 fc0e 	lsl.w	ip, r2, lr
   80dda:	fa22 f205 	lsr.w	r2, r2, r5
   80dde:	1880      	adds	r0, r0, r2
   80de0:	f141 0100 	adc.w	r1, r1, #0
   80de4:	fa03 f20e 	lsl.w	r2, r3, lr
   80de8:	1880      	adds	r0, r0, r2
   80dea:	fa43 f305 	asr.w	r3, r3, r5
   80dee:	4159      	adcs	r1, r3
   80df0:	e00e      	b.n	80e10 <__adddf3+0xd0>
   80df2:	f1a5 0520 	sub.w	r5, r5, #32
   80df6:	f10e 0e20 	add.w	lr, lr, #32
   80dfa:	2a01      	cmp	r2, #1
   80dfc:	fa03 fc0e 	lsl.w	ip, r3, lr
   80e00:	bf28      	it	cs
   80e02:	f04c 0c02 	orrcs.w	ip, ip, #2
   80e06:	fa43 f305 	asr.w	r3, r3, r5
   80e0a:	18c0      	adds	r0, r0, r3
   80e0c:	eb51 71e3 	adcs.w	r1, r1, r3, asr #31
   80e10:	f001 4500 	and.w	r5, r1, #2147483648	; 0x80000000
   80e14:	d507      	bpl.n	80e26 <__adddf3+0xe6>
   80e16:	f04f 0e00 	mov.w	lr, #0
   80e1a:	f1dc 0c00 	rsbs	ip, ip, #0
   80e1e:	eb7e 0000 	sbcs.w	r0, lr, r0
   80e22:	eb6e 0101 	sbc.w	r1, lr, r1
   80e26:	f5b1 1f80 	cmp.w	r1, #1048576	; 0x100000
   80e2a:	d31b      	bcc.n	80e64 <__adddf3+0x124>
   80e2c:	f5b1 1f00 	cmp.w	r1, #2097152	; 0x200000
   80e30:	d30c      	bcc.n	80e4c <__adddf3+0x10c>
   80e32:	0849      	lsrs	r1, r1, #1
   80e34:	ea5f 0030 	movs.w	r0, r0, rrx
   80e38:	ea4f 0c3c 	mov.w	ip, ip, rrx
   80e3c:	f104 0401 	add.w	r4, r4, #1
   80e40:	ea4f 5244 	mov.w	r2, r4, lsl #21
   80e44:	f512 0f80 	cmn.w	r2, #4194304	; 0x400000
   80e48:	f080 809a 	bcs.w	80f80 <__adddf3+0x240>
   80e4c:	f1bc 4f00 	cmp.w	ip, #2147483648	; 0x80000000
   80e50:	bf08      	it	eq
   80e52:	ea5f 0c50 	movseq.w	ip, r0, lsr #1
   80e56:	f150 0000 	adcs.w	r0, r0, #0
   80e5a:	eb41 5104 	adc.w	r1, r1, r4, lsl #20
   80e5e:	ea41 0105 	orr.w	r1, r1, r5
   80e62:	bd30      	pop	{r4, r5, pc}
   80e64:	ea5f 0c4c 	movs.w	ip, ip, lsl #1
   80e68:	4140      	adcs	r0, r0
   80e6a:	eb41 0101 	adc.w	r1, r1, r1
   80e6e:	f411 1f80 	tst.w	r1, #1048576	; 0x100000
   80e72:	f1a4 0401 	sub.w	r4, r4, #1
   80e76:	d1e9      	bne.n	80e4c <__adddf3+0x10c>
   80e78:	f091 0f00 	teq	r1, #0
   80e7c:	bf04      	itt	eq
   80e7e:	4601      	moveq	r1, r0
   80e80:	2000      	moveq	r0, #0
   80e82:	fab1 f381 	clz	r3, r1
   80e86:	bf08      	it	eq
   80e88:	3320      	addeq	r3, #32
   80e8a:	f1a3 030b 	sub.w	r3, r3, #11
   80e8e:	f1b3 0220 	subs.w	r2, r3, #32
   80e92:	da0c      	bge.n	80eae <__adddf3+0x16e>
   80e94:	320c      	adds	r2, #12
   80e96:	dd08      	ble.n	80eaa <__adddf3+0x16a>
   80e98:	f102 0c14 	add.w	ip, r2, #20
   80e9c:	f1c2 020c 	rsb	r2, r2, #12
   80ea0:	fa01 f00c 	lsl.w	r0, r1, ip
   80ea4:	fa21 f102 	lsr.w	r1, r1, r2
   80ea8:	e00c      	b.n	80ec4 <__adddf3+0x184>
   80eaa:	f102 0214 	add.w	r2, r2, #20
   80eae:	bfd8      	it	le
   80eb0:	f1c2 0c20 	rsble	ip, r2, #32
   80eb4:	fa01 f102 	lsl.w	r1, r1, r2
   80eb8:	fa20 fc0c 	lsr.w	ip, r0, ip
   80ebc:	bfdc      	itt	le
   80ebe:	ea41 010c 	orrle.w	r1, r1, ip
   80ec2:	4090      	lslle	r0, r2
   80ec4:	1ae4      	subs	r4, r4, r3
   80ec6:	bfa2      	ittt	ge
   80ec8:	eb01 5104 	addge.w	r1, r1, r4, lsl #20
   80ecc:	4329      	orrge	r1, r5
   80ece:	bd30      	popge	{r4, r5, pc}
   80ed0:	ea6f 0404 	mvn.w	r4, r4
   80ed4:	3c1f      	subs	r4, #31
   80ed6:	da1c      	bge.n	80f12 <__adddf3+0x1d2>
   80ed8:	340c      	adds	r4, #12
   80eda:	dc0e      	bgt.n	80efa <__adddf3+0x1ba>
   80edc:	f104 0414 	add.w	r4, r4, #20
   80ee0:	f1c4 0220 	rsb	r2, r4, #32
   80ee4:	fa20 f004 	lsr.w	r0, r0, r4
   80ee8:	fa01 f302 	lsl.w	r3, r1, r2
   80eec:	ea40 0003 	orr.w	r0, r0, r3
   80ef0:	fa21 f304 	lsr.w	r3, r1, r4
   80ef4:	ea45 0103 	orr.w	r1, r5, r3
   80ef8:	bd30      	pop	{r4, r5, pc}
   80efa:	f1c4 040c 	rsb	r4, r4, #12
   80efe:	f1c4 0220 	rsb	r2, r4, #32
   80f02:	fa20 f002 	lsr.w	r0, r0, r2
   80f06:	fa01 f304 	lsl.w	r3, r1, r4
   80f0a:	ea40 0003 	orr.w	r0, r0, r3
   80f0e:	4629      	mov	r1, r5
   80f10:	bd30      	pop	{r4, r5, pc}
   80f12:	fa21 f004 	lsr.w	r0, r1, r4
   80f16:	4629      	mov	r1, r5
   80f18:	bd30      	pop	{r4, r5, pc}
   80f1a:	f094 0f00 	teq	r4, #0
   80f1e:	f483 1380 	eor.w	r3, r3, #1048576	; 0x100000
   80f22:	bf06      	itte	eq
   80f24:	f481 1180 	eoreq.w	r1, r1, #1048576	; 0x100000
   80f28:	3401      	addeq	r4, #1
   80f2a:	3d01      	subne	r5, #1
   80f2c:	e74e      	b.n	80dcc <__adddf3+0x8c>
   80f2e:	ea7f 5c64 	mvns.w	ip, r4, asr #21
   80f32:	bf18      	it	ne
   80f34:	ea7f 5c65 	mvnsne.w	ip, r5, asr #21
   80f38:	d029      	beq.n	80f8e <__adddf3+0x24e>
   80f3a:	ea94 0f05 	teq	r4, r5
   80f3e:	bf08      	it	eq
   80f40:	ea90 0f02 	teqeq	r0, r2
   80f44:	d005      	beq.n	80f52 <__adddf3+0x212>
   80f46:	ea54 0c00 	orrs.w	ip, r4, r0
   80f4a:	bf04      	itt	eq
   80f4c:	4619      	moveq	r1, r3
   80f4e:	4610      	moveq	r0, r2
   80f50:	bd30      	pop	{r4, r5, pc}
   80f52:	ea91 0f03 	teq	r1, r3
   80f56:	bf1e      	ittt	ne
   80f58:	2100      	movne	r1, #0
   80f5a:	2000      	movne	r0, #0
   80f5c:	bd30      	popne	{r4, r5, pc}
   80f5e:	ea5f 5c54 	movs.w	ip, r4, lsr #21
   80f62:	d105      	bne.n	80f70 <__adddf3+0x230>
   80f64:	0040      	lsls	r0, r0, #1
   80f66:	4149      	adcs	r1, r1
   80f68:	bf28      	it	cs
   80f6a:	f041 4100 	orrcs.w	r1, r1, #2147483648	; 0x80000000
   80f6e:	bd30      	pop	{r4, r5, pc}
   80f70:	f514 0480 	adds.w	r4, r4, #4194304	; 0x400000
   80f74:	bf3c      	itt	cc
   80f76:	f501 1180 	addcc.w	r1, r1, #1048576	; 0x100000
   80f7a:	bd30      	popcc	{r4, r5, pc}
   80f7c:	f001 4500 	and.w	r5, r1, #2147483648	; 0x80000000
   80f80:	f045 41fe 	orr.w	r1, r5, #2130706432	; 0x7f000000
   80f84:	f441 0170 	orr.w	r1, r1, #15728640	; 0xf00000
   80f88:	f04f 0000 	mov.w	r0, #0
   80f8c:	bd30      	pop	{r4, r5, pc}
   80f8e:	ea7f 5c64 	mvns.w	ip, r4, asr #21
   80f92:	bf1a      	itte	ne
   80f94:	4619      	movne	r1, r3
   80f96:	4610      	movne	r0, r2
   80f98:	ea7f 5c65 	mvnseq.w	ip, r5, asr #21
   80f9c:	bf1c      	itt	ne
   80f9e:	460b      	movne	r3, r1
   80fa0:	4602      	movne	r2, r0
   80fa2:	ea50 3401 	orrs.w	r4, r0, r1, lsl #12
   80fa6:	bf06      	itte	eq
   80fa8:	ea52 3503 	orrseq.w	r5, r2, r3, lsl #12
   80fac:	ea91 0f03 	teqeq	r1, r3
   80fb0:	f441 2100 	orrne.w	r1, r1, #524288	; 0x80000
   80fb4:	bd30      	pop	{r4, r5, pc}
   80fb6:	bf00      	nop

00080fb8 <__aeabi_ui2d>:
   80fb8:	f090 0f00 	teq	r0, #0
   80fbc:	bf04      	itt	eq
   80fbe:	2100      	moveq	r1, #0
   80fc0:	4770      	bxeq	lr
   80fc2:	b530      	push	{r4, r5, lr}
   80fc4:	f44f 6480 	mov.w	r4, #1024	; 0x400
   80fc8:	f104 0432 	add.w	r4, r4, #50	; 0x32
   80fcc:	f04f 0500 	mov.w	r5, #0
   80fd0:	f04f 0100 	mov.w	r1, #0
   80fd4:	e750      	b.n	80e78 <__adddf3+0x138>
   80fd6:	bf00      	nop

00080fd8 <__aeabi_i2d>:
   80fd8:	f090 0f00 	teq	r0, #0
   80fdc:	bf04      	itt	eq
   80fde:	2100      	moveq	r1, #0
   80fe0:	4770      	bxeq	lr
   80fe2:	b530      	push	{r4, r5, lr}
   80fe4:	f44f 6480 	mov.w	r4, #1024	; 0x400
   80fe8:	f104 0432 	add.w	r4, r4, #50	; 0x32
   80fec:	f010 4500 	ands.w	r5, r0, #2147483648	; 0x80000000
   80ff0:	bf48      	it	mi
   80ff2:	4240      	negmi	r0, r0
   80ff4:	f04f 0100 	mov.w	r1, #0
   80ff8:	e73e      	b.n	80e78 <__adddf3+0x138>
   80ffa:	bf00      	nop

00080ffc <__aeabi_f2d>:
   80ffc:	0042      	lsls	r2, r0, #1
   80ffe:	ea4f 01e2 	mov.w	r1, r2, asr #3
   81002:	ea4f 0131 	mov.w	r1, r1, rrx
   81006:	ea4f 7002 	mov.w	r0, r2, lsl #28
   8100a:	bf1f      	itttt	ne
   8100c:	f012 437f 	andsne.w	r3, r2, #4278190080	; 0xff000000
   81010:	f093 4f7f 	teqne	r3, #4278190080	; 0xff000000
   81014:	f081 5160 	eorne.w	r1, r1, #939524096	; 0x38000000
   81018:	4770      	bxne	lr
   8101a:	f092 0f00 	teq	r2, #0
   8101e:	bf14      	ite	ne
   81020:	f093 4f7f 	teqne	r3, #4278190080	; 0xff000000
   81024:	4770      	bxeq	lr
   81026:	b530      	push	{r4, r5, lr}
   81028:	f44f 7460 	mov.w	r4, #896	; 0x380
   8102c:	f001 4500 	and.w	r5, r1, #2147483648	; 0x80000000
   81030:	f021 4100 	bic.w	r1, r1, #2147483648	; 0x80000000
   81034:	e720      	b.n	80e78 <__adddf3+0x138>
   81036:	bf00      	nop

00081038 <__aeabi_ul2d>:
   81038:	ea50 0201 	orrs.w	r2, r0, r1
   8103c:	bf08      	it	eq
   8103e:	4770      	bxeq	lr
   81040:	b530      	push	{r4, r5, lr}
   81042:	f04f 0500 	mov.w	r5, #0
   81046:	e00a      	b.n	8105e <__aeabi_l2d+0x16>

00081048 <__aeabi_l2d>:
   81048:	ea50 0201 	orrs.w	r2, r0, r1
   8104c:	bf08      	it	eq
   8104e:	4770      	bxeq	lr
   81050:	b530      	push	{r4, r5, lr}
   81052:	f011 4500 	ands.w	r5, r1, #2147483648	; 0x80000000
   81056:	d502      	bpl.n	8105e <__aeabi_l2d+0x16>
   81058:	4240      	negs	r0, r0
   8105a:	eb61 0141 	sbc.w	r1, r1, r1, lsl #1
   8105e:	f44f 6480 	mov.w	r4, #1024	; 0x400
   81062:	f104 0432 	add.w	r4, r4, #50	; 0x32
   81066:	ea5f 5c91 	movs.w	ip, r1, lsr #22
   8106a:	f43f aedc 	beq.w	80e26 <__adddf3+0xe6>
   8106e:	f04f 0203 	mov.w	r2, #3
   81072:	ea5f 0cdc 	movs.w	ip, ip, lsr #3
   81076:	bf18      	it	ne
   81078:	3203      	addne	r2, #3
   8107a:	ea5f 0cdc 	movs.w	ip, ip, lsr #3
   8107e:	bf18      	it	ne
   81080:	3203      	addne	r2, #3
   81082:	eb02 02dc 	add.w	r2, r2, ip, lsr #3
   81086:	f1c2 0320 	rsb	r3, r2, #32
   8108a:	fa00 fc03 	lsl.w	ip, r0, r3
   8108e:	fa20 f002 	lsr.w	r0, r0, r2
   81092:	fa01 fe03 	lsl.w	lr, r1, r3
   81096:	ea40 000e 	orr.w	r0, r0, lr
   8109a:	fa21 f102 	lsr.w	r1, r1, r2
   8109e:	4414      	add	r4, r2
   810a0:	e6c1      	b.n	80e26 <__adddf3+0xe6>
   810a2:	bf00      	nop

000810a4 <__aeabi_dmul>:
   810a4:	b570      	push	{r4, r5, r6, lr}
   810a6:	f04f 0cff 	mov.w	ip, #255	; 0xff
   810aa:	f44c 6ce0 	orr.w	ip, ip, #1792	; 0x700
   810ae:	ea1c 5411 	ands.w	r4, ip, r1, lsr #20
   810b2:	bf1d      	ittte	ne
   810b4:	ea1c 5513 	andsne.w	r5, ip, r3, lsr #20
   810b8:	ea94 0f0c 	teqne	r4, ip
   810bc:	ea95 0f0c 	teqne	r5, ip
   810c0:	f000 f8de 	bleq	81280 <__aeabi_dmul+0x1dc>
   810c4:	442c      	add	r4, r5
   810c6:	ea81 0603 	eor.w	r6, r1, r3
   810ca:	ea21 514c 	bic.w	r1, r1, ip, lsl #21
   810ce:	ea23 534c 	bic.w	r3, r3, ip, lsl #21
   810d2:	ea50 3501 	orrs.w	r5, r0, r1, lsl #12
   810d6:	bf18      	it	ne
   810d8:	ea52 3503 	orrsne.w	r5, r2, r3, lsl #12
   810dc:	f441 1180 	orr.w	r1, r1, #1048576	; 0x100000
   810e0:	f443 1380 	orr.w	r3, r3, #1048576	; 0x100000
   810e4:	d038      	beq.n	81158 <__aeabi_dmul+0xb4>
   810e6:	fba0 ce02 	umull	ip, lr, r0, r2
   810ea:	f04f 0500 	mov.w	r5, #0
   810ee:	fbe1 e502 	umlal	lr, r5, r1, r2
   810f2:	f006 4200 	and.w	r2, r6, #2147483648	; 0x80000000
   810f6:	fbe0 e503 	umlal	lr, r5, r0, r3
   810fa:	f04f 0600 	mov.w	r6, #0
   810fe:	fbe1 5603 	umlal	r5, r6, r1, r3
   81102:	f09c 0f00 	teq	ip, #0
   81106:	bf18      	it	ne
   81108:	f04e 0e01 	orrne.w	lr, lr, #1
   8110c:	f1a4 04ff 	sub.w	r4, r4, #255	; 0xff
   81110:	f5b6 7f00 	cmp.w	r6, #512	; 0x200
   81114:	f564 7440 	sbc.w	r4, r4, #768	; 0x300
   81118:	d204      	bcs.n	81124 <__aeabi_dmul+0x80>
   8111a:	ea5f 0e4e 	movs.w	lr, lr, lsl #1
   8111e:	416d      	adcs	r5, r5
   81120:	eb46 0606 	adc.w	r6, r6, r6
   81124:	ea42 21c6 	orr.w	r1, r2, r6, lsl #11
   81128:	ea41 5155 	orr.w	r1, r1, r5, lsr #21
   8112c:	ea4f 20c5 	mov.w	r0, r5, lsl #11
   81130:	ea40 505e 	orr.w	r0, r0, lr, lsr #21
   81134:	ea4f 2ece 	mov.w	lr, lr, lsl #11
   81138:	f1b4 0cfd 	subs.w	ip, r4, #253	; 0xfd
   8113c:	bf88      	it	hi
   8113e:	f5bc 6fe0 	cmphi.w	ip, #1792	; 0x700
   81142:	d81e      	bhi.n	81182 <__aeabi_dmul+0xde>
   81144:	f1be 4f00 	cmp.w	lr, #2147483648	; 0x80000000
   81148:	bf08      	it	eq
   8114a:	ea5f 0e50 	movseq.w	lr, r0, lsr #1
   8114e:	f150 0000 	adcs.w	r0, r0, #0
   81152:	eb41 5104 	adc.w	r1, r1, r4, lsl #20
   81156:	bd70      	pop	{r4, r5, r6, pc}
   81158:	f006 4600 	and.w	r6, r6, #2147483648	; 0x80000000
   8115c:	ea46 0101 	orr.w	r1, r6, r1
   81160:	ea40 0002 	orr.w	r0, r0, r2
   81164:	ea81 0103 	eor.w	r1, r1, r3
   81168:	ebb4 045c 	subs.w	r4, r4, ip, lsr #1
   8116c:	bfc2      	ittt	gt
   8116e:	ebd4 050c 	rsbsgt	r5, r4, ip
   81172:	ea41 5104 	orrgt.w	r1, r1, r4, lsl #20
   81176:	bd70      	popgt	{r4, r5, r6, pc}
   81178:	f441 1180 	orr.w	r1, r1, #1048576	; 0x100000
   8117c:	f04f 0e00 	mov.w	lr, #0
   81180:	3c01      	subs	r4, #1
   81182:	f300 80ab 	bgt.w	812dc <__aeabi_dmul+0x238>
   81186:	f114 0f36 	cmn.w	r4, #54	; 0x36
   8118a:	bfde      	ittt	le
   8118c:	2000      	movle	r0, #0
   8118e:	f001 4100 	andle.w	r1, r1, #2147483648	; 0x80000000
   81192:	bd70      	pople	{r4, r5, r6, pc}
   81194:	f1c4 0400 	rsb	r4, r4, #0
   81198:	3c20      	subs	r4, #32
   8119a:	da35      	bge.n	81208 <__aeabi_dmul+0x164>
   8119c:	340c      	adds	r4, #12
   8119e:	dc1b      	bgt.n	811d8 <__aeabi_dmul+0x134>
   811a0:	f104 0414 	add.w	r4, r4, #20
   811a4:	f1c4 0520 	rsb	r5, r4, #32
   811a8:	fa00 f305 	lsl.w	r3, r0, r5
   811ac:	fa20 f004 	lsr.w	r0, r0, r4
   811b0:	fa01 f205 	lsl.w	r2, r1, r5
   811b4:	ea40 0002 	orr.w	r0, r0, r2
   811b8:	f001 4200 	and.w	r2, r1, #2147483648	; 0x80000000
   811bc:	f021 4100 	bic.w	r1, r1, #2147483648	; 0x80000000
   811c0:	eb10 70d3 	adds.w	r0, r0, r3, lsr #31
   811c4:	fa21 f604 	lsr.w	r6, r1, r4
   811c8:	eb42 0106 	adc.w	r1, r2, r6
   811cc:	ea5e 0e43 	orrs.w	lr, lr, r3, lsl #1
   811d0:	bf08      	it	eq
   811d2:	ea20 70d3 	biceq.w	r0, r0, r3, lsr #31
   811d6:	bd70      	pop	{r4, r5, r6, pc}
   811d8:	f1c4 040c 	rsb	r4, r4, #12
   811dc:	f1c4 0520 	rsb	r5, r4, #32
   811e0:	fa00 f304 	lsl.w	r3, r0, r4
   811e4:	fa20 f005 	lsr.w	r0, r0, r5
   811e8:	fa01 f204 	lsl.w	r2, r1, r4
   811ec:	ea40 0002 	orr.w	r0, r0, r2
   811f0:	f001 4100 	and.w	r1, r1, #2147483648	; 0x80000000
   811f4:	eb10 70d3 	adds.w	r0, r0, r3, lsr #31
   811f8:	f141 0100 	adc.w	r1, r1, #0
   811fc:	ea5e 0e43 	orrs.w	lr, lr, r3, lsl #1
   81200:	bf08      	it	eq
   81202:	ea20 70d3 	biceq.w	r0, r0, r3, lsr #31
   81206:	bd70      	pop	{r4, r5, r6, pc}
   81208:	f1c4 0520 	rsb	r5, r4, #32
   8120c:	fa00 f205 	lsl.w	r2, r0, r5
   81210:	ea4e 0e02 	orr.w	lr, lr, r2
   81214:	fa20 f304 	lsr.w	r3, r0, r4
   81218:	fa01 f205 	lsl.w	r2, r1, r5
   8121c:	ea43 0302 	orr.w	r3, r3, r2
   81220:	fa21 f004 	lsr.w	r0, r1, r4
   81224:	f001 4100 	and.w	r1, r1, #2147483648	; 0x80000000
   81228:	fa21 f204 	lsr.w	r2, r1, r4
   8122c:	ea20 0002 	bic.w	r0, r0, r2
   81230:	eb00 70d3 	add.w	r0, r0, r3, lsr #31
   81234:	ea5e 0e43 	orrs.w	lr, lr, r3, lsl #1
   81238:	bf08      	it	eq
   8123a:	ea20 70d3 	biceq.w	r0, r0, r3, lsr #31
   8123e:	bd70      	pop	{r4, r5, r6, pc}
   81240:	f094 0f00 	teq	r4, #0
   81244:	d10f      	bne.n	81266 <__aeabi_dmul+0x1c2>
   81246:	f001 4600 	and.w	r6, r1, #2147483648	; 0x80000000
   8124a:	0040      	lsls	r0, r0, #1
   8124c:	eb41 0101 	adc.w	r1, r1, r1
   81250:	f411 1f80 	tst.w	r1, #1048576	; 0x100000
   81254:	bf08      	it	eq
   81256:	3c01      	subeq	r4, #1
   81258:	d0f7      	beq.n	8124a <__aeabi_dmul+0x1a6>
   8125a:	ea41 0106 	orr.w	r1, r1, r6
   8125e:	f095 0f00 	teq	r5, #0
   81262:	bf18      	it	ne
   81264:	4770      	bxne	lr
   81266:	f003 4600 	and.w	r6, r3, #2147483648	; 0x80000000
   8126a:	0052      	lsls	r2, r2, #1
   8126c:	eb43 0303 	adc.w	r3, r3, r3
   81270:	f413 1f80 	tst.w	r3, #1048576	; 0x100000
   81274:	bf08      	it	eq
   81276:	3d01      	subeq	r5, #1
   81278:	d0f7      	beq.n	8126a <__aeabi_dmul+0x1c6>
   8127a:	ea43 0306 	orr.w	r3, r3, r6
   8127e:	4770      	bx	lr
   81280:	ea94 0f0c 	teq	r4, ip
   81284:	ea0c 5513 	and.w	r5, ip, r3, lsr #20
   81288:	bf18      	it	ne
   8128a:	ea95 0f0c 	teqne	r5, ip
   8128e:	d00c      	beq.n	812aa <__aeabi_dmul+0x206>
   81290:	ea50 0641 	orrs.w	r6, r0, r1, lsl #1
   81294:	bf18      	it	ne
   81296:	ea52 0643 	orrsne.w	r6, r2, r3, lsl #1
   8129a:	d1d1      	bne.n	81240 <__aeabi_dmul+0x19c>
   8129c:	ea81 0103 	eor.w	r1, r1, r3
   812a0:	f001 4100 	and.w	r1, r1, #2147483648	; 0x80000000
   812a4:	f04f 0000 	mov.w	r0, #0
   812a8:	bd70      	pop	{r4, r5, r6, pc}
   812aa:	ea50 0641 	orrs.w	r6, r0, r1, lsl #1
   812ae:	bf06      	itte	eq
   812b0:	4610      	moveq	r0, r2
   812b2:	4619      	moveq	r1, r3
   812b4:	ea52 0643 	orrsne.w	r6, r2, r3, lsl #1
   812b8:	d019      	beq.n	812ee <__aeabi_dmul+0x24a>
   812ba:	ea94 0f0c 	teq	r4, ip
   812be:	d102      	bne.n	812c6 <__aeabi_dmul+0x222>
   812c0:	ea50 3601 	orrs.w	r6, r0, r1, lsl #12
   812c4:	d113      	bne.n	812ee <__aeabi_dmul+0x24a>
   812c6:	ea95 0f0c 	teq	r5, ip
   812ca:	d105      	bne.n	812d8 <__aeabi_dmul+0x234>
   812cc:	ea52 3603 	orrs.w	r6, r2, r3, lsl #12
   812d0:	bf1c      	itt	ne
   812d2:	4610      	movne	r0, r2
   812d4:	4619      	movne	r1, r3
   812d6:	d10a      	bne.n	812ee <__aeabi_dmul+0x24a>
   812d8:	ea81 0103 	eor.w	r1, r1, r3
   812dc:	f001 4100 	and.w	r1, r1, #2147483648	; 0x80000000
   812e0:	f041 41fe 	orr.w	r1, r1, #2130706432	; 0x7f000000
   812e4:	f441 0170 	orr.w	r1, r1, #15728640	; 0xf00000
   812e8:	f04f 0000 	mov.w	r0, #0
   812ec:	bd70      	pop	{r4, r5, r6, pc}
   812ee:	f041 41fe 	orr.w	r1, r1, #2130706432	; 0x7f000000
   812f2:	f441 0178 	orr.w	r1, r1, #16252928	; 0xf80000
   812f6:	bd70      	pop	{r4, r5, r6, pc}

000812f8 <__aeabi_ddiv>:
   812f8:	b570      	push	{r4, r5, r6, lr}
   812fa:	f04f 0cff 	mov.w	ip, #255	; 0xff
   812fe:	f44c 6ce0 	orr.w	ip, ip, #1792	; 0x700
   81302:	ea1c 5411 	ands.w	r4, ip, r1, lsr #20
   81306:	bf1d      	ittte	ne
   81308:	ea1c 5513 	andsne.w	r5, ip, r3, lsr #20
   8130c:	ea94 0f0c 	teqne	r4, ip
   81310:	ea95 0f0c 	teqne	r5, ip
   81314:	f000 f8a7 	bleq	81466 <__aeabi_ddiv+0x16e>
   81318:	eba4 0405 	sub.w	r4, r4, r5
   8131c:	ea81 0e03 	eor.w	lr, r1, r3
   81320:	ea52 3503 	orrs.w	r5, r2, r3, lsl #12
   81324:	ea4f 3101 	mov.w	r1, r1, lsl #12
   81328:	f000 8088 	beq.w	8143c <__aeabi_ddiv+0x144>
   8132c:	ea4f 3303 	mov.w	r3, r3, lsl #12
   81330:	f04f 5580 	mov.w	r5, #268435456	; 0x10000000
   81334:	ea45 1313 	orr.w	r3, r5, r3, lsr #4
   81338:	ea43 6312 	orr.w	r3, r3, r2, lsr #24
   8133c:	ea4f 2202 	mov.w	r2, r2, lsl #8
   81340:	ea45 1511 	orr.w	r5, r5, r1, lsr #4
   81344:	ea45 6510 	orr.w	r5, r5, r0, lsr #24
   81348:	ea4f 2600 	mov.w	r6, r0, lsl #8
   8134c:	f00e 4100 	and.w	r1, lr, #2147483648	; 0x80000000
   81350:	429d      	cmp	r5, r3
   81352:	bf08      	it	eq
   81354:	4296      	cmpeq	r6, r2
   81356:	f144 04fd 	adc.w	r4, r4, #253	; 0xfd
   8135a:	f504 7440 	add.w	r4, r4, #768	; 0x300
   8135e:	d202      	bcs.n	81366 <__aeabi_ddiv+0x6e>
   81360:	085b      	lsrs	r3, r3, #1
   81362:	ea4f 0232 	mov.w	r2, r2, rrx
   81366:	1ab6      	subs	r6, r6, r2
   81368:	eb65 0503 	sbc.w	r5, r5, r3
   8136c:	085b      	lsrs	r3, r3, #1
   8136e:	ea4f 0232 	mov.w	r2, r2, rrx
   81372:	f44f 1080 	mov.w	r0, #1048576	; 0x100000
   81376:	f44f 2c00 	mov.w	ip, #524288	; 0x80000
   8137a:	ebb6 0e02 	subs.w	lr, r6, r2
   8137e:	eb75 0e03 	sbcs.w	lr, r5, r3
   81382:	bf22      	ittt	cs
   81384:	1ab6      	subcs	r6, r6, r2
   81386:	4675      	movcs	r5, lr
   81388:	ea40 000c 	orrcs.w	r0, r0, ip
   8138c:	085b      	lsrs	r3, r3, #1
   8138e:	ea4f 0232 	mov.w	r2, r2, rrx
   81392:	ebb6 0e02 	subs.w	lr, r6, r2
   81396:	eb75 0e03 	sbcs.w	lr, r5, r3
   8139a:	bf22      	ittt	cs
   8139c:	1ab6      	subcs	r6, r6, r2
   8139e:	4675      	movcs	r5, lr
   813a0:	ea40 005c 	orrcs.w	r0, r0, ip, lsr #1
   813a4:	085b      	lsrs	r3, r3, #1
   813a6:	ea4f 0232 	mov.w	r2, r2, rrx
   813aa:	ebb6 0e02 	subs.w	lr, r6, r2
   813ae:	eb75 0e03 	sbcs.w	lr, r5, r3
   813b2:	bf22      	ittt	cs
   813b4:	1ab6      	subcs	r6, r6, r2
   813b6:	4675      	movcs	r5, lr
   813b8:	ea40 009c 	orrcs.w	r0, r0, ip, lsr #2
   813bc:	085b      	lsrs	r3, r3, #1
   813be:	ea4f 0232 	mov.w	r2, r2, rrx
   813c2:	ebb6 0e02 	subs.w	lr, r6, r2
   813c6:	eb75 0e03 	sbcs.w	lr, r5, r3
   813ca:	bf22      	ittt	cs
   813cc:	1ab6      	subcs	r6, r6, r2
   813ce:	4675      	movcs	r5, lr
   813d0:	ea40 00dc 	orrcs.w	r0, r0, ip, lsr #3
   813d4:	ea55 0e06 	orrs.w	lr, r5, r6
   813d8:	d018      	beq.n	8140c <__aeabi_ddiv+0x114>
   813da:	ea4f 1505 	mov.w	r5, r5, lsl #4
   813de:	ea45 7516 	orr.w	r5, r5, r6, lsr #28
   813e2:	ea4f 1606 	mov.w	r6, r6, lsl #4
   813e6:	ea4f 03c3 	mov.w	r3, r3, lsl #3
   813ea:	ea43 7352 	orr.w	r3, r3, r2, lsr #29
   813ee:	ea4f 02c2 	mov.w	r2, r2, lsl #3
   813f2:	ea5f 1c1c 	movs.w	ip, ip, lsr #4
   813f6:	d1c0      	bne.n	8137a <__aeabi_ddiv+0x82>
   813f8:	f411 1f80 	tst.w	r1, #1048576	; 0x100000
   813fc:	d10b      	bne.n	81416 <__aeabi_ddiv+0x11e>
   813fe:	ea41 0100 	orr.w	r1, r1, r0
   81402:	f04f 0000 	mov.w	r0, #0
   81406:	f04f 4c00 	mov.w	ip, #2147483648	; 0x80000000
   8140a:	e7b6      	b.n	8137a <__aeabi_ddiv+0x82>
   8140c:	f411 1f80 	tst.w	r1, #1048576	; 0x100000
   81410:	bf04      	itt	eq
   81412:	4301      	orreq	r1, r0
   81414:	2000      	moveq	r0, #0
   81416:	f1b4 0cfd 	subs.w	ip, r4, #253	; 0xfd
   8141a:	bf88      	it	hi
   8141c:	f5bc 6fe0 	cmphi.w	ip, #1792	; 0x700
   81420:	f63f aeaf 	bhi.w	81182 <__aeabi_dmul+0xde>
   81424:	ebb5 0c03 	subs.w	ip, r5, r3
   81428:	bf04      	itt	eq
   8142a:	ebb6 0c02 	subseq.w	ip, r6, r2
   8142e:	ea5f 0c50 	movseq.w	ip, r0, lsr #1
   81432:	f150 0000 	adcs.w	r0, r0, #0
   81436:	eb41 5104 	adc.w	r1, r1, r4, lsl #20
   8143a:	bd70      	pop	{r4, r5, r6, pc}
   8143c:	f00e 4e00 	and.w	lr, lr, #2147483648	; 0x80000000
   81440:	ea4e 3111 	orr.w	r1, lr, r1, lsr #12
   81444:	eb14 045c 	adds.w	r4, r4, ip, lsr #1
   81448:	bfc2      	ittt	gt
   8144a:	ebd4 050c 	rsbsgt	r5, r4, ip
   8144e:	ea41 5104 	orrgt.w	r1, r1, r4, lsl #20
   81452:	bd70      	popgt	{r4, r5, r6, pc}
   81454:	f441 1180 	orr.w	r1, r1, #1048576	; 0x100000
   81458:	f04f 0e00 	mov.w	lr, #0
   8145c:	3c01      	subs	r4, #1
   8145e:	e690      	b.n	81182 <__aeabi_dmul+0xde>
   81460:	ea45 0e06 	orr.w	lr, r5, r6
   81464:	e68d      	b.n	81182 <__aeabi_dmul+0xde>
   81466:	ea0c 5513 	and.w	r5, ip, r3, lsr #20
   8146a:	ea94 0f0c 	teq	r4, ip
   8146e:	bf08      	it	eq
   81470:	ea95 0f0c 	teqeq	r5, ip
   81474:	f43f af3b 	beq.w	812ee <__aeabi_dmul+0x24a>
   81478:	ea94 0f0c 	teq	r4, ip
   8147c:	d10a      	bne.n	81494 <__aeabi_ddiv+0x19c>
   8147e:	ea50 3401 	orrs.w	r4, r0, r1, lsl #12
   81482:	f47f af34 	bne.w	812ee <__aeabi_dmul+0x24a>
   81486:	ea95 0f0c 	teq	r5, ip
   8148a:	f47f af25 	bne.w	812d8 <__aeabi_dmul+0x234>
   8148e:	4610      	mov	r0, r2
   81490:	4619      	mov	r1, r3
   81492:	e72c      	b.n	812ee <__aeabi_dmul+0x24a>
   81494:	ea95 0f0c 	teq	r5, ip
   81498:	d106      	bne.n	814a8 <__aeabi_ddiv+0x1b0>
   8149a:	ea52 3503 	orrs.w	r5, r2, r3, lsl #12
   8149e:	f43f aefd 	beq.w	8129c <__aeabi_dmul+0x1f8>
   814a2:	4610      	mov	r0, r2
   814a4:	4619      	mov	r1, r3
   814a6:	e722      	b.n	812ee <__aeabi_dmul+0x24a>
   814a8:	ea50 0641 	orrs.w	r6, r0, r1, lsl #1
   814ac:	bf18      	it	ne
   814ae:	ea52 0643 	orrsne.w	r6, r2, r3, lsl #1
   814b2:	f47f aec5 	bne.w	81240 <__aeabi_dmul+0x19c>
   814b6:	ea50 0441 	orrs.w	r4, r0, r1, lsl #1
   814ba:	f47f af0d 	bne.w	812d8 <__aeabi_dmul+0x234>
   814be:	ea52 0543 	orrs.w	r5, r2, r3, lsl #1
   814c2:	f47f aeeb 	bne.w	8129c <__aeabi_dmul+0x1f8>
   814c6:	e712      	b.n	812ee <__aeabi_dmul+0x24a>

000814c8 <__aeabi_d2iz>:
   814c8:	ea4f 0241 	mov.w	r2, r1, lsl #1
   814cc:	f512 1200 	adds.w	r2, r2, #2097152	; 0x200000
   814d0:	d215      	bcs.n	814fe <__aeabi_d2iz+0x36>
   814d2:	d511      	bpl.n	814f8 <__aeabi_d2iz+0x30>
   814d4:	f46f 7378 	mvn.w	r3, #992	; 0x3e0
   814d8:	ebb3 5262 	subs.w	r2, r3, r2, asr #21
   814dc:	d912      	bls.n	81504 <__aeabi_d2iz+0x3c>
   814de:	ea4f 23c1 	mov.w	r3, r1, lsl #11
   814e2:	f043 4300 	orr.w	r3, r3, #2147483648	; 0x80000000
   814e6:	ea43 5350 	orr.w	r3, r3, r0, lsr #21
   814ea:	f011 4f00 	tst.w	r1, #2147483648	; 0x80000000
   814ee:	fa23 f002 	lsr.w	r0, r3, r2
   814f2:	bf18      	it	ne
   814f4:	4240      	negne	r0, r0
   814f6:	4770      	bx	lr
   814f8:	f04f 0000 	mov.w	r0, #0
   814fc:	4770      	bx	lr
   814fe:	ea50 3001 	orrs.w	r0, r0, r1, lsl #12
   81502:	d105      	bne.n	81510 <__aeabi_d2iz+0x48>
   81504:	f011 4000 	ands.w	r0, r1, #2147483648	; 0x80000000
   81508:	bf08      	it	eq
   8150a:	f06f 4000 	mvneq.w	r0, #2147483648	; 0x80000000
   8150e:	4770      	bx	lr
   81510:	f04f 0000 	mov.w	r0, #0
   81514:	4770      	bx	lr
   81516:	bf00      	nop

00081518 <__aeabi_uldivmod>:
   81518:	b953      	cbnz	r3, 81530 <__aeabi_uldivmod+0x18>
   8151a:	b94a      	cbnz	r2, 81530 <__aeabi_uldivmod+0x18>
   8151c:	2900      	cmp	r1, #0
   8151e:	bf08      	it	eq
   81520:	2800      	cmpeq	r0, #0
   81522:	bf1c      	itt	ne
   81524:	f04f 31ff 	movne.w	r1, #4294967295
   81528:	f04f 30ff 	movne.w	r0, #4294967295
   8152c:	f000 b9b6 	b.w	8189c <__aeabi_idiv0>
   81530:	f1ad 0c08 	sub.w	ip, sp, #8
   81534:	e96d ce04 	strd	ip, lr, [sp, #-16]!
   81538:	f000 f842 	bl	815c0 <__udivmoddi4>
   8153c:	f8dd e004 	ldr.w	lr, [sp, #4]
   81540:	e9dd 2302 	ldrd	r2, r3, [sp, #8]
   81544:	b004      	add	sp, #16
   81546:	4770      	bx	lr

00081548 <__aeabi_d2lz>:
   81548:	b5f8      	push	{r3, r4, r5, r6, r7, lr}
   8154a:	2200      	movs	r2, #0
   8154c:	2300      	movs	r3, #0
   8154e:	4607      	mov	r7, r0
   81550:	460e      	mov	r6, r1
   81552:	f000 fa05 	bl	81960 <__aeabi_dcmplt>
   81556:	b928      	cbnz	r0, 81564 <__aeabi_d2lz+0x1c>
   81558:	4638      	mov	r0, r7
   8155a:	4631      	mov	r1, r6
   8155c:	e8bd 40f8 	ldmia.w	sp!, {r3, r4, r5, r6, r7, lr}
   81560:	f000 b80a 	b.w	81578 <__aeabi_d2ulz>
   81564:	4638      	mov	r0, r7
   81566:	f106 4100 	add.w	r1, r6, #2147483648	; 0x80000000
   8156a:	f000 f805 	bl	81578 <__aeabi_d2ulz>
   8156e:	4240      	negs	r0, r0
   81570:	eb61 0141 	sbc.w	r1, r1, r1, lsl #1
   81574:	bdf8      	pop	{r3, r4, r5, r6, r7, pc}
   81576:	bf00      	nop

00081578 <__aeabi_d2ulz>:
   81578:	b5d0      	push	{r4, r6, r7, lr}
   8157a:	2200      	movs	r2, #0
   8157c:	4b0e      	ldr	r3, [pc, #56]	; (815b8 <__aeabi_d2ulz+0x40>)
   8157e:	4606      	mov	r6, r0
   81580:	460f      	mov	r7, r1
   81582:	f7ff fd8f 	bl	810a4 <__aeabi_dmul>
   81586:	f000 fa13 	bl	819b0 <__aeabi_d2uiz>
   8158a:	4604      	mov	r4, r0
   8158c:	f7ff fd14 	bl	80fb8 <__aeabi_ui2d>
   81590:	2200      	movs	r2, #0
   81592:	4b0a      	ldr	r3, [pc, #40]	; (815bc <__aeabi_d2ulz+0x44>)
   81594:	f7ff fd86 	bl	810a4 <__aeabi_dmul>
   81598:	4602      	mov	r2, r0
   8159a:	460b      	mov	r3, r1
   8159c:	4630      	mov	r0, r6
   8159e:	4639      	mov	r1, r7
   815a0:	f7ff fbcc 	bl	80d3c <__aeabi_dsub>
   815a4:	f000 fa04 	bl	819b0 <__aeabi_d2uiz>
   815a8:	4623      	mov	r3, r4
   815aa:	2200      	movs	r2, #0
   815ac:	ea42 0200 	orr.w	r2, r2, r0
   815b0:	4610      	mov	r0, r2
   815b2:	4619      	mov	r1, r3
   815b4:	bdd0      	pop	{r4, r6, r7, pc}
   815b6:	bf00      	nop
   815b8:	3df00000 	.word	0x3df00000
   815bc:	41f00000 	.word	0x41f00000

000815c0 <__udivmoddi4>:
   815c0:	e92d 47f0 	stmdb	sp!, {r4, r5, r6, r7, r8, r9, sl, lr}
   815c4:	468c      	mov	ip, r1
   815c6:	460e      	mov	r6, r1
   815c8:	4604      	mov	r4, r0
   815ca:	9d08      	ldr	r5, [sp, #32]
   815cc:	2b00      	cmp	r3, #0
   815ce:	d150      	bne.n	81672 <__udivmoddi4+0xb2>
   815d0:	428a      	cmp	r2, r1
   815d2:	4617      	mov	r7, r2
   815d4:	d96c      	bls.n	816b0 <__udivmoddi4+0xf0>
   815d6:	fab2 fe82 	clz	lr, r2
   815da:	f1be 0f00 	cmp.w	lr, #0
   815de:	d00b      	beq.n	815f8 <__udivmoddi4+0x38>
   815e0:	f1ce 0c20 	rsb	ip, lr, #32
   815e4:	fa01 f60e 	lsl.w	r6, r1, lr
   815e8:	fa20 fc0c 	lsr.w	ip, r0, ip
   815ec:	fa02 f70e 	lsl.w	r7, r2, lr
   815f0:	ea4c 0c06 	orr.w	ip, ip, r6
   815f4:	fa00 f40e 	lsl.w	r4, r0, lr
   815f8:	0c3a      	lsrs	r2, r7, #16
   815fa:	fbbc f9f2 	udiv	r9, ip, r2
   815fe:	b2bb      	uxth	r3, r7
   81600:	fb02 cc19 	mls	ip, r2, r9, ip
   81604:	fb09 fa03 	mul.w	sl, r9, r3
   81608:	ea4f 4814 	mov.w	r8, r4, lsr #16
   8160c:	ea48 460c 	orr.w	r6, r8, ip, lsl #16
   81610:	45b2      	cmp	sl, r6
   81612:	d90a      	bls.n	8162a <__udivmoddi4+0x6a>
   81614:	19f6      	adds	r6, r6, r7
   81616:	f109 31ff 	add.w	r1, r9, #4294967295
   8161a:	f080 8125 	bcs.w	81868 <__udivmoddi4+0x2a8>
   8161e:	45b2      	cmp	sl, r6
   81620:	f240 8122 	bls.w	81868 <__udivmoddi4+0x2a8>
   81624:	f1a9 0902 	sub.w	r9, r9, #2
   81628:	443e      	add	r6, r7
   8162a:	eba6 060a 	sub.w	r6, r6, sl
   8162e:	fbb6 f0f2 	udiv	r0, r6, r2
   81632:	fb02 6610 	mls	r6, r2, r0, r6
   81636:	fb00 f303 	mul.w	r3, r0, r3
   8163a:	b2a4      	uxth	r4, r4
   8163c:	ea44 4406 	orr.w	r4, r4, r6, lsl #16
   81640:	42a3      	cmp	r3, r4
   81642:	d909      	bls.n	81658 <__udivmoddi4+0x98>
   81644:	19e4      	adds	r4, r4, r7
   81646:	f100 32ff 	add.w	r2, r0, #4294967295
   8164a:	f080 810b 	bcs.w	81864 <__udivmoddi4+0x2a4>
   8164e:	42a3      	cmp	r3, r4
   81650:	f240 8108 	bls.w	81864 <__udivmoddi4+0x2a4>
   81654:	3802      	subs	r0, #2
   81656:	443c      	add	r4, r7
   81658:	2100      	movs	r1, #0
   8165a:	1ae4      	subs	r4, r4, r3
   8165c:	ea40 4009 	orr.w	r0, r0, r9, lsl #16
   81660:	2d00      	cmp	r5, #0
   81662:	d062      	beq.n	8172a <__udivmoddi4+0x16a>
   81664:	2300      	movs	r3, #0
   81666:	fa24 f40e 	lsr.w	r4, r4, lr
   8166a:	602c      	str	r4, [r5, #0]
   8166c:	606b      	str	r3, [r5, #4]
   8166e:	e8bd 87f0 	ldmia.w	sp!, {r4, r5, r6, r7, r8, r9, sl, pc}
   81672:	428b      	cmp	r3, r1
   81674:	d907      	bls.n	81686 <__udivmoddi4+0xc6>
   81676:	2d00      	cmp	r5, #0
   81678:	d055      	beq.n	81726 <__udivmoddi4+0x166>
   8167a:	2100      	movs	r1, #0
   8167c:	e885 0041 	stmia.w	r5, {r0, r6}
   81680:	4608      	mov	r0, r1
   81682:	e8bd 87f0 	ldmia.w	sp!, {r4, r5, r6, r7, r8, r9, sl, pc}
   81686:	fab3 f183 	clz	r1, r3
   8168a:	2900      	cmp	r1, #0
   8168c:	f040 808f 	bne.w	817ae <__udivmoddi4+0x1ee>
   81690:	42b3      	cmp	r3, r6
   81692:	d302      	bcc.n	8169a <__udivmoddi4+0xda>
   81694:	4282      	cmp	r2, r0
   81696:	f200 80fc 	bhi.w	81892 <__udivmoddi4+0x2d2>
   8169a:	1a84      	subs	r4, r0, r2
   8169c:	eb66 0603 	sbc.w	r6, r6, r3
   816a0:	2001      	movs	r0, #1
   816a2:	46b4      	mov	ip, r6
   816a4:	2d00      	cmp	r5, #0
   816a6:	d040      	beq.n	8172a <__udivmoddi4+0x16a>
   816a8:	e885 1010 	stmia.w	r5, {r4, ip}
   816ac:	e8bd 87f0 	ldmia.w	sp!, {r4, r5, r6, r7, r8, r9, sl, pc}
   816b0:	b912      	cbnz	r2, 816b8 <__udivmoddi4+0xf8>
   816b2:	2701      	movs	r7, #1
   816b4:	fbb7 f7f2 	udiv	r7, r7, r2
   816b8:	fab7 fe87 	clz	lr, r7
   816bc:	f1be 0f00 	cmp.w	lr, #0
   816c0:	d135      	bne.n	8172e <__udivmoddi4+0x16e>
   816c2:	2101      	movs	r1, #1
   816c4:	1bf6      	subs	r6, r6, r7
   816c6:	ea4f 4c17 	mov.w	ip, r7, lsr #16
   816ca:	fa1f f887 	uxth.w	r8, r7
   816ce:	fbb6 f2fc 	udiv	r2, r6, ip
   816d2:	fb0c 6612 	mls	r6, ip, r2, r6
   816d6:	fb08 f002 	mul.w	r0, r8, r2
   816da:	0c23      	lsrs	r3, r4, #16
   816dc:	ea43 4606 	orr.w	r6, r3, r6, lsl #16
   816e0:	42b0      	cmp	r0, r6
   816e2:	d907      	bls.n	816f4 <__udivmoddi4+0x134>
   816e4:	19f6      	adds	r6, r6, r7
   816e6:	f102 33ff 	add.w	r3, r2, #4294967295
   816ea:	d202      	bcs.n	816f2 <__udivmoddi4+0x132>
   816ec:	42b0      	cmp	r0, r6
   816ee:	f200 80d2 	bhi.w	81896 <__udivmoddi4+0x2d6>
   816f2:	461a      	mov	r2, r3
   816f4:	1a36      	subs	r6, r6, r0
   816f6:	fbb6 f0fc 	udiv	r0, r6, ip
   816fa:	fb0c 6610 	mls	r6, ip, r0, r6
   816fe:	fb08 f800 	mul.w	r8, r8, r0
   81702:	b2a3      	uxth	r3, r4
   81704:	ea43 4406 	orr.w	r4, r3, r6, lsl #16
   81708:	45a0      	cmp	r8, r4
   8170a:	d907      	bls.n	8171c <__udivmoddi4+0x15c>
   8170c:	19e4      	adds	r4, r4, r7
   8170e:	f100 33ff 	add.w	r3, r0, #4294967295
   81712:	d202      	bcs.n	8171a <__udivmoddi4+0x15a>
   81714:	45a0      	cmp	r8, r4
   81716:	f200 80b9 	bhi.w	8188c <__udivmoddi4+0x2cc>
   8171a:	4618      	mov	r0, r3
   8171c:	eba4 0408 	sub.w	r4, r4, r8
   81720:	ea40 4002 	orr.w	r0, r0, r2, lsl #16
   81724:	e79c      	b.n	81660 <__udivmoddi4+0xa0>
   81726:	4629      	mov	r1, r5
   81728:	4628      	mov	r0, r5
   8172a:	e8bd 87f0 	ldmia.w	sp!, {r4, r5, r6, r7, r8, r9, sl, pc}
   8172e:	fa07 f70e 	lsl.w	r7, r7, lr
   81732:	f1ce 0320 	rsb	r3, lr, #32
   81736:	fa26 f203 	lsr.w	r2, r6, r3
   8173a:	ea4f 4c17 	mov.w	ip, r7, lsr #16
   8173e:	fbb2 f1fc 	udiv	r1, r2, ip
   81742:	fa1f f887 	uxth.w	r8, r7
   81746:	fb0c 2211 	mls	r2, ip, r1, r2
   8174a:	fa06 f60e 	lsl.w	r6, r6, lr
   8174e:	fa20 f303 	lsr.w	r3, r0, r3
   81752:	fb01 f908 	mul.w	r9, r1, r8
   81756:	4333      	orrs	r3, r6
   81758:	0c1e      	lsrs	r6, r3, #16
   8175a:	ea46 4602 	orr.w	r6, r6, r2, lsl #16
   8175e:	45b1      	cmp	r9, r6
   81760:	fa00 f40e 	lsl.w	r4, r0, lr
   81764:	d909      	bls.n	8177a <__udivmoddi4+0x1ba>
   81766:	19f6      	adds	r6, r6, r7
   81768:	f101 32ff 	add.w	r2, r1, #4294967295
   8176c:	f080 808c 	bcs.w	81888 <__udivmoddi4+0x2c8>
   81770:	45b1      	cmp	r9, r6
   81772:	f240 8089 	bls.w	81888 <__udivmoddi4+0x2c8>
   81776:	3902      	subs	r1, #2
   81778:	443e      	add	r6, r7
   8177a:	eba6 0609 	sub.w	r6, r6, r9
   8177e:	fbb6 f0fc 	udiv	r0, r6, ip
   81782:	fb0c 6210 	mls	r2, ip, r0, r6
   81786:	fb00 f908 	mul.w	r9, r0, r8
   8178a:	b29e      	uxth	r6, r3
   8178c:	ea46 4602 	orr.w	r6, r6, r2, lsl #16
   81790:	45b1      	cmp	r9, r6
   81792:	d907      	bls.n	817a4 <__udivmoddi4+0x1e4>
   81794:	19f6      	adds	r6, r6, r7
   81796:	f100 33ff 	add.w	r3, r0, #4294967295
   8179a:	d271      	bcs.n	81880 <__udivmoddi4+0x2c0>
   8179c:	45b1      	cmp	r9, r6
   8179e:	d96f      	bls.n	81880 <__udivmoddi4+0x2c0>
   817a0:	3802      	subs	r0, #2
   817a2:	443e      	add	r6, r7
   817a4:	eba6 0609 	sub.w	r6, r6, r9
   817a8:	ea40 4101 	orr.w	r1, r0, r1, lsl #16
   817ac:	e78f      	b.n	816ce <__udivmoddi4+0x10e>
   817ae:	f1c1 0720 	rsb	r7, r1, #32
   817b2:	fa22 f807 	lsr.w	r8, r2, r7
   817b6:	408b      	lsls	r3, r1
   817b8:	ea48 0303 	orr.w	r3, r8, r3
   817bc:	fa26 f407 	lsr.w	r4, r6, r7
   817c0:	ea4f 4e13 	mov.w	lr, r3, lsr #16
   817c4:	fbb4 f9fe 	udiv	r9, r4, lr
   817c8:	fa1f fc83 	uxth.w	ip, r3
   817cc:	fb0e 4419 	mls	r4, lr, r9, r4
   817d0:	408e      	lsls	r6, r1
   817d2:	fa20 f807 	lsr.w	r8, r0, r7
   817d6:	fb09 fa0c 	mul.w	sl, r9, ip
   817da:	ea48 0806 	orr.w	r8, r8, r6
   817de:	ea4f 4618 	mov.w	r6, r8, lsr #16
   817e2:	ea46 4404 	orr.w	r4, r6, r4, lsl #16
   817e6:	45a2      	cmp	sl, r4
   817e8:	fa02 f201 	lsl.w	r2, r2, r1
   817ec:	fa00 f601 	lsl.w	r6, r0, r1
   817f0:	d908      	bls.n	81804 <__udivmoddi4+0x244>
   817f2:	18e4      	adds	r4, r4, r3
   817f4:	f109 30ff 	add.w	r0, r9, #4294967295
   817f8:	d244      	bcs.n	81884 <__udivmoddi4+0x2c4>
   817fa:	45a2      	cmp	sl, r4
   817fc:	d942      	bls.n	81884 <__udivmoddi4+0x2c4>
   817fe:	f1a9 0902 	sub.w	r9, r9, #2
   81802:	441c      	add	r4, r3
   81804:	eba4 040a 	sub.w	r4, r4, sl
   81808:	fbb4 f0fe 	udiv	r0, r4, lr
   8180c:	fb0e 4410 	mls	r4, lr, r0, r4
   81810:	fb00 fc0c 	mul.w	ip, r0, ip
   81814:	fa1f f888 	uxth.w	r8, r8
   81818:	ea48 4404 	orr.w	r4, r8, r4, lsl #16
   8181c:	45a4      	cmp	ip, r4
   8181e:	d907      	bls.n	81830 <__udivmoddi4+0x270>
   81820:	18e4      	adds	r4, r4, r3
   81822:	f100 3eff 	add.w	lr, r0, #4294967295
   81826:	d229      	bcs.n	8187c <__udivmoddi4+0x2bc>
   81828:	45a4      	cmp	ip, r4
   8182a:	d927      	bls.n	8187c <__udivmoddi4+0x2bc>
   8182c:	3802      	subs	r0, #2
   8182e:	441c      	add	r4, r3
   81830:	ea40 4009 	orr.w	r0, r0, r9, lsl #16
   81834:	fba0 8902 	umull	r8, r9, r0, r2
   81838:	eba4 0c0c 	sub.w	ip, r4, ip
   8183c:	45cc      	cmp	ip, r9
   8183e:	46c2      	mov	sl, r8
   81840:	46ce      	mov	lr, r9
   81842:	d315      	bcc.n	81870 <__udivmoddi4+0x2b0>
   81844:	d012      	beq.n	8186c <__udivmoddi4+0x2ac>
   81846:	b155      	cbz	r5, 8185e <__udivmoddi4+0x29e>
   81848:	ebb6 030a 	subs.w	r3, r6, sl
   8184c:	eb6c 060e 	sbc.w	r6, ip, lr
   81850:	fa06 f707 	lsl.w	r7, r6, r7
   81854:	40cb      	lsrs	r3, r1
   81856:	431f      	orrs	r7, r3
   81858:	40ce      	lsrs	r6, r1
   8185a:	602f      	str	r7, [r5, #0]
   8185c:	606e      	str	r6, [r5, #4]
   8185e:	2100      	movs	r1, #0
   81860:	e8bd 87f0 	ldmia.w	sp!, {r4, r5, r6, r7, r8, r9, sl, pc}
   81864:	4610      	mov	r0, r2
   81866:	e6f7      	b.n	81658 <__udivmoddi4+0x98>
   81868:	4689      	mov	r9, r1
   8186a:	e6de      	b.n	8162a <__udivmoddi4+0x6a>
   8186c:	4546      	cmp	r6, r8
   8186e:	d2ea      	bcs.n	81846 <__udivmoddi4+0x286>
   81870:	ebb8 0a02 	subs.w	sl, r8, r2
   81874:	eb69 0e03 	sbc.w	lr, r9, r3
   81878:	3801      	subs	r0, #1
   8187a:	e7e4      	b.n	81846 <__udivmoddi4+0x286>
   8187c:	4670      	mov	r0, lr
   8187e:	e7d7      	b.n	81830 <__udivmoddi4+0x270>
   81880:	4618      	mov	r0, r3
   81882:	e78f      	b.n	817a4 <__udivmoddi4+0x1e4>
   81884:	4681      	mov	r9, r0
   81886:	e7bd      	b.n	81804 <__udivmoddi4+0x244>
   81888:	4611      	mov	r1, r2
   8188a:	e776      	b.n	8177a <__udivmoddi4+0x1ba>
   8188c:	3802      	subs	r0, #2
   8188e:	443c      	add	r4, r7
   81890:	e744      	b.n	8171c <__udivmoddi4+0x15c>
   81892:	4608      	mov	r0, r1
   81894:	e706      	b.n	816a4 <__udivmoddi4+0xe4>
   81896:	3a02      	subs	r2, #2
   81898:	443e      	add	r6, r7
   8189a:	e72b      	b.n	816f4 <__udivmoddi4+0x134>

0008189c <__aeabi_idiv0>:
   8189c:	4770      	bx	lr
   8189e:	bf00      	nop

000818a0 <__gedf2>:
   818a0:	f04f 3cff 	mov.w	ip, #4294967295
   818a4:	e006      	b.n	818b4 <__cmpdf2+0x4>
   818a6:	bf00      	nop

000818a8 <__ledf2>:
   818a8:	f04f 0c01 	mov.w	ip, #1
   818ac:	e002      	b.n	818b4 <__cmpdf2+0x4>
   818ae:	bf00      	nop

000818b0 <__cmpdf2>:
   818b0:	f04f 0c01 	mov.w	ip, #1
   818b4:	f84d cd04 	str.w	ip, [sp, #-4]!
   818b8:	ea4f 0c41 	mov.w	ip, r1, lsl #1
   818bc:	ea7f 5c6c 	mvns.w	ip, ip, asr #21
   818c0:	ea4f 0c43 	mov.w	ip, r3, lsl #1
   818c4:	bf18      	it	ne
   818c6:	ea7f 5c6c 	mvnsne.w	ip, ip, asr #21
   818ca:	d01b      	beq.n	81904 <__cmpdf2+0x54>
   818cc:	b001      	add	sp, #4
   818ce:	ea50 0c41 	orrs.w	ip, r0, r1, lsl #1
   818d2:	bf0c      	ite	eq
   818d4:	ea52 0c43 	orrseq.w	ip, r2, r3, lsl #1
   818d8:	ea91 0f03 	teqne	r1, r3
   818dc:	bf02      	ittt	eq
   818de:	ea90 0f02 	teqeq	r0, r2
   818e2:	2000      	moveq	r0, #0
   818e4:	4770      	bxeq	lr
   818e6:	f110 0f00 	cmn.w	r0, #0
   818ea:	ea91 0f03 	teq	r1, r3
   818ee:	bf58      	it	pl
   818f0:	4299      	cmppl	r1, r3
   818f2:	bf08      	it	eq
   818f4:	4290      	cmpeq	r0, r2
   818f6:	bf2c      	ite	cs
   818f8:	17d8      	asrcs	r0, r3, #31
   818fa:	ea6f 70e3 	mvncc.w	r0, r3, asr #31
   818fe:	f040 0001 	orr.w	r0, r0, #1
   81902:	4770      	bx	lr
   81904:	ea4f 0c41 	mov.w	ip, r1, lsl #1
   81908:	ea7f 5c6c 	mvns.w	ip, ip, asr #21
   8190c:	d102      	bne.n	81914 <__cmpdf2+0x64>
   8190e:	ea50 3c01 	orrs.w	ip, r0, r1, lsl #12
   81912:	d107      	bne.n	81924 <__cmpdf2+0x74>
   81914:	ea4f 0c43 	mov.w	ip, r3, lsl #1
   81918:	ea7f 5c6c 	mvns.w	ip, ip, asr #21
   8191c:	d1d6      	bne.n	818cc <__cmpdf2+0x1c>
   8191e:	ea52 3c03 	orrs.w	ip, r2, r3, lsl #12
   81922:	d0d3      	beq.n	818cc <__cmpdf2+0x1c>
   81924:	f85d 0b04 	ldr.w	r0, [sp], #4
   81928:	4770      	bx	lr
   8192a:	bf00      	nop

0008192c <__aeabi_cdrcmple>:
   8192c:	4684      	mov	ip, r0
   8192e:	4610      	mov	r0, r2
   81930:	4662      	mov	r2, ip
   81932:	468c      	mov	ip, r1
   81934:	4619      	mov	r1, r3
   81936:	4663      	mov	r3, ip
   81938:	e000      	b.n	8193c <__aeabi_cdcmpeq>
   8193a:	bf00      	nop

0008193c <__aeabi_cdcmpeq>:
   8193c:	b501      	push	{r0, lr}
   8193e:	f7ff ffb7 	bl	818b0 <__cmpdf2>
   81942:	2800      	cmp	r0, #0
   81944:	bf48      	it	mi
   81946:	f110 0f00 	cmnmi.w	r0, #0
   8194a:	bd01      	pop	{r0, pc}

0008194c <__aeabi_dcmpeq>:
   8194c:	f84d ed08 	str.w	lr, [sp, #-8]!
   81950:	f7ff fff4 	bl	8193c <__aeabi_cdcmpeq>
   81954:	bf0c      	ite	eq
   81956:	2001      	moveq	r0, #1
   81958:	2000      	movne	r0, #0
   8195a:	f85d fb08 	ldr.w	pc, [sp], #8
   8195e:	bf00      	nop

00081960 <__aeabi_dcmplt>:
   81960:	f84d ed08 	str.w	lr, [sp, #-8]!
   81964:	f7ff ffea 	bl	8193c <__aeabi_cdcmpeq>
   81968:	bf34      	ite	cc
   8196a:	2001      	movcc	r0, #1
   8196c:	2000      	movcs	r0, #0
   8196e:	f85d fb08 	ldr.w	pc, [sp], #8
   81972:	bf00      	nop

00081974 <__aeabi_dcmple>:
   81974:	f84d ed08 	str.w	lr, [sp, #-8]!
   81978:	f7ff ffe0 	bl	8193c <__aeabi_cdcmpeq>
   8197c:	bf94      	ite	ls
   8197e:	2001      	movls	r0, #1
   81980:	2000      	movhi	r0, #0
   81982:	f85d fb08 	ldr.w	pc, [sp], #8
   81986:	bf00      	nop

00081988 <__aeabi_dcmpge>:
   81988:	f84d ed08 	str.w	lr, [sp, #-8]!
   8198c:	f7ff ffce 	bl	8192c <__aeabi_cdrcmple>
   81990:	bf94      	ite	ls
   81992:	2001      	movls	r0, #1
   81994:	2000      	movhi	r0, #0
   81996:	f85d fb08 	ldr.w	pc, [sp], #8
   8199a:	bf00      	nop

0008199c <__aeabi_dcmpgt>:
   8199c:	f84d ed08 	str.w	lr, [sp, #-8]!
   819a0:	f7ff ffc4 	bl	8192c <__aeabi_cdrcmple>
   819a4:	bf34      	ite	cc
   819a6:	2001      	movcc	r0, #1
   819a8:	2000      	movcs	r0, #0
   819aa:	f85d fb08 	ldr.w	pc, [sp], #8
   819ae:	bf00      	nop

000819b0 <__aeabi_d2uiz>:
   819b0:	004a      	lsls	r2, r1, #1
   819b2:	d211      	bcs.n	819d8 <__aeabi_d2uiz+0x28>
   819b4:	f512 1200 	adds.w	r2, r2, #2097152	; 0x200000
   819b8:	d211      	bcs.n	819de <__aeabi_d2uiz+0x2e>
   819ba:	d50d      	bpl.n	819d8 <__aeabi_d2uiz+0x28>
   819bc:	f46f 7378 	mvn.w	r3, #992	; 0x3e0
   819c0:	ebb3 5262 	subs.w	r2, r3, r2, asr #21
   819c4:	d40e      	bmi.n	819e4 <__aeabi_d2uiz+0x34>
   819c6:	ea4f 23c1 	mov.w	r3, r1, lsl #11
   819ca:	f043 4300 	orr.w	r3, r3, #2147483648	; 0x80000000
   819ce:	ea43 5350 	orr.w	r3, r3, r0, lsr #21
   819d2:	fa23 f002 	lsr.w	r0, r3, r2
   819d6:	4770      	bx	lr
   819d8:	f04f 0000 	mov.w	r0, #0
   819dc:	4770      	bx	lr
   819de:	ea50 3001 	orrs.w	r0, r0, r1, lsl #12
   819e2:	d102      	bne.n	819ea <__aeabi_d2uiz+0x3a>
   819e4:	f04f 30ff 	mov.w	r0, #4294967295
   819e8:	4770      	bx	lr
   819ea:	f04f 0000 	mov.w	r0, #0
   819ee:	4770      	bx	lr

000819f0 <__libc_init_array>:
   819f0:	b570      	push	{r4, r5, r6, lr}
   819f2:	4e0f      	ldr	r6, [pc, #60]	; (81a30 <__libc_init_array+0x40>)
   819f4:	4d0f      	ldr	r5, [pc, #60]	; (81a34 <__libc_init_array+0x44>)
   819f6:	1b76      	subs	r6, r6, r5
   819f8:	10b6      	asrs	r6, r6, #2
   819fa:	bf18      	it	ne
   819fc:	2400      	movne	r4, #0
   819fe:	d005      	beq.n	81a0c <__libc_init_array+0x1c>
   81a00:	3401      	adds	r4, #1
   81a02:	f855 3b04 	ldr.w	r3, [r5], #4
   81a06:	4798      	blx	r3
   81a08:	42a6      	cmp	r6, r4
   81a0a:	d1f9      	bne.n	81a00 <__libc_init_array+0x10>
   81a0c:	4e0a      	ldr	r6, [pc, #40]	; (81a38 <__libc_init_array+0x48>)
   81a0e:	4d0b      	ldr	r5, [pc, #44]	; (81a3c <__libc_init_array+0x4c>)
   81a10:	f004 fe6a 	bl	866e8 <_init>
   81a14:	1b76      	subs	r6, r6, r5
   81a16:	10b6      	asrs	r6, r6, #2
   81a18:	bf18      	it	ne
   81a1a:	2400      	movne	r4, #0
   81a1c:	d006      	beq.n	81a2c <__libc_init_array+0x3c>
   81a1e:	3401      	adds	r4, #1
   81a20:	f855 3b04 	ldr.w	r3, [r5], #4
   81a24:	4798      	blx	r3
   81a26:	42a6      	cmp	r6, r4
   81a28:	d1f9      	bne.n	81a1e <__libc_init_array+0x2e>
   81a2a:	bd70      	pop	{r4, r5, r6, pc}
   81a2c:	bd70      	pop	{r4, r5, r6, pc}
   81a2e:	bf00      	nop
   81a30:	000866f4 	.word	0x000866f4
   81a34:	000866f4 	.word	0x000866f4
   81a38:	00086700 	.word	0x00086700
   81a3c:	000866f4 	.word	0x000866f4

00081a40 <memset>:
   81a40:	b470      	push	{r4, r5, r6}
   81a42:	0786      	lsls	r6, r0, #30
   81a44:	d046      	beq.n	81ad4 <memset+0x94>
   81a46:	1e54      	subs	r4, r2, #1
   81a48:	2a00      	cmp	r2, #0
   81a4a:	d041      	beq.n	81ad0 <memset+0x90>
   81a4c:	b2ca      	uxtb	r2, r1
   81a4e:	4603      	mov	r3, r0
   81a50:	e002      	b.n	81a58 <memset+0x18>
   81a52:	f114 34ff 	adds.w	r4, r4, #4294967295
   81a56:	d33b      	bcc.n	81ad0 <memset+0x90>
   81a58:	f803 2b01 	strb.w	r2, [r3], #1
   81a5c:	079d      	lsls	r5, r3, #30
   81a5e:	d1f8      	bne.n	81a52 <memset+0x12>
   81a60:	2c03      	cmp	r4, #3
   81a62:	d92e      	bls.n	81ac2 <memset+0x82>
   81a64:	b2cd      	uxtb	r5, r1
   81a66:	ea45 2505 	orr.w	r5, r5, r5, lsl #8
   81a6a:	2c0f      	cmp	r4, #15
   81a6c:	ea45 4505 	orr.w	r5, r5, r5, lsl #16
   81a70:	d919      	bls.n	81aa6 <memset+0x66>
   81a72:	4626      	mov	r6, r4
   81a74:	f103 0210 	add.w	r2, r3, #16
   81a78:	3e10      	subs	r6, #16
   81a7a:	2e0f      	cmp	r6, #15
   81a7c:	f842 5c10 	str.w	r5, [r2, #-16]
   81a80:	f842 5c0c 	str.w	r5, [r2, #-12]
   81a84:	f842 5c08 	str.w	r5, [r2, #-8]
   81a88:	f842 5c04 	str.w	r5, [r2, #-4]
   81a8c:	f102 0210 	add.w	r2, r2, #16
   81a90:	d8f2      	bhi.n	81a78 <memset+0x38>
   81a92:	f1a4 0210 	sub.w	r2, r4, #16
   81a96:	f022 020f 	bic.w	r2, r2, #15
   81a9a:	f004 040f 	and.w	r4, r4, #15
   81a9e:	3210      	adds	r2, #16
   81aa0:	2c03      	cmp	r4, #3
   81aa2:	4413      	add	r3, r2
   81aa4:	d90d      	bls.n	81ac2 <memset+0x82>
   81aa6:	461e      	mov	r6, r3
   81aa8:	4622      	mov	r2, r4
   81aaa:	3a04      	subs	r2, #4
   81aac:	2a03      	cmp	r2, #3
   81aae:	f846 5b04 	str.w	r5, [r6], #4
   81ab2:	d8fa      	bhi.n	81aaa <memset+0x6a>
   81ab4:	1f22      	subs	r2, r4, #4
   81ab6:	f022 0203 	bic.w	r2, r2, #3
   81aba:	3204      	adds	r2, #4
   81abc:	4413      	add	r3, r2
   81abe:	f004 0403 	and.w	r4, r4, #3
   81ac2:	b12c      	cbz	r4, 81ad0 <memset+0x90>
   81ac4:	b2c9      	uxtb	r1, r1
   81ac6:	441c      	add	r4, r3
   81ac8:	f803 1b01 	strb.w	r1, [r3], #1
   81acc:	429c      	cmp	r4, r3
   81ace:	d1fb      	bne.n	81ac8 <memset+0x88>
   81ad0:	bc70      	pop	{r4, r5, r6}
   81ad2:	4770      	bx	lr
   81ad4:	4614      	mov	r4, r2
   81ad6:	4603      	mov	r3, r0
   81ad8:	e7c2      	b.n	81a60 <memset+0x20>
   81ada:	bf00      	nop

00081adc <printf>:
   81adc:	b40f      	push	{r0, r1, r2, r3}
   81ade:	b510      	push	{r4, lr}
   81ae0:	4b07      	ldr	r3, [pc, #28]	; (81b00 <printf+0x24>)
   81ae2:	b082      	sub	sp, #8
   81ae4:	ac04      	add	r4, sp, #16
   81ae6:	f854 2b04 	ldr.w	r2, [r4], #4
   81aea:	6818      	ldr	r0, [r3, #0]
   81aec:	4623      	mov	r3, r4
   81aee:	6881      	ldr	r1, [r0, #8]
   81af0:	9401      	str	r4, [sp, #4]
   81af2:	f000 f88b 	bl	81c0c <_vfprintf_r>
   81af6:	b002      	add	sp, #8
   81af8:	e8bd 4010 	ldmia.w	sp!, {r4, lr}
   81afc:	b004      	add	sp, #16
   81afe:	4770      	bx	lr
   81b00:	2000000c 	.word	0x2000000c

00081b04 <_puts_r>:
   81b04:	b5f0      	push	{r4, r5, r6, r7, lr}
   81b06:	4605      	mov	r5, r0
   81b08:	b089      	sub	sp, #36	; 0x24
   81b0a:	4608      	mov	r0, r1
   81b0c:	460c      	mov	r4, r1
   81b0e:	2701      	movs	r7, #1
   81b10:	f000 f84e 	bl	81bb0 <strlen>
   81b14:	2602      	movs	r6, #2
   81b16:	19c3      	adds	r3, r0, r7
   81b18:	4920      	ldr	r1, [pc, #128]	; (81b9c <_puts_r+0x98>)
   81b1a:	9303      	str	r3, [sp, #12]
   81b1c:	6bab      	ldr	r3, [r5, #56]	; 0x38
   81b1e:	aa04      	add	r2, sp, #16
   81b20:	9404      	str	r4, [sp, #16]
   81b22:	9005      	str	r0, [sp, #20]
   81b24:	68ac      	ldr	r4, [r5, #8]
   81b26:	9707      	str	r7, [sp, #28]
   81b28:	9602      	str	r6, [sp, #8]
   81b2a:	9106      	str	r1, [sp, #24]
   81b2c:	9201      	str	r2, [sp, #4]
   81b2e:	b353      	cbz	r3, 81b86 <_puts_r+0x82>
   81b30:	6e63      	ldr	r3, [r4, #100]	; 0x64
   81b32:	f013 0f01 	tst.w	r3, #1
   81b36:	f9b4 300c 	ldrsh.w	r3, [r4, #12]
   81b3a:	b29a      	uxth	r2, r3
   81b3c:	d101      	bne.n	81b42 <_puts_r+0x3e>
   81b3e:	0590      	lsls	r0, r2, #22
   81b40:	d525      	bpl.n	81b8e <_puts_r+0x8a>
   81b42:	0491      	lsls	r1, r2, #18
   81b44:	d406      	bmi.n	81b54 <_puts_r+0x50>
   81b46:	6e62      	ldr	r2, [r4, #100]	; 0x64
   81b48:	f443 5300 	orr.w	r3, r3, #8192	; 0x2000
   81b4c:	f422 5200 	bic.w	r2, r2, #8192	; 0x2000
   81b50:	81a3      	strh	r3, [r4, #12]
   81b52:	6662      	str	r2, [r4, #100]	; 0x64
   81b54:	4628      	mov	r0, r5
   81b56:	aa01      	add	r2, sp, #4
   81b58:	4621      	mov	r1, r4
   81b5a:	f002 fe3b 	bl	847d4 <__sfvwrite_r>
   81b5e:	6e63      	ldr	r3, [r4, #100]	; 0x64
   81b60:	2800      	cmp	r0, #0
   81b62:	bf0c      	ite	eq
   81b64:	250a      	moveq	r5, #10
   81b66:	f04f 35ff 	movne.w	r5, #4294967295
   81b6a:	07da      	lsls	r2, r3, #31
   81b6c:	d402      	bmi.n	81b74 <_puts_r+0x70>
   81b6e:	89a3      	ldrh	r3, [r4, #12]
   81b70:	059b      	lsls	r3, r3, #22
   81b72:	d502      	bpl.n	81b7a <_puts_r+0x76>
   81b74:	4628      	mov	r0, r5
   81b76:	b009      	add	sp, #36	; 0x24
   81b78:	bdf0      	pop	{r4, r5, r6, r7, pc}
   81b7a:	6da0      	ldr	r0, [r4, #88]	; 0x58
   81b7c:	f002 ffe0 	bl	84b40 <__retarget_lock_release_recursive>
   81b80:	4628      	mov	r0, r5
   81b82:	b009      	add	sp, #36	; 0x24
   81b84:	bdf0      	pop	{r4, r5, r6, r7, pc}
   81b86:	4628      	mov	r0, r5
   81b88:	f002 fc98 	bl	844bc <__sinit>
   81b8c:	e7d0      	b.n	81b30 <_puts_r+0x2c>
   81b8e:	6da0      	ldr	r0, [r4, #88]	; 0x58
   81b90:	f002 ffd4 	bl	84b3c <__retarget_lock_acquire_recursive>
   81b94:	f9b4 300c 	ldrsh.w	r3, [r4, #12]
   81b98:	b29a      	uxth	r2, r3
   81b9a:	e7d2      	b.n	81b42 <_puts_r+0x3e>
   81b9c:	00086460 	.word	0x00086460

00081ba0 <puts>:
   81ba0:	4b02      	ldr	r3, [pc, #8]	; (81bac <puts+0xc>)
   81ba2:	4601      	mov	r1, r0
   81ba4:	6818      	ldr	r0, [r3, #0]
   81ba6:	f7ff bfad 	b.w	81b04 <_puts_r>
   81baa:	bf00      	nop
   81bac:	2000000c 	.word	0x2000000c

00081bb0 <strlen>:
   81bb0:	f020 0103 	bic.w	r1, r0, #3
   81bb4:	f010 0003 	ands.w	r0, r0, #3
   81bb8:	f1c0 0000 	rsb	r0, r0, #0
   81bbc:	f851 3b04 	ldr.w	r3, [r1], #4
   81bc0:	f100 0c04 	add.w	ip, r0, #4
   81bc4:	ea4f 0ccc 	mov.w	ip, ip, lsl #3
   81bc8:	f06f 0200 	mvn.w	r2, #0
   81bcc:	bf1c      	itt	ne
   81bce:	fa22 f20c 	lsrne.w	r2, r2, ip
   81bd2:	4313      	orrne	r3, r2
   81bd4:	f04f 0c01 	mov.w	ip, #1
   81bd8:	ea4c 2c0c 	orr.w	ip, ip, ip, lsl #8
   81bdc:	ea4c 4c0c 	orr.w	ip, ip, ip, lsl #16
   81be0:	eba3 020c 	sub.w	r2, r3, ip
   81be4:	ea22 0203 	bic.w	r2, r2, r3
   81be8:	ea12 12cc 	ands.w	r2, r2, ip, lsl #7
   81bec:	bf04      	itt	eq
   81bee:	f851 3b04 	ldreq.w	r3, [r1], #4
   81bf2:	3004      	addeq	r0, #4
   81bf4:	d0f4      	beq.n	81be0 <strlen+0x30>
   81bf6:	f1c2 0100 	rsb	r1, r2, #0
   81bfa:	ea02 0201 	and.w	r2, r2, r1
   81bfe:	fab2 f282 	clz	r2, r2
   81c02:	f1c2 021f 	rsb	r2, r2, #31
   81c06:	eb00 00d2 	add.w	r0, r0, r2, lsr #3
   81c0a:	4770      	bx	lr

00081c0c <_vfprintf_r>:
   81c0c:	e92d 4ff0 	stmdb	sp!, {r4, r5, r6, r7, r8, r9, sl, fp, lr}
   81c10:	b0c1      	sub	sp, #260	; 0x104
   81c12:	461d      	mov	r5, r3
   81c14:	468a      	mov	sl, r1
   81c16:	4691      	mov	r9, r2
   81c18:	4604      	mov	r4, r0
   81c1a:	9008      	str	r0, [sp, #32]
   81c1c:	f002 ff7c 	bl	84b18 <_localeconv_r>
   81c20:	6803      	ldr	r3, [r0, #0]
   81c22:	950e      	str	r5, [sp, #56]	; 0x38
   81c24:	4618      	mov	r0, r3
   81c26:	9315      	str	r3, [sp, #84]	; 0x54
   81c28:	f7ff ffc2 	bl	81bb0 <strlen>
   81c2c:	9014      	str	r0, [sp, #80]	; 0x50
   81c2e:	b11c      	cbz	r4, 81c38 <_vfprintf_r+0x2c>
   81c30:	6ba3      	ldr	r3, [r4, #56]	; 0x38
   81c32:	2b00      	cmp	r3, #0
   81c34:	f000 8266 	beq.w	82104 <_vfprintf_r+0x4f8>
   81c38:	f8da 3064 	ldr.w	r3, [sl, #100]	; 0x64
   81c3c:	f9ba 200c 	ldrsh.w	r2, [sl, #12]
   81c40:	f013 0f01 	tst.w	r3, #1
   81c44:	b293      	uxth	r3, r2
   81c46:	d102      	bne.n	81c4e <_vfprintf_r+0x42>
   81c48:	0599      	lsls	r1, r3, #22
   81c4a:	f140 827c 	bpl.w	82146 <_vfprintf_r+0x53a>
   81c4e:	049f      	lsls	r7, r3, #18
   81c50:	d40a      	bmi.n	81c68 <_vfprintf_r+0x5c>
   81c52:	f8da 1064 	ldr.w	r1, [sl, #100]	; 0x64
   81c56:	f442 5300 	orr.w	r3, r2, #8192	; 0x2000
   81c5a:	f421 5100 	bic.w	r1, r1, #8192	; 0x2000
   81c5e:	f8aa 300c 	strh.w	r3, [sl, #12]
   81c62:	f8ca 1064 	str.w	r1, [sl, #100]	; 0x64
   81c66:	b29b      	uxth	r3, r3
   81c68:	071e      	lsls	r6, r3, #28
   81c6a:	f140 822a 	bpl.w	820c2 <_vfprintf_r+0x4b6>
   81c6e:	f8da 2010 	ldr.w	r2, [sl, #16]
   81c72:	2a00      	cmp	r2, #0
   81c74:	f000 8225 	beq.w	820c2 <_vfprintf_r+0x4b6>
   81c78:	f003 021a 	and.w	r2, r3, #26
   81c7c:	2a0a      	cmp	r2, #10
   81c7e:	f000 8245 	beq.w	8210c <_vfprintf_r+0x500>
   81c82:	2300      	movs	r3, #0
   81c84:	f10d 08c0 	add.w	r8, sp, #192	; 0xc0
   81c88:	9313      	str	r3, [sp, #76]	; 0x4c
   81c8a:	9311      	str	r3, [sp, #68]	; 0x44
   81c8c:	9312      	str	r3, [sp, #72]	; 0x48
   81c8e:	9318      	str	r3, [sp, #96]	; 0x60
   81c90:	9319      	str	r3, [sp, #100]	; 0x64
   81c92:	930b      	str	r3, [sp, #44]	; 0x2c
   81c94:	9316      	str	r3, [sp, #88]	; 0x58
   81c96:	9317      	str	r3, [sp, #92]	; 0x5c
   81c98:	9325      	str	r3, [sp, #148]	; 0x94
   81c9a:	9324      	str	r3, [sp, #144]	; 0x90
   81c9c:	f8cd 808c 	str.w	r8, [sp, #140]	; 0x8c
   81ca0:	f8cd a028 	str.w	sl, [sp, #40]	; 0x28
   81ca4:	f899 3000 	ldrb.w	r3, [r9]
   81ca8:	464c      	mov	r4, r9
   81caa:	b1eb      	cbz	r3, 81ce8 <_vfprintf_r+0xdc>
   81cac:	2b25      	cmp	r3, #37	; 0x25
   81cae:	d102      	bne.n	81cb6 <_vfprintf_r+0xaa>
   81cb0:	e01a      	b.n	81ce8 <_vfprintf_r+0xdc>
   81cb2:	2b25      	cmp	r3, #37	; 0x25
   81cb4:	d003      	beq.n	81cbe <_vfprintf_r+0xb2>
   81cb6:	f814 3f01 	ldrb.w	r3, [r4, #1]!
   81cba:	2b00      	cmp	r3, #0
   81cbc:	d1f9      	bne.n	81cb2 <_vfprintf_r+0xa6>
   81cbe:	eba4 0509 	sub.w	r5, r4, r9
   81cc2:	b18d      	cbz	r5, 81ce8 <_vfprintf_r+0xdc>
   81cc4:	9b24      	ldr	r3, [sp, #144]	; 0x90
   81cc6:	9a25      	ldr	r2, [sp, #148]	; 0x94
   81cc8:	3301      	adds	r3, #1
   81cca:	442a      	add	r2, r5
   81ccc:	2b07      	cmp	r3, #7
   81cce:	f8c8 9000 	str.w	r9, [r8]
   81cd2:	f8c8 5004 	str.w	r5, [r8, #4]
   81cd6:	9225      	str	r2, [sp, #148]	; 0x94
   81cd8:	9324      	str	r3, [sp, #144]	; 0x90
   81cda:	f300 8208 	bgt.w	820ee <_vfprintf_r+0x4e2>
   81cde:	f108 0808 	add.w	r8, r8, #8
   81ce2:	9b0b      	ldr	r3, [sp, #44]	; 0x2c
   81ce4:	442b      	add	r3, r5
   81ce6:	930b      	str	r3, [sp, #44]	; 0x2c
   81ce8:	7823      	ldrb	r3, [r4, #0]
   81cea:	2b00      	cmp	r3, #0
   81cec:	f000 840e 	beq.w	8250c <_vfprintf_r+0x900>
   81cf0:	2300      	movs	r3, #0
   81cf2:	461a      	mov	r2, r3
   81cf4:	f88d 306f 	strb.w	r3, [sp, #111]	; 0x6f
   81cf8:	4619      	mov	r1, r3
   81cfa:	930c      	str	r3, [sp, #48]	; 0x30
   81cfc:	469b      	mov	fp, r3
   81cfe:	f04f 33ff 	mov.w	r3, #4294967295
   81d02:	7866      	ldrb	r6, [r4, #1]
   81d04:	f104 0901 	add.w	r9, r4, #1
   81d08:	9309      	str	r3, [sp, #36]	; 0x24
   81d0a:	f109 0901 	add.w	r9, r9, #1
   81d0e:	f1a6 0320 	sub.w	r3, r6, #32
   81d12:	2b58      	cmp	r3, #88	; 0x58
   81d14:	f200 83d1 	bhi.w	824ba <_vfprintf_r+0x8ae>
   81d18:	e8df f013 	tbh	[pc, r3, lsl #1]
   81d1c:	03cf0261 	.word	0x03cf0261
   81d20:	026903cf 	.word	0x026903cf
   81d24:	03cf03cf 	.word	0x03cf03cf
   81d28:	03cf03cf 	.word	0x03cf03cf
   81d2c:	03cf03cf 	.word	0x03cf03cf
   81d30:	0331021d 	.word	0x0331021d
   81d34:	022a03cf 	.word	0x022a03cf
   81d38:	03cf0311 	.word	0x03cf0311
   81d3c:	026e032c 	.word	0x026e032c
   81d40:	026e026e 	.word	0x026e026e
   81d44:	026e026e 	.word	0x026e026e
   81d48:	026e026e 	.word	0x026e026e
   81d4c:	026e026e 	.word	0x026e026e
   81d50:	03cf03cf 	.word	0x03cf03cf
   81d54:	03cf03cf 	.word	0x03cf03cf
   81d58:	03cf03cf 	.word	0x03cf03cf
   81d5c:	03cf03cf 	.word	0x03cf03cf
   81d60:	03cf03cf 	.word	0x03cf03cf
   81d64:	02c5027e 	.word	0x02c5027e
   81d68:	02c503cf 	.word	0x02c503cf
   81d6c:	03cf03cf 	.word	0x03cf03cf
   81d70:	03cf03cf 	.word	0x03cf03cf
   81d74:	03cf030c 	.word	0x03cf030c
   81d78:	006f03cf 	.word	0x006f03cf
   81d7c:	03cf03cf 	.word	0x03cf03cf
   81d80:	03cf03cf 	.word	0x03cf03cf
   81d84:	005903cf 	.word	0x005903cf
   81d88:	03cf03cf 	.word	0x03cf03cf
   81d8c:	03cf0347 	.word	0x03cf0347
   81d90:	03cf03cf 	.word	0x03cf03cf
   81d94:	03cf03cf 	.word	0x03cf03cf
   81d98:	03cf03cf 	.word	0x03cf03cf
   81d9c:	03cf03cf 	.word	0x03cf03cf
   81da0:	034d03cf 	.word	0x034d03cf
   81da4:	02c50361 	.word	0x02c50361
   81da8:	02c502c5 	.word	0x02c502c5
   81dac:	03610367 	.word	0x03610367
   81db0:	03cf03cf 	.word	0x03cf03cf
   81db4:	03cf036c 	.word	0x03cf036c
   81db8:	00710379 	.word	0x00710379
   81dbc:	025c0336 	.word	0x025c0336
   81dc0:	038e03cf 	.word	0x038e03cf
   81dc4:	005b03cf 	.word	0x005b03cf
   81dc8:	03cf03cf 	.word	0x03cf03cf
   81dcc:	0234      	.short	0x0234
   81dce:	f04b 0b10 	orr.w	fp, fp, #16
   81dd2:	f01b 0f20 	tst.w	fp, #32
   81dd6:	f040 8365 	bne.w	824a4 <_vfprintf_r+0x898>
   81dda:	9a0e      	ldr	r2, [sp, #56]	; 0x38
   81ddc:	f01b 0f10 	tst.w	fp, #16
   81de0:	4613      	mov	r3, r2
   81de2:	f040 85ec 	bne.w	829be <_vfprintf_r+0xdb2>
   81de6:	f01b 0f40 	tst.w	fp, #64	; 0x40
   81dea:	f000 85e8 	beq.w	829be <_vfprintf_r+0xdb2>
   81dee:	8814      	ldrh	r4, [r2, #0]
   81df0:	3204      	adds	r2, #4
   81df2:	2500      	movs	r5, #0
   81df4:	2301      	movs	r3, #1
   81df6:	920e      	str	r2, [sp, #56]	; 0x38
   81df8:	e014      	b.n	81e24 <_vfprintf_r+0x218>
   81dfa:	f04b 0b10 	orr.w	fp, fp, #16
   81dfe:	f01b 0320 	ands.w	r3, fp, #32
   81e02:	f040 833a 	bne.w	8247a <_vfprintf_r+0x86e>
   81e06:	f01b 0210 	ands.w	r2, fp, #16
   81e0a:	f040 85df 	bne.w	829cc <_vfprintf_r+0xdc0>
   81e0e:	f01b 0340 	ands.w	r3, fp, #64	; 0x40
   81e12:	f000 85db 	beq.w	829cc <_vfprintf_r+0xdc0>
   81e16:	990e      	ldr	r1, [sp, #56]	; 0x38
   81e18:	4613      	mov	r3, r2
   81e1a:	460a      	mov	r2, r1
   81e1c:	2500      	movs	r5, #0
   81e1e:	3204      	adds	r2, #4
   81e20:	880c      	ldrh	r4, [r1, #0]
   81e22:	920e      	str	r2, [sp, #56]	; 0x38
   81e24:	2200      	movs	r2, #0
   81e26:	4692      	mov	sl, r2
   81e28:	f88d 206f 	strb.w	r2, [sp, #111]	; 0x6f
   81e2c:	9909      	ldr	r1, [sp, #36]	; 0x24
   81e2e:	1c4a      	adds	r2, r1, #1
   81e30:	f000 8219 	beq.w	82266 <_vfprintf_r+0x65a>
   81e34:	f02b 0280 	bic.w	r2, fp, #128	; 0x80
   81e38:	9206      	str	r2, [sp, #24]
   81e3a:	ea54 0205 	orrs.w	r2, r4, r5
   81e3e:	f040 8218 	bne.w	82272 <_vfprintf_r+0x666>
   81e42:	2900      	cmp	r1, #0
   81e44:	f040 847f 	bne.w	82746 <_vfprintf_r+0xb3a>
   81e48:	2b00      	cmp	r3, #0
   81e4a:	f040 857f 	bne.w	8294c <_vfprintf_r+0xd40>
   81e4e:	f01b 0301 	ands.w	r3, fp, #1
   81e52:	930d      	str	r3, [sp, #52]	; 0x34
   81e54:	f000 86ba 	beq.w	82bcc <_vfprintf_r+0xfc0>
   81e58:	2330      	movs	r3, #48	; 0x30
   81e5a:	af40      	add	r7, sp, #256	; 0x100
   81e5c:	f807 3d41 	strb.w	r3, [r7, #-65]!
   81e60:	9b09      	ldr	r3, [sp, #36]	; 0x24
   81e62:	9a0d      	ldr	r2, [sp, #52]	; 0x34
   81e64:	4293      	cmp	r3, r2
   81e66:	bfb8      	it	lt
   81e68:	4613      	movlt	r3, r2
   81e6a:	9307      	str	r3, [sp, #28]
   81e6c:	2300      	movs	r3, #0
   81e6e:	9310      	str	r3, [sp, #64]	; 0x40
   81e70:	f1ba 0f00 	cmp.w	sl, #0
   81e74:	d002      	beq.n	81e7c <_vfprintf_r+0x270>
   81e76:	9b07      	ldr	r3, [sp, #28]
   81e78:	3301      	adds	r3, #1
   81e7a:	9307      	str	r3, [sp, #28]
   81e7c:	9b06      	ldr	r3, [sp, #24]
   81e7e:	f013 0302 	ands.w	r3, r3, #2
   81e82:	930f      	str	r3, [sp, #60]	; 0x3c
   81e84:	d002      	beq.n	81e8c <_vfprintf_r+0x280>
   81e86:	9b07      	ldr	r3, [sp, #28]
   81e88:	3302      	adds	r3, #2
   81e8a:	9307      	str	r3, [sp, #28]
   81e8c:	9b06      	ldr	r3, [sp, #24]
   81e8e:	f013 0584 	ands.w	r5, r3, #132	; 0x84
   81e92:	f040 8339 	bne.w	82508 <_vfprintf_r+0x8fc>
   81e96:	9b0c      	ldr	r3, [sp, #48]	; 0x30
   81e98:	9a07      	ldr	r2, [sp, #28]
   81e9a:	eba3 0b02 	sub.w	fp, r3, r2
   81e9e:	f1bb 0f00 	cmp.w	fp, #0
   81ea2:	f340 8331 	ble.w	82508 <_vfprintf_r+0x8fc>
   81ea6:	f1bb 0f10 	cmp.w	fp, #16
   81eaa:	f340 87af 	ble.w	82e0c <_vfprintf_r+0x1200>
   81eae:	4643      	mov	r3, r8
   81eb0:	2410      	movs	r4, #16
   81eb2:	46a8      	mov	r8, r5
   81eb4:	9925      	ldr	r1, [sp, #148]	; 0x94
   81eb6:	9a24      	ldr	r2, [sp, #144]	; 0x90
   81eb8:	f8dd a020 	ldr.w	sl, [sp, #32]
   81ebc:	9d0a      	ldr	r5, [sp, #40]	; 0x28
   81ebe:	e006      	b.n	81ece <_vfprintf_r+0x2c2>
   81ec0:	f1ab 0b10 	sub.w	fp, fp, #16
   81ec4:	f1bb 0f10 	cmp.w	fp, #16
   81ec8:	f103 0308 	add.w	r3, r3, #8
   81ecc:	dd18      	ble.n	81f00 <_vfprintf_r+0x2f4>
   81ece:	3201      	adds	r2, #1
   81ed0:	48aa      	ldr	r0, [pc, #680]	; (8217c <_vfprintf_r+0x570>)
   81ed2:	3110      	adds	r1, #16
   81ed4:	2a07      	cmp	r2, #7
   81ed6:	9125      	str	r1, [sp, #148]	; 0x94
   81ed8:	9224      	str	r2, [sp, #144]	; 0x90
   81eda:	e883 0011 	stmia.w	r3, {r0, r4}
   81ede:	ddef      	ble.n	81ec0 <_vfprintf_r+0x2b4>
   81ee0:	aa23      	add	r2, sp, #140	; 0x8c
   81ee2:	4629      	mov	r1, r5
   81ee4:	4650      	mov	r0, sl
   81ee6:	f003 ffbb 	bl	85e60 <__sprint_r>
   81eea:	2800      	cmp	r0, #0
   81eec:	f040 8387 	bne.w	825fe <_vfprintf_r+0x9f2>
   81ef0:	f1ab 0b10 	sub.w	fp, fp, #16
   81ef4:	f1bb 0f10 	cmp.w	fp, #16
   81ef8:	ab30      	add	r3, sp, #192	; 0xc0
   81efa:	9925      	ldr	r1, [sp, #148]	; 0x94
   81efc:	9a24      	ldr	r2, [sp, #144]	; 0x90
   81efe:	dce6      	bgt.n	81ece <_vfprintf_r+0x2c2>
   81f00:	4645      	mov	r5, r8
   81f02:	4698      	mov	r8, r3
   81f04:	3201      	adds	r2, #1
   81f06:	4b9d      	ldr	r3, [pc, #628]	; (8217c <_vfprintf_r+0x570>)
   81f08:	eb0b 0401 	add.w	r4, fp, r1
   81f0c:	2a07      	cmp	r2, #7
   81f0e:	9425      	str	r4, [sp, #148]	; 0x94
   81f10:	9224      	str	r2, [sp, #144]	; 0x90
   81f12:	e888 0808 	stmia.w	r8, {r3, fp}
   81f16:	f300 82eb 	bgt.w	824f0 <_vfprintf_r+0x8e4>
   81f1a:	f89d a06f 	ldrb.w	sl, [sp, #111]	; 0x6f
   81f1e:	f108 0808 	add.w	r8, r8, #8
   81f22:	f1ba 0f00 	cmp.w	sl, #0
   81f26:	d010      	beq.n	81f4a <_vfprintf_r+0x33e>
   81f28:	2101      	movs	r1, #1
   81f2a:	9b24      	ldr	r3, [sp, #144]	; 0x90
   81f2c:	440c      	add	r4, r1
   81f2e:	440b      	add	r3, r1
   81f30:	f10d 026f 	add.w	r2, sp, #111	; 0x6f
   81f34:	2b07      	cmp	r3, #7
   81f36:	9425      	str	r4, [sp, #148]	; 0x94
   81f38:	9324      	str	r3, [sp, #144]	; 0x90
   81f3a:	f8c8 1004 	str.w	r1, [r8, #4]
   81f3e:	f8c8 2000 	str.w	r2, [r8]
   81f42:	f300 8454 	bgt.w	827ee <_vfprintf_r+0xbe2>
   81f46:	f108 0808 	add.w	r8, r8, #8
   81f4a:	9b0f      	ldr	r3, [sp, #60]	; 0x3c
   81f4c:	b17b      	cbz	r3, 81f6e <_vfprintf_r+0x362>
   81f4e:	2102      	movs	r1, #2
   81f50:	9b24      	ldr	r3, [sp, #144]	; 0x90
   81f52:	440c      	add	r4, r1
   81f54:	3301      	adds	r3, #1
   81f56:	aa1c      	add	r2, sp, #112	; 0x70
   81f58:	2b07      	cmp	r3, #7
   81f5a:	9425      	str	r4, [sp, #148]	; 0x94
   81f5c:	9324      	str	r3, [sp, #144]	; 0x90
   81f5e:	f8c8 1004 	str.w	r1, [r8, #4]
   81f62:	f8c8 2000 	str.w	r2, [r8]
   81f66:	f300 844e 	bgt.w	82806 <_vfprintf_r+0xbfa>
   81f6a:	f108 0808 	add.w	r8, r8, #8
   81f6e:	2d80      	cmp	r5, #128	; 0x80
   81f70:	f000 8347 	beq.w	82602 <_vfprintf_r+0x9f6>
   81f74:	9b09      	ldr	r3, [sp, #36]	; 0x24
   81f76:	9a0d      	ldr	r2, [sp, #52]	; 0x34
   81f78:	eba3 0a02 	sub.w	sl, r3, r2
   81f7c:	f1ba 0f00 	cmp.w	sl, #0
   81f80:	dd3c      	ble.n	81ffc <_vfprintf_r+0x3f0>
   81f82:	f1ba 0f10 	cmp.w	sl, #16
   81f86:	f340 86f0 	ble.w	82d6a <_vfprintf_r+0x115e>
   81f8a:	4d7d      	ldr	r5, [pc, #500]	; (82180 <_vfprintf_r+0x574>)
   81f8c:	4642      	mov	r2, r8
   81f8e:	4621      	mov	r1, r4
   81f90:	46b0      	mov	r8, r6
   81f92:	f04f 0b10 	mov.w	fp, #16
   81f96:	462e      	mov	r6, r5
   81f98:	9b24      	ldr	r3, [sp, #144]	; 0x90
   81f9a:	9c08      	ldr	r4, [sp, #32]
   81f9c:	9d0a      	ldr	r5, [sp, #40]	; 0x28
   81f9e:	e006      	b.n	81fae <_vfprintf_r+0x3a2>
   81fa0:	f1aa 0a10 	sub.w	sl, sl, #16
   81fa4:	f1ba 0f10 	cmp.w	sl, #16
   81fa8:	f102 0208 	add.w	r2, r2, #8
   81fac:	dd17      	ble.n	81fde <_vfprintf_r+0x3d2>
   81fae:	3301      	adds	r3, #1
   81fb0:	3110      	adds	r1, #16
   81fb2:	2b07      	cmp	r3, #7
   81fb4:	9125      	str	r1, [sp, #148]	; 0x94
   81fb6:	9324      	str	r3, [sp, #144]	; 0x90
   81fb8:	e882 0840 	stmia.w	r2, {r6, fp}
   81fbc:	ddf0      	ble.n	81fa0 <_vfprintf_r+0x394>
   81fbe:	aa23      	add	r2, sp, #140	; 0x8c
   81fc0:	4629      	mov	r1, r5
   81fc2:	4620      	mov	r0, r4
   81fc4:	f003 ff4c 	bl	85e60 <__sprint_r>
   81fc8:	2800      	cmp	r0, #0
   81fca:	f040 8318 	bne.w	825fe <_vfprintf_r+0x9f2>
   81fce:	f1aa 0a10 	sub.w	sl, sl, #16
   81fd2:	f1ba 0f10 	cmp.w	sl, #16
   81fd6:	aa30      	add	r2, sp, #192	; 0xc0
   81fd8:	9925      	ldr	r1, [sp, #148]	; 0x94
   81fda:	9b24      	ldr	r3, [sp, #144]	; 0x90
   81fdc:	dce7      	bgt.n	81fae <_vfprintf_r+0x3a2>
   81fde:	4635      	mov	r5, r6
   81fe0:	460c      	mov	r4, r1
   81fe2:	4646      	mov	r6, r8
   81fe4:	4690      	mov	r8, r2
   81fe6:	3301      	adds	r3, #1
   81fe8:	4454      	add	r4, sl
   81fea:	2b07      	cmp	r3, #7
   81fec:	9425      	str	r4, [sp, #148]	; 0x94
   81fee:	9324      	str	r3, [sp, #144]	; 0x90
   81ff0:	e888 0420 	stmia.w	r8, {r5, sl}
   81ff4:	f300 83b3 	bgt.w	8275e <_vfprintf_r+0xb52>
   81ff8:	f108 0808 	add.w	r8, r8, #8
   81ffc:	9b06      	ldr	r3, [sp, #24]
   81ffe:	05db      	lsls	r3, r3, #23
   82000:	f100 829d 	bmi.w	8253e <_vfprintf_r+0x932>
   82004:	9b24      	ldr	r3, [sp, #144]	; 0x90
   82006:	990d      	ldr	r1, [sp, #52]	; 0x34
   82008:	3301      	adds	r3, #1
   8200a:	440c      	add	r4, r1
   8200c:	2b07      	cmp	r3, #7
   8200e:	9425      	str	r4, [sp, #148]	; 0x94
   82010:	f8c8 7000 	str.w	r7, [r8]
   82014:	f8c8 1004 	str.w	r1, [r8, #4]
   82018:	9324      	str	r3, [sp, #144]	; 0x90
   8201a:	f300 83dd 	bgt.w	827d8 <_vfprintf_r+0xbcc>
   8201e:	f108 0808 	add.w	r8, r8, #8
   82022:	9b06      	ldr	r3, [sp, #24]
   82024:	0759      	lsls	r1, r3, #29
   82026:	d53c      	bpl.n	820a2 <_vfprintf_r+0x496>
   82028:	9b0c      	ldr	r3, [sp, #48]	; 0x30
   8202a:	9a07      	ldr	r2, [sp, #28]
   8202c:	1a9d      	subs	r5, r3, r2
   8202e:	2d00      	cmp	r5, #0
   82030:	dd37      	ble.n	820a2 <_vfprintf_r+0x496>
   82032:	2d10      	cmp	r5, #16
   82034:	f340 875b 	ble.w	82eee <_vfprintf_r+0x12e2>
   82038:	2610      	movs	r6, #16
   8203a:	9b24      	ldr	r3, [sp, #144]	; 0x90
   8203c:	9f08      	ldr	r7, [sp, #32]
   8203e:	f8dd a028 	ldr.w	sl, [sp, #40]	; 0x28
   82042:	e004      	b.n	8204e <_vfprintf_r+0x442>
   82044:	3d10      	subs	r5, #16
   82046:	2d10      	cmp	r5, #16
   82048:	f108 0808 	add.w	r8, r8, #8
   8204c:	dd17      	ble.n	8207e <_vfprintf_r+0x472>
   8204e:	3301      	adds	r3, #1
   82050:	4a4a      	ldr	r2, [pc, #296]	; (8217c <_vfprintf_r+0x570>)
   82052:	3410      	adds	r4, #16
   82054:	2b07      	cmp	r3, #7
   82056:	9425      	str	r4, [sp, #148]	; 0x94
   82058:	9324      	str	r3, [sp, #144]	; 0x90
   8205a:	e888 0044 	stmia.w	r8, {r2, r6}
   8205e:	ddf1      	ble.n	82044 <_vfprintf_r+0x438>
   82060:	aa23      	add	r2, sp, #140	; 0x8c
   82062:	4651      	mov	r1, sl
   82064:	4638      	mov	r0, r7
   82066:	f003 fefb 	bl	85e60 <__sprint_r>
   8206a:	2800      	cmp	r0, #0
   8206c:	f040 8256 	bne.w	8251c <_vfprintf_r+0x910>
   82070:	3d10      	subs	r5, #16
   82072:	2d10      	cmp	r5, #16
   82074:	f10d 08c0 	add.w	r8, sp, #192	; 0xc0
   82078:	9c25      	ldr	r4, [sp, #148]	; 0x94
   8207a:	9b24      	ldr	r3, [sp, #144]	; 0x90
   8207c:	dce7      	bgt.n	8204e <_vfprintf_r+0x442>
   8207e:	3301      	adds	r3, #1
   82080:	4a3e      	ldr	r2, [pc, #248]	; (8217c <_vfprintf_r+0x570>)
   82082:	442c      	add	r4, r5
   82084:	2b07      	cmp	r3, #7
   82086:	9425      	str	r4, [sp, #148]	; 0x94
   82088:	9324      	str	r3, [sp, #144]	; 0x90
   8208a:	e888 0024 	stmia.w	r8, {r2, r5}
   8208e:	dd08      	ble.n	820a2 <_vfprintf_r+0x496>
   82090:	aa23      	add	r2, sp, #140	; 0x8c
   82092:	990a      	ldr	r1, [sp, #40]	; 0x28
   82094:	9808      	ldr	r0, [sp, #32]
   82096:	f003 fee3 	bl	85e60 <__sprint_r>
   8209a:	2800      	cmp	r0, #0
   8209c:	f040 8350 	bne.w	82740 <_vfprintf_r+0xb34>
   820a0:	9c25      	ldr	r4, [sp, #148]	; 0x94
   820a2:	9b0b      	ldr	r3, [sp, #44]	; 0x2c
   820a4:	9a0c      	ldr	r2, [sp, #48]	; 0x30
   820a6:	9907      	ldr	r1, [sp, #28]
   820a8:	428a      	cmp	r2, r1
   820aa:	bfac      	ite	ge
   820ac:	189b      	addge	r3, r3, r2
   820ae:	185b      	addlt	r3, r3, r1
   820b0:	930b      	str	r3, [sp, #44]	; 0x2c
   820b2:	2c00      	cmp	r4, #0
   820b4:	f040 833c 	bne.w	82730 <_vfprintf_r+0xb24>
   820b8:	2300      	movs	r3, #0
   820ba:	f10d 08c0 	add.w	r8, sp, #192	; 0xc0
   820be:	9324      	str	r3, [sp, #144]	; 0x90
   820c0:	e5f0      	b.n	81ca4 <_vfprintf_r+0x98>
   820c2:	4651      	mov	r1, sl
   820c4:	9808      	ldr	r0, [sp, #32]
   820c6:	f001 f8d9 	bl	8327c <__swsetup_r>
   820ca:	2800      	cmp	r0, #0
   820cc:	d038      	beq.n	82140 <_vfprintf_r+0x534>
   820ce:	f8da 3064 	ldr.w	r3, [sl, #100]	; 0x64
   820d2:	07dd      	lsls	r5, r3, #31
   820d4:	d404      	bmi.n	820e0 <_vfprintf_r+0x4d4>
   820d6:	f8ba 300c 	ldrh.w	r3, [sl, #12]
   820da:	059c      	lsls	r4, r3, #22
   820dc:	f140 861e 	bpl.w	82d1c <_vfprintf_r+0x1110>
   820e0:	f04f 33ff 	mov.w	r3, #4294967295
   820e4:	930b      	str	r3, [sp, #44]	; 0x2c
   820e6:	980b      	ldr	r0, [sp, #44]	; 0x2c
   820e8:	b041      	add	sp, #260	; 0x104
   820ea:	e8bd 8ff0 	ldmia.w	sp!, {r4, r5, r6, r7, r8, r9, sl, fp, pc}
   820ee:	aa23      	add	r2, sp, #140	; 0x8c
   820f0:	990a      	ldr	r1, [sp, #40]	; 0x28
   820f2:	9808      	ldr	r0, [sp, #32]
   820f4:	f003 feb4 	bl	85e60 <__sprint_r>
   820f8:	2800      	cmp	r0, #0
   820fa:	f040 8321 	bne.w	82740 <_vfprintf_r+0xb34>
   820fe:	f10d 08c0 	add.w	r8, sp, #192	; 0xc0
   82102:	e5ee      	b.n	81ce2 <_vfprintf_r+0xd6>
   82104:	9808      	ldr	r0, [sp, #32]
   82106:	f002 f9d9 	bl	844bc <__sinit>
   8210a:	e595      	b.n	81c38 <_vfprintf_r+0x2c>
   8210c:	f9ba 200e 	ldrsh.w	r2, [sl, #14]
   82110:	2a00      	cmp	r2, #0
   82112:	f6ff adb6 	blt.w	81c82 <_vfprintf_r+0x76>
   82116:	f8da 2064 	ldr.w	r2, [sl, #100]	; 0x64
   8211a:	07d0      	lsls	r0, r2, #31
   8211c:	d405      	bmi.n	8212a <_vfprintf_r+0x51e>
   8211e:	0599      	lsls	r1, r3, #22
   82120:	d403      	bmi.n	8212a <_vfprintf_r+0x51e>
   82122:	f8da 0058 	ldr.w	r0, [sl, #88]	; 0x58
   82126:	f002 fd0b 	bl	84b40 <__retarget_lock_release_recursive>
   8212a:	462b      	mov	r3, r5
   8212c:	464a      	mov	r2, r9
   8212e:	4651      	mov	r1, sl
   82130:	9808      	ldr	r0, [sp, #32]
   82132:	f001 f85f 	bl	831f4 <__sbprintf>
   82136:	900b      	str	r0, [sp, #44]	; 0x2c
   82138:	980b      	ldr	r0, [sp, #44]	; 0x2c
   8213a:	b041      	add	sp, #260	; 0x104
   8213c:	e8bd 8ff0 	ldmia.w	sp!, {r4, r5, r6, r7, r8, r9, sl, fp, pc}
   82140:	f8ba 300c 	ldrh.w	r3, [sl, #12]
   82144:	e598      	b.n	81c78 <_vfprintf_r+0x6c>
   82146:	f8da 0058 	ldr.w	r0, [sl, #88]	; 0x58
   8214a:	f002 fcf7 	bl	84b3c <__retarget_lock_acquire_recursive>
   8214e:	f9ba 200c 	ldrsh.w	r2, [sl, #12]
   82152:	b293      	uxth	r3, r2
   82154:	e57b      	b.n	81c4e <_vfprintf_r+0x42>
   82156:	9c0e      	ldr	r4, [sp, #56]	; 0x38
   82158:	6823      	ldr	r3, [r4, #0]
   8215a:	4618      	mov	r0, r3
   8215c:	930c      	str	r3, [sp, #48]	; 0x30
   8215e:	4623      	mov	r3, r4
   82160:	2800      	cmp	r0, #0
   82162:	f103 0304 	add.w	r3, r3, #4
   82166:	930e      	str	r3, [sp, #56]	; 0x38
   82168:	da04      	bge.n	82174 <_vfprintf_r+0x568>
   8216a:	9b0c      	ldr	r3, [sp, #48]	; 0x30
   8216c:	425b      	negs	r3, r3
   8216e:	930c      	str	r3, [sp, #48]	; 0x30
   82170:	f04b 0b04 	orr.w	fp, fp, #4
   82174:	f899 6000 	ldrb.w	r6, [r9]
   82178:	e5c7      	b.n	81d0a <_vfprintf_r+0xfe>
   8217a:	bf00      	nop
   8217c:	000864a8 	.word	0x000864a8
   82180:	000864b8 	.word	0x000864b8
   82184:	2a00      	cmp	r2, #0
   82186:	f041 801a 	bne.w	831be <_vfprintf_r+0x15b2>
   8218a:	4bc1      	ldr	r3, [pc, #772]	; (82490 <_vfprintf_r+0x884>)
   8218c:	9318      	str	r3, [sp, #96]	; 0x60
   8218e:	f01b 0f20 	tst.w	fp, #32
   82192:	f040 84dd 	bne.w	82b50 <_vfprintf_r+0xf44>
   82196:	9a0e      	ldr	r2, [sp, #56]	; 0x38
   82198:	f01b 0f10 	tst.w	fp, #16
   8219c:	4613      	mov	r3, r2
   8219e:	f040 841d 	bne.w	829dc <_vfprintf_r+0xdd0>
   821a2:	f01b 0f40 	tst.w	fp, #64	; 0x40
   821a6:	f000 8419 	beq.w	829dc <_vfprintf_r+0xdd0>
   821aa:	2500      	movs	r5, #0
   821ac:	3304      	adds	r3, #4
   821ae:	8814      	ldrh	r4, [r2, #0]
   821b0:	930e      	str	r3, [sp, #56]	; 0x38
   821b2:	f01b 0f01 	tst.w	fp, #1
   821b6:	f000 835f 	beq.w	82878 <_vfprintf_r+0xc6c>
   821ba:	ea54 0305 	orrs.w	r3, r4, r5
   821be:	f000 835b 	beq.w	82878 <_vfprintf_r+0xc6c>
   821c2:	2330      	movs	r3, #48	; 0x30
   821c4:	f88d 6071 	strb.w	r6, [sp, #113]	; 0x71
   821c8:	f88d 3070 	strb.w	r3, [sp, #112]	; 0x70
   821cc:	f04b 0b02 	orr.w	fp, fp, #2
   821d0:	2302      	movs	r3, #2
   821d2:	e627      	b.n	81e24 <_vfprintf_r+0x218>
   821d4:	f04b 0b20 	orr.w	fp, fp, #32
   821d8:	f899 6000 	ldrb.w	r6, [r9]
   821dc:	e595      	b.n	81d0a <_vfprintf_r+0xfe>
   821de:	f899 6000 	ldrb.w	r6, [r9]
   821e2:	2900      	cmp	r1, #0
   821e4:	f47f ad91 	bne.w	81d0a <_vfprintf_r+0xfe>
   821e8:	2201      	movs	r2, #1
   821ea:	2120      	movs	r1, #32
   821ec:	e58d      	b.n	81d0a <_vfprintf_r+0xfe>
   821ee:	f04b 0b01 	orr.w	fp, fp, #1
   821f2:	f899 6000 	ldrb.w	r6, [r9]
   821f6:	e588      	b.n	81d0a <_vfprintf_r+0xfe>
   821f8:	2300      	movs	r3, #0
   821fa:	4618      	mov	r0, r3
   821fc:	f1a6 0330 	sub.w	r3, r6, #48	; 0x30
   82200:	f819 6b01 	ldrb.w	r6, [r9], #1
   82204:	eb00 0080 	add.w	r0, r0, r0, lsl #2
   82208:	eb03 0040 	add.w	r0, r3, r0, lsl #1
   8220c:	f1a6 0330 	sub.w	r3, r6, #48	; 0x30
   82210:	2b09      	cmp	r3, #9
   82212:	d9f5      	bls.n	82200 <_vfprintf_r+0x5f4>
   82214:	900c      	str	r0, [sp, #48]	; 0x30
   82216:	e57a      	b.n	81d0e <_vfprintf_r+0x102>
   82218:	2a00      	cmp	r2, #0
   8221a:	f040 87d8 	bne.w	831ce <_vfprintf_r+0x15c2>
   8221e:	f04b 0b10 	orr.w	fp, fp, #16
   82222:	f01b 0f20 	tst.w	fp, #32
   82226:	f040 84c2 	bne.w	82bae <_vfprintf_r+0xfa2>
   8222a:	9a0e      	ldr	r2, [sp, #56]	; 0x38
   8222c:	f01b 0f10 	tst.w	fp, #16
   82230:	4613      	mov	r3, r2
   82232:	f040 83d9 	bne.w	829e8 <_vfprintf_r+0xddc>
   82236:	f01b 0f40 	tst.w	fp, #64	; 0x40
   8223a:	f000 83d5 	beq.w	829e8 <_vfprintf_r+0xddc>
   8223e:	f9b2 4000 	ldrsh.w	r4, [r2]
   82242:	3304      	adds	r3, #4
   82244:	17e5      	asrs	r5, r4, #31
   82246:	930e      	str	r3, [sp, #56]	; 0x38
   82248:	4622      	mov	r2, r4
   8224a:	462b      	mov	r3, r5
   8224c:	2a00      	cmp	r2, #0
   8224e:	f173 0300 	sbcs.w	r3, r3, #0
   82252:	f2c0 84cb 	blt.w	82bec <_vfprintf_r+0xfe0>
   82256:	9909      	ldr	r1, [sp, #36]	; 0x24
   82258:	f89d a06f 	ldrb.w	sl, [sp, #111]	; 0x6f
   8225c:	1c4a      	adds	r2, r1, #1
   8225e:	f04f 0301 	mov.w	r3, #1
   82262:	f47f ade7 	bne.w	81e34 <_vfprintf_r+0x228>
   82266:	ea54 0205 	orrs.w	r2, r4, r5
   8226a:	f000 826e 	beq.w	8274a <_vfprintf_r+0xb3e>
   8226e:	f8cd b018 	str.w	fp, [sp, #24]
   82272:	2b01      	cmp	r3, #1
   82274:	f000 834c 	beq.w	82910 <_vfprintf_r+0xd04>
   82278:	2b02      	cmp	r3, #2
   8227a:	f040 82d4 	bne.w	82826 <_vfprintf_r+0xc1a>
   8227e:	9818      	ldr	r0, [sp, #96]	; 0x60
   82280:	af30      	add	r7, sp, #192	; 0xc0
   82282:	0923      	lsrs	r3, r4, #4
   82284:	ea43 7305 	orr.w	r3, r3, r5, lsl #28
   82288:	0929      	lsrs	r1, r5, #4
   8228a:	f004 020f 	and.w	r2, r4, #15
   8228e:	460d      	mov	r5, r1
   82290:	461c      	mov	r4, r3
   82292:	5c83      	ldrb	r3, [r0, r2]
   82294:	f807 3d01 	strb.w	r3, [r7, #-1]!
   82298:	ea54 0305 	orrs.w	r3, r4, r5
   8229c:	d1f1      	bne.n	82282 <_vfprintf_r+0x676>
   8229e:	ab30      	add	r3, sp, #192	; 0xc0
   822a0:	1bdb      	subs	r3, r3, r7
   822a2:	930d      	str	r3, [sp, #52]	; 0x34
   822a4:	e5dc      	b.n	81e60 <_vfprintf_r+0x254>
   822a6:	2a00      	cmp	r2, #0
   822a8:	f040 878d 	bne.w	831c6 <_vfprintf_r+0x15ba>
   822ac:	9c0e      	ldr	r4, [sp, #56]	; 0x38
   822ae:	f01b 0f08 	tst.w	fp, #8
   822b2:	f104 0407 	add.w	r4, r4, #7
   822b6:	f000 8526 	beq.w	82d06 <_vfprintf_r+0x10fa>
   822ba:	f024 0307 	bic.w	r3, r4, #7
   822be:	f103 0208 	add.w	r2, r3, #8
   822c2:	920e      	str	r2, [sp, #56]	; 0x38
   822c4:	681a      	ldr	r2, [r3, #0]
   822c6:	685b      	ldr	r3, [r3, #4]
   822c8:	9213      	str	r2, [sp, #76]	; 0x4c
   822ca:	9312      	str	r3, [sp, #72]	; 0x48
   822cc:	9b12      	ldr	r3, [sp, #72]	; 0x48
   822ce:	9d13      	ldr	r5, [sp, #76]	; 0x4c
   822d0:	f023 4400 	bic.w	r4, r3, #2147483648	; 0x80000000
   822d4:	4628      	mov	r0, r5
   822d6:	4621      	mov	r1, r4
   822d8:	f04f 32ff 	mov.w	r2, #4294967295
   822dc:	4b6d      	ldr	r3, [pc, #436]	; (82494 <_vfprintf_r+0x888>)
   822de:	f004 f869 	bl	863b4 <__aeabi_dcmpun>
   822e2:	2800      	cmp	r0, #0
   822e4:	f040 848c 	bne.w	82c00 <_vfprintf_r+0xff4>
   822e8:	4628      	mov	r0, r5
   822ea:	4621      	mov	r1, r4
   822ec:	f04f 32ff 	mov.w	r2, #4294967295
   822f0:	4b68      	ldr	r3, [pc, #416]	; (82494 <_vfprintf_r+0x888>)
   822f2:	f7ff fb3f 	bl	81974 <__aeabi_dcmple>
   822f6:	2800      	cmp	r0, #0
   822f8:	f040 8482 	bne.w	82c00 <_vfprintf_r+0xff4>
   822fc:	9a16      	ldr	r2, [sp, #88]	; 0x58
   822fe:	9813      	ldr	r0, [sp, #76]	; 0x4c
   82300:	9b17      	ldr	r3, [sp, #92]	; 0x5c
   82302:	9912      	ldr	r1, [sp, #72]	; 0x48
   82304:	f7ff fb2c 	bl	81960 <__aeabi_dcmplt>
   82308:	2800      	cmp	r0, #0
   8230a:	f040 8525 	bne.w	82d58 <_vfprintf_r+0x114c>
   8230e:	f89d a06f 	ldrb.w	sl, [sp, #111]	; 0x6f
   82312:	2303      	movs	r3, #3
   82314:	461a      	mov	r2, r3
   82316:	9307      	str	r3, [sp, #28]
   82318:	2300      	movs	r3, #0
   8231a:	4f5f      	ldr	r7, [pc, #380]	; (82498 <_vfprintf_r+0x88c>)
   8231c:	4619      	mov	r1, r3
   8231e:	9309      	str	r3, [sp, #36]	; 0x24
   82320:	4b5e      	ldr	r3, [pc, #376]	; (8249c <_vfprintf_r+0x890>)
   82322:	f02b 0080 	bic.w	r0, fp, #128	; 0x80
   82326:	9006      	str	r0, [sp, #24]
   82328:	920d      	str	r2, [sp, #52]	; 0x34
   8232a:	9110      	str	r1, [sp, #64]	; 0x40
   8232c:	2e47      	cmp	r6, #71	; 0x47
   8232e:	bfd8      	it	le
   82330:	461f      	movle	r7, r3
   82332:	e59d      	b.n	81e70 <_vfprintf_r+0x264>
   82334:	f04b 0b08 	orr.w	fp, fp, #8
   82338:	f899 6000 	ldrb.w	r6, [r9]
   8233c:	e4e5      	b.n	81d0a <_vfprintf_r+0xfe>
   8233e:	f899 6000 	ldrb.w	r6, [r9]
   82342:	f109 0001 	add.w	r0, r9, #1
   82346:	2e2a      	cmp	r6, #42	; 0x2a
   82348:	f000 8725 	beq.w	83196 <_vfprintf_r+0x158a>
   8234c:	f1a6 0330 	sub.w	r3, r6, #48	; 0x30
   82350:	2b09      	cmp	r3, #9
   82352:	4681      	mov	r9, r0
   82354:	bf98      	it	ls
   82356:	2000      	movls	r0, #0
   82358:	f200 869f 	bhi.w	8309a <_vfprintf_r+0x148e>
   8235c:	f819 6b01 	ldrb.w	r6, [r9], #1
   82360:	eb00 0080 	add.w	r0, r0, r0, lsl #2
   82364:	eb03 0040 	add.w	r0, r3, r0, lsl #1
   82368:	f1a6 0330 	sub.w	r3, r6, #48	; 0x30
   8236c:	2b09      	cmp	r3, #9
   8236e:	d9f5      	bls.n	8235c <_vfprintf_r+0x750>
   82370:	9009      	str	r0, [sp, #36]	; 0x24
   82372:	e4cc      	b.n	81d0e <_vfprintf_r+0x102>
   82374:	f04b 0b80 	orr.w	fp, fp, #128	; 0x80
   82378:	f899 6000 	ldrb.w	r6, [r9]
   8237c:	e4c5      	b.n	81d0a <_vfprintf_r+0xfe>
   8237e:	f899 6000 	ldrb.w	r6, [r9]
   82382:	2201      	movs	r2, #1
   82384:	212b      	movs	r1, #43	; 0x2b
   82386:	e4c0      	b.n	81d0a <_vfprintf_r+0xfe>
   82388:	2330      	movs	r3, #48	; 0x30
   8238a:	2678      	movs	r6, #120	; 0x78
   8238c:	990e      	ldr	r1, [sp, #56]	; 0x38
   8238e:	f88d 3070 	strb.w	r3, [sp, #112]	; 0x70
   82392:	1d0b      	adds	r3, r1, #4
   82394:	930e      	str	r3, [sp, #56]	; 0x38
   82396:	4b3e      	ldr	r3, [pc, #248]	; (82490 <_vfprintf_r+0x884>)
   82398:	680c      	ldr	r4, [r1, #0]
   8239a:	9318      	str	r3, [sp, #96]	; 0x60
   8239c:	f04b 0b02 	orr.w	fp, fp, #2
   823a0:	f88d 6071 	strb.w	r6, [sp, #113]	; 0x71
   823a4:	2500      	movs	r5, #0
   823a6:	2302      	movs	r3, #2
   823a8:	e53c      	b.n	81e24 <_vfprintf_r+0x218>
   823aa:	2a00      	cmp	r2, #0
   823ac:	f040 8717 	bne.w	831de <_vfprintf_r+0x15d2>
   823b0:	4b3b      	ldr	r3, [pc, #236]	; (824a0 <_vfprintf_r+0x894>)
   823b2:	9318      	str	r3, [sp, #96]	; 0x60
   823b4:	e6eb      	b.n	8218e <_vfprintf_r+0x582>
   823b6:	2201      	movs	r2, #1
   823b8:	2300      	movs	r3, #0
   823ba:	4611      	mov	r1, r2
   823bc:	980e      	ldr	r0, [sp, #56]	; 0x38
   823be:	9207      	str	r2, [sp, #28]
   823c0:	6802      	ldr	r2, [r0, #0]
   823c2:	469a      	mov	sl, r3
   823c4:	f88d 306f 	strb.w	r3, [sp, #111]	; 0x6f
   823c8:	9309      	str	r3, [sp, #36]	; 0x24
   823ca:	9310      	str	r3, [sp, #64]	; 0x40
   823cc:	1d03      	adds	r3, r0, #4
   823ce:	f8cd b018 	str.w	fp, [sp, #24]
   823d2:	910d      	str	r1, [sp, #52]	; 0x34
   823d4:	f88d 2098 	strb.w	r2, [sp, #152]	; 0x98
   823d8:	930e      	str	r3, [sp, #56]	; 0x38
   823da:	af26      	add	r7, sp, #152	; 0x98
   823dc:	e54e      	b.n	81e7c <_vfprintf_r+0x270>
   823de:	2a00      	cmp	r2, #0
   823e0:	f43f af1f 	beq.w	82222 <_vfprintf_r+0x616>
   823e4:	f88d 106f 	strb.w	r1, [sp, #111]	; 0x6f
   823e8:	e71b      	b.n	82222 <_vfprintf_r+0x616>
   823ea:	f04b 0b40 	orr.w	fp, fp, #64	; 0x40
   823ee:	f899 6000 	ldrb.w	r6, [r9]
   823f2:	e48a      	b.n	81d0a <_vfprintf_r+0xfe>
   823f4:	f899 6000 	ldrb.w	r6, [r9]
   823f8:	2e6c      	cmp	r6, #108	; 0x6c
   823fa:	bf03      	ittte	eq
   823fc:	f899 6001 	ldrbeq.w	r6, [r9, #1]
   82400:	f04b 0b20 	orreq.w	fp, fp, #32
   82404:	f109 0901 	addeq.w	r9, r9, #1
   82408:	f04b 0b10 	orrne.w	fp, fp, #16
   8240c:	e47d      	b.n	81d0a <_vfprintf_r+0xfe>
   8240e:	2a00      	cmp	r2, #0
   82410:	f040 86ce 	bne.w	831b0 <_vfprintf_r+0x15a4>
   82414:	f01b 0f20 	tst.w	fp, #32
   82418:	f040 84c8 	bne.w	82dac <_vfprintf_r+0x11a0>
   8241c:	f01b 0f10 	tst.w	fp, #16
   82420:	d15e      	bne.n	824e0 <_vfprintf_r+0x8d4>
   82422:	f01b 0f40 	tst.w	fp, #64	; 0x40
   82426:	d05b      	beq.n	824e0 <_vfprintf_r+0x8d4>
   82428:	9a0e      	ldr	r2, [sp, #56]	; 0x38
   8242a:	6813      	ldr	r3, [r2, #0]
   8242c:	3204      	adds	r2, #4
   8242e:	920e      	str	r2, [sp, #56]	; 0x38
   82430:	f8bd 202c 	ldrh.w	r2, [sp, #44]	; 0x2c
   82434:	801a      	strh	r2, [r3, #0]
   82436:	e435      	b.n	81ca4 <_vfprintf_r+0x98>
   82438:	2500      	movs	r5, #0
   8243a:	9a0e      	ldr	r2, [sp, #56]	; 0x38
   8243c:	f88d 506f 	strb.w	r5, [sp, #111]	; 0x6f
   82440:	6817      	ldr	r7, [r2, #0]
   82442:	1d14      	adds	r4, r2, #4
   82444:	2f00      	cmp	r7, #0
   82446:	f000 8555 	beq.w	82ef4 <_vfprintf_r+0x12e8>
   8244a:	9a09      	ldr	r2, [sp, #36]	; 0x24
   8244c:	1c53      	adds	r3, r2, #1
   8244e:	f000 84d2 	beq.w	82df6 <_vfprintf_r+0x11ea>
   82452:	4629      	mov	r1, r5
   82454:	4638      	mov	r0, r7
   82456:	f002 fe8f 	bl	85178 <memchr>
   8245a:	2800      	cmp	r0, #0
   8245c:	f000 85c9 	beq.w	82ff2 <_vfprintf_r+0x13e6>
   82460:	1bc3      	subs	r3, r0, r7
   82462:	9509      	str	r5, [sp, #36]	; 0x24
   82464:	930d      	str	r3, [sp, #52]	; 0x34
   82466:	940e      	str	r4, [sp, #56]	; 0x38
   82468:	f8cd b018 	str.w	fp, [sp, #24]
   8246c:	ea23 73e3 	bic.w	r3, r3, r3, asr #31
   82470:	9307      	str	r3, [sp, #28]
   82472:	9510      	str	r5, [sp, #64]	; 0x40
   82474:	f89d a06f 	ldrb.w	sl, [sp, #111]	; 0x6f
   82478:	e4fa      	b.n	81e70 <_vfprintf_r+0x264>
   8247a:	9c0e      	ldr	r4, [sp, #56]	; 0x38
   8247c:	3407      	adds	r4, #7
   8247e:	f024 0307 	bic.w	r3, r4, #7
   82482:	f103 0208 	add.w	r2, r3, #8
   82486:	e9d3 4500 	ldrd	r4, r5, [r3]
   8248a:	920e      	str	r2, [sp, #56]	; 0x38
   8248c:	2300      	movs	r3, #0
   8248e:	e4c9      	b.n	81e24 <_vfprintf_r+0x218>
   82490:	00086488 	.word	0x00086488
   82494:	7fefffff 	.word	0x7fefffff
   82498:	00086468 	.word	0x00086468
   8249c:	00086464 	.word	0x00086464
   824a0:	00086474 	.word	0x00086474
   824a4:	9c0e      	ldr	r4, [sp, #56]	; 0x38
   824a6:	3407      	adds	r4, #7
   824a8:	f024 0307 	bic.w	r3, r4, #7
   824ac:	f103 0208 	add.w	r2, r3, #8
   824b0:	e9d3 4500 	ldrd	r4, r5, [r3]
   824b4:	920e      	str	r2, [sp, #56]	; 0x38
   824b6:	2301      	movs	r3, #1
   824b8:	e4b4      	b.n	81e24 <_vfprintf_r+0x218>
   824ba:	2a00      	cmp	r2, #0
   824bc:	f040 868b 	bne.w	831d6 <_vfprintf_r+0x15ca>
   824c0:	b326      	cbz	r6, 8250c <_vfprintf_r+0x900>
   824c2:	2300      	movs	r3, #0
   824c4:	2201      	movs	r2, #1
   824c6:	469a      	mov	sl, r3
   824c8:	9207      	str	r2, [sp, #28]
   824ca:	f88d 6098 	strb.w	r6, [sp, #152]	; 0x98
   824ce:	f8cd b018 	str.w	fp, [sp, #24]
   824d2:	f88d 306f 	strb.w	r3, [sp, #111]	; 0x6f
   824d6:	9309      	str	r3, [sp, #36]	; 0x24
   824d8:	9310      	str	r3, [sp, #64]	; 0x40
   824da:	920d      	str	r2, [sp, #52]	; 0x34
   824dc:	af26      	add	r7, sp, #152	; 0x98
   824de:	e4cd      	b.n	81e7c <_vfprintf_r+0x270>
   824e0:	9a0e      	ldr	r2, [sp, #56]	; 0x38
   824e2:	6813      	ldr	r3, [r2, #0]
   824e4:	3204      	adds	r2, #4
   824e6:	920e      	str	r2, [sp, #56]	; 0x38
   824e8:	9a0b      	ldr	r2, [sp, #44]	; 0x2c
   824ea:	601a      	str	r2, [r3, #0]
   824ec:	f7ff bbda 	b.w	81ca4 <_vfprintf_r+0x98>
   824f0:	aa23      	add	r2, sp, #140	; 0x8c
   824f2:	990a      	ldr	r1, [sp, #40]	; 0x28
   824f4:	9808      	ldr	r0, [sp, #32]
   824f6:	f003 fcb3 	bl	85e60 <__sprint_r>
   824fa:	2800      	cmp	r0, #0
   824fc:	f040 8120 	bne.w	82740 <_vfprintf_r+0xb34>
   82500:	f89d a06f 	ldrb.w	sl, [sp, #111]	; 0x6f
   82504:	f10d 08c0 	add.w	r8, sp, #192	; 0xc0
   82508:	9c25      	ldr	r4, [sp, #148]	; 0x94
   8250a:	e50a      	b.n	81f22 <_vfprintf_r+0x316>
   8250c:	9b25      	ldr	r3, [sp, #148]	; 0x94
   8250e:	f8dd a028 	ldr.w	sl, [sp, #40]	; 0x28
   82512:	2b00      	cmp	r3, #0
   82514:	f040 85b7 	bne.w	83086 <_vfprintf_r+0x147a>
   82518:	2300      	movs	r3, #0
   8251a:	9324      	str	r3, [sp, #144]	; 0x90
   8251c:	f8da 3064 	ldr.w	r3, [sl, #100]	; 0x64
   82520:	f013 0f01 	tst.w	r3, #1
   82524:	f8ba 300c 	ldrh.w	r3, [sl, #12]
   82528:	d102      	bne.n	82530 <_vfprintf_r+0x924>
   8252a:	059a      	lsls	r2, r3, #22
   8252c:	f140 826f 	bpl.w	82a0e <_vfprintf_r+0xe02>
   82530:	065b      	lsls	r3, r3, #25
   82532:	f53f add5 	bmi.w	820e0 <_vfprintf_r+0x4d4>
   82536:	980b      	ldr	r0, [sp, #44]	; 0x2c
   82538:	b041      	add	sp, #260	; 0x104
   8253a:	e8bd 8ff0 	ldmia.w	sp!, {r4, r5, r6, r7, r8, r9, sl, fp, pc}
   8253e:	2e65      	cmp	r6, #101	; 0x65
   82540:	f340 80a4 	ble.w	8268c <_vfprintf_r+0xa80>
   82544:	9a16      	ldr	r2, [sp, #88]	; 0x58
   82546:	9813      	ldr	r0, [sp, #76]	; 0x4c
   82548:	9b17      	ldr	r3, [sp, #92]	; 0x5c
   8254a:	9912      	ldr	r1, [sp, #72]	; 0x48
   8254c:	f7ff f9fe 	bl	8194c <__aeabi_dcmpeq>
   82550:	2800      	cmp	r0, #0
   82552:	f000 8194 	beq.w	8287e <_vfprintf_r+0xc72>
   82556:	2101      	movs	r1, #1
   82558:	9b24      	ldr	r3, [sp, #144]	; 0x90
   8255a:	4ab4      	ldr	r2, [pc, #720]	; (8282c <_vfprintf_r+0xc20>)
   8255c:	440b      	add	r3, r1
   8255e:	440c      	add	r4, r1
   82560:	2b07      	cmp	r3, #7
   82562:	9425      	str	r4, [sp, #148]	; 0x94
   82564:	9324      	str	r3, [sp, #144]	; 0x90
   82566:	f8c8 1004 	str.w	r1, [r8, #4]
   8256a:	f8c8 2000 	str.w	r2, [r8]
   8256e:	f300 8400 	bgt.w	82d72 <_vfprintf_r+0x1166>
   82572:	f108 0808 	add.w	r8, r8, #8
   82576:	9b1d      	ldr	r3, [sp, #116]	; 0x74
   82578:	9a11      	ldr	r2, [sp, #68]	; 0x44
   8257a:	9c25      	ldr	r4, [sp, #148]	; 0x94
   8257c:	4293      	cmp	r3, r2
   8257e:	db03      	blt.n	82588 <_vfprintf_r+0x97c>
   82580:	9b06      	ldr	r3, [sp, #24]
   82582:	07df      	lsls	r7, r3, #31
   82584:	f57f ad4d 	bpl.w	82022 <_vfprintf_r+0x416>
   82588:	9b24      	ldr	r3, [sp, #144]	; 0x90
   8258a:	9914      	ldr	r1, [sp, #80]	; 0x50
   8258c:	3301      	adds	r3, #1
   8258e:	9a15      	ldr	r2, [sp, #84]	; 0x54
   82590:	440c      	add	r4, r1
   82592:	2b07      	cmp	r3, #7
   82594:	f8c8 2000 	str.w	r2, [r8]
   82598:	f8c8 1004 	str.w	r1, [r8, #4]
   8259c:	9425      	str	r4, [sp, #148]	; 0x94
   8259e:	9324      	str	r3, [sp, #144]	; 0x90
   825a0:	f300 8414 	bgt.w	82dcc <_vfprintf_r+0x11c0>
   825a4:	f108 0808 	add.w	r8, r8, #8
   825a8:	9b11      	ldr	r3, [sp, #68]	; 0x44
   825aa:	1e5e      	subs	r6, r3, #1
   825ac:	2e00      	cmp	r6, #0
   825ae:	f77f ad38 	ble.w	82022 <_vfprintf_r+0x416>
   825b2:	2e10      	cmp	r6, #16
   825b4:	f340 81f7 	ble.w	829a6 <_vfprintf_r+0xd9a>
   825b8:	2710      	movs	r7, #16
   825ba:	9b24      	ldr	r3, [sp, #144]	; 0x90
   825bc:	4d9c      	ldr	r5, [pc, #624]	; (82830 <_vfprintf_r+0xc24>)
   825be:	f8dd a020 	ldr.w	sl, [sp, #32]
   825c2:	f8dd b028 	ldr.w	fp, [sp, #40]	; 0x28
   825c6:	e005      	b.n	825d4 <_vfprintf_r+0x9c8>
   825c8:	f108 0808 	add.w	r8, r8, #8
   825cc:	3e10      	subs	r6, #16
   825ce:	2e10      	cmp	r6, #16
   825d0:	f340 81eb 	ble.w	829aa <_vfprintf_r+0xd9e>
   825d4:	3301      	adds	r3, #1
   825d6:	3410      	adds	r4, #16
   825d8:	2b07      	cmp	r3, #7
   825da:	9425      	str	r4, [sp, #148]	; 0x94
   825dc:	9324      	str	r3, [sp, #144]	; 0x90
   825de:	e888 00a0 	stmia.w	r8, {r5, r7}
   825e2:	ddf1      	ble.n	825c8 <_vfprintf_r+0x9bc>
   825e4:	aa23      	add	r2, sp, #140	; 0x8c
   825e6:	4659      	mov	r1, fp
   825e8:	4650      	mov	r0, sl
   825ea:	f003 fc39 	bl	85e60 <__sprint_r>
   825ee:	2800      	cmp	r0, #0
   825f0:	f040 83e9 	bne.w	82dc6 <_vfprintf_r+0x11ba>
   825f4:	f10d 08c0 	add.w	r8, sp, #192	; 0xc0
   825f8:	9c25      	ldr	r4, [sp, #148]	; 0x94
   825fa:	9b24      	ldr	r3, [sp, #144]	; 0x90
   825fc:	e7e6      	b.n	825cc <_vfprintf_r+0x9c0>
   825fe:	46aa      	mov	sl, r5
   82600:	e78c      	b.n	8251c <_vfprintf_r+0x910>
   82602:	9b0c      	ldr	r3, [sp, #48]	; 0x30
   82604:	9a07      	ldr	r2, [sp, #28]
   82606:	eba3 0a02 	sub.w	sl, r3, r2
   8260a:	f1ba 0f00 	cmp.w	sl, #0
   8260e:	f77f acb1 	ble.w	81f74 <_vfprintf_r+0x368>
   82612:	f1ba 0f10 	cmp.w	sl, #16
   82616:	f340 84a7 	ble.w	82f68 <_vfprintf_r+0x135c>
   8261a:	4d85      	ldr	r5, [pc, #532]	; (82830 <_vfprintf_r+0xc24>)
   8261c:	4642      	mov	r2, r8
   8261e:	4621      	mov	r1, r4
   82620:	46b0      	mov	r8, r6
   82622:	f04f 0b10 	mov.w	fp, #16
   82626:	462e      	mov	r6, r5
   82628:	9b24      	ldr	r3, [sp, #144]	; 0x90
   8262a:	9c08      	ldr	r4, [sp, #32]
   8262c:	9d0a      	ldr	r5, [sp, #40]	; 0x28
   8262e:	e006      	b.n	8263e <_vfprintf_r+0xa32>
   82630:	f1aa 0a10 	sub.w	sl, sl, #16
   82634:	f1ba 0f10 	cmp.w	sl, #16
   82638:	f102 0208 	add.w	r2, r2, #8
   8263c:	dd16      	ble.n	8266c <_vfprintf_r+0xa60>
   8263e:	3301      	adds	r3, #1
   82640:	3110      	adds	r1, #16
   82642:	2b07      	cmp	r3, #7
   82644:	9125      	str	r1, [sp, #148]	; 0x94
   82646:	9324      	str	r3, [sp, #144]	; 0x90
   82648:	e882 0840 	stmia.w	r2, {r6, fp}
   8264c:	ddf0      	ble.n	82630 <_vfprintf_r+0xa24>
   8264e:	aa23      	add	r2, sp, #140	; 0x8c
   82650:	4629      	mov	r1, r5
   82652:	4620      	mov	r0, r4
   82654:	f003 fc04 	bl	85e60 <__sprint_r>
   82658:	2800      	cmp	r0, #0
   8265a:	d1d0      	bne.n	825fe <_vfprintf_r+0x9f2>
   8265c:	f1aa 0a10 	sub.w	sl, sl, #16
   82660:	f1ba 0f10 	cmp.w	sl, #16
   82664:	aa30      	add	r2, sp, #192	; 0xc0
   82666:	9925      	ldr	r1, [sp, #148]	; 0x94
   82668:	9b24      	ldr	r3, [sp, #144]	; 0x90
   8266a:	dce8      	bgt.n	8263e <_vfprintf_r+0xa32>
   8266c:	4635      	mov	r5, r6
   8266e:	460c      	mov	r4, r1
   82670:	4646      	mov	r6, r8
   82672:	4690      	mov	r8, r2
   82674:	3301      	adds	r3, #1
   82676:	4454      	add	r4, sl
   82678:	2b07      	cmp	r3, #7
   8267a:	9425      	str	r4, [sp, #148]	; 0x94
   8267c:	9324      	str	r3, [sp, #144]	; 0x90
   8267e:	e888 0420 	stmia.w	r8, {r5, sl}
   82682:	f300 82a6 	bgt.w	82bd2 <_vfprintf_r+0xfc6>
   82686:	f108 0808 	add.w	r8, r8, #8
   8268a:	e473      	b.n	81f74 <_vfprintf_r+0x368>
   8268c:	9b11      	ldr	r3, [sp, #68]	; 0x44
   8268e:	2b01      	cmp	r3, #1
   82690:	f340 8233 	ble.w	82afa <_vfprintf_r+0xeee>
   82694:	2301      	movs	r3, #1
   82696:	9e24      	ldr	r6, [sp, #144]	; 0x90
   82698:	441c      	add	r4, r3
   8269a:	441e      	add	r6, r3
   8269c:	2e07      	cmp	r6, #7
   8269e:	9425      	str	r4, [sp, #148]	; 0x94
   826a0:	f8c8 7000 	str.w	r7, [r8]
   826a4:	9624      	str	r6, [sp, #144]	; 0x90
   826a6:	f8c8 3004 	str.w	r3, [r8, #4]
   826aa:	f300 8244 	bgt.w	82b36 <_vfprintf_r+0xf2a>
   826ae:	f108 0808 	add.w	r8, r8, #8
   826b2:	9a14      	ldr	r2, [sp, #80]	; 0x50
   826b4:	3601      	adds	r6, #1
   826b6:	9b15      	ldr	r3, [sp, #84]	; 0x54
   826b8:	4414      	add	r4, r2
   826ba:	2e07      	cmp	r6, #7
   826bc:	9425      	str	r4, [sp, #148]	; 0x94
   826be:	9624      	str	r6, [sp, #144]	; 0x90
   826c0:	f8c8 3000 	str.w	r3, [r8]
   826c4:	f8c8 2004 	str.w	r2, [r8, #4]
   826c8:	f300 824d 	bgt.w	82b66 <_vfprintf_r+0xf5a>
   826cc:	f108 0808 	add.w	r8, r8, #8
   826d0:	9b17      	ldr	r3, [sp, #92]	; 0x5c
   826d2:	9a16      	ldr	r2, [sp, #88]	; 0x58
   826d4:	9813      	ldr	r0, [sp, #76]	; 0x4c
   826d6:	9912      	ldr	r1, [sp, #72]	; 0x48
   826d8:	f7ff f938 	bl	8194c <__aeabi_dcmpeq>
   826dc:	9b11      	ldr	r3, [sp, #68]	; 0x44
   826de:	2800      	cmp	r0, #0
   826e0:	f040 8139 	bne.w	82956 <_vfprintf_r+0xd4a>
   826e4:	3b01      	subs	r3, #1
   826e6:	3601      	adds	r6, #1
   826e8:	3701      	adds	r7, #1
   826ea:	441c      	add	r4, r3
   826ec:	2e07      	cmp	r6, #7
   826ee:	f8c8 7000 	str.w	r7, [r8]
   826f2:	9624      	str	r6, [sp, #144]	; 0x90
   826f4:	9425      	str	r4, [sp, #148]	; 0x94
   826f6:	f8c8 3004 	str.w	r3, [r8, #4]
   826fa:	f300 824b 	bgt.w	82b94 <_vfprintf_r+0xf88>
   826fe:	f108 0808 	add.w	r8, r8, #8
   82702:	9a19      	ldr	r2, [sp, #100]	; 0x64
   82704:	3601      	adds	r6, #1
   82706:	4414      	add	r4, r2
   82708:	ab1f      	add	r3, sp, #124	; 0x7c
   8270a:	2e07      	cmp	r6, #7
   8270c:	9425      	str	r4, [sp, #148]	; 0x94
   8270e:	9624      	str	r6, [sp, #144]	; 0x90
   82710:	f8c8 2004 	str.w	r2, [r8, #4]
   82714:	f8c8 3000 	str.w	r3, [r8]
   82718:	f77f ac81 	ble.w	8201e <_vfprintf_r+0x412>
   8271c:	aa23      	add	r2, sp, #140	; 0x8c
   8271e:	990a      	ldr	r1, [sp, #40]	; 0x28
   82720:	9808      	ldr	r0, [sp, #32]
   82722:	f003 fb9d 	bl	85e60 <__sprint_r>
   82726:	b958      	cbnz	r0, 82740 <_vfprintf_r+0xb34>
   82728:	f10d 08c0 	add.w	r8, sp, #192	; 0xc0
   8272c:	9c25      	ldr	r4, [sp, #148]	; 0x94
   8272e:	e478      	b.n	82022 <_vfprintf_r+0x416>
   82730:	aa23      	add	r2, sp, #140	; 0x8c
   82732:	990a      	ldr	r1, [sp, #40]	; 0x28
   82734:	9808      	ldr	r0, [sp, #32]
   82736:	f003 fb93 	bl	85e60 <__sprint_r>
   8273a:	2800      	cmp	r0, #0
   8273c:	f43f acbc 	beq.w	820b8 <_vfprintf_r+0x4ac>
   82740:	f8dd a028 	ldr.w	sl, [sp, #40]	; 0x28
   82744:	e6ea      	b.n	8251c <_vfprintf_r+0x910>
   82746:	f8dd b018 	ldr.w	fp, [sp, #24]
   8274a:	2b01      	cmp	r3, #1
   8274c:	f000 8155 	beq.w	829fa <_vfprintf_r+0xdee>
   82750:	2b02      	cmp	r3, #2
   82752:	d164      	bne.n	8281e <_vfprintf_r+0xc12>
   82754:	f8cd b018 	str.w	fp, [sp, #24]
   82758:	2400      	movs	r4, #0
   8275a:	2500      	movs	r5, #0
   8275c:	e58f      	b.n	8227e <_vfprintf_r+0x672>
   8275e:	aa23      	add	r2, sp, #140	; 0x8c
   82760:	990a      	ldr	r1, [sp, #40]	; 0x28
   82762:	9808      	ldr	r0, [sp, #32]
   82764:	f003 fb7c 	bl	85e60 <__sprint_r>
   82768:	2800      	cmp	r0, #0
   8276a:	d1e9      	bne.n	82740 <_vfprintf_r+0xb34>
   8276c:	f10d 08c0 	add.w	r8, sp, #192	; 0xc0
   82770:	9c25      	ldr	r4, [sp, #148]	; 0x94
   82772:	e443      	b.n	81ffc <_vfprintf_r+0x3f0>
   82774:	aa23      	add	r2, sp, #140	; 0x8c
   82776:	990a      	ldr	r1, [sp, #40]	; 0x28
   82778:	9808      	ldr	r0, [sp, #32]
   8277a:	f003 fb71 	bl	85e60 <__sprint_r>
   8277e:	2800      	cmp	r0, #0
   82780:	d1de      	bne.n	82740 <_vfprintf_r+0xb34>
   82782:	991d      	ldr	r1, [sp, #116]	; 0x74
   82784:	9c25      	ldr	r4, [sp, #148]	; 0x94
   82786:	f10d 08c0 	add.w	r8, sp, #192	; 0xc0
   8278a:	b929      	cbnz	r1, 82798 <_vfprintf_r+0xb8c>
   8278c:	9b11      	ldr	r3, [sp, #68]	; 0x44
   8278e:	b91b      	cbnz	r3, 82798 <_vfprintf_r+0xb8c>
   82790:	9b06      	ldr	r3, [sp, #24]
   82792:	07de      	lsls	r6, r3, #31
   82794:	f57f ac45 	bpl.w	82022 <_vfprintf_r+0x416>
   82798:	9814      	ldr	r0, [sp, #80]	; 0x50
   8279a:	9b24      	ldr	r3, [sp, #144]	; 0x90
   8279c:	4602      	mov	r2, r0
   8279e:	3301      	adds	r3, #1
   827a0:	4422      	add	r2, r4
   827a2:	9c15      	ldr	r4, [sp, #84]	; 0x54
   827a4:	2b07      	cmp	r3, #7
   827a6:	9225      	str	r2, [sp, #148]	; 0x94
   827a8:	f8c8 4000 	str.w	r4, [r8]
   827ac:	f8c8 0004 	str.w	r0, [r8, #4]
   827b0:	9324      	str	r3, [sp, #144]	; 0x90
   827b2:	f300 8459 	bgt.w	83068 <_vfprintf_r+0x145c>
   827b6:	f108 0808 	add.w	r8, r8, #8
   827ba:	2900      	cmp	r1, #0
   827bc:	f2c0 8425 	blt.w	8300a <_vfprintf_r+0x13fe>
   827c0:	9911      	ldr	r1, [sp, #68]	; 0x44
   827c2:	3301      	adds	r3, #1
   827c4:	188c      	adds	r4, r1, r2
   827c6:	2b07      	cmp	r3, #7
   827c8:	9425      	str	r4, [sp, #148]	; 0x94
   827ca:	9324      	str	r3, [sp, #144]	; 0x90
   827cc:	f8c8 7000 	str.w	r7, [r8]
   827d0:	f8c8 1004 	str.w	r1, [r8, #4]
   827d4:	f77f ac23 	ble.w	8201e <_vfprintf_r+0x412>
   827d8:	aa23      	add	r2, sp, #140	; 0x8c
   827da:	990a      	ldr	r1, [sp, #40]	; 0x28
   827dc:	9808      	ldr	r0, [sp, #32]
   827de:	f003 fb3f 	bl	85e60 <__sprint_r>
   827e2:	2800      	cmp	r0, #0
   827e4:	d1ac      	bne.n	82740 <_vfprintf_r+0xb34>
   827e6:	9c25      	ldr	r4, [sp, #148]	; 0x94
   827e8:	f10d 08c0 	add.w	r8, sp, #192	; 0xc0
   827ec:	e419      	b.n	82022 <_vfprintf_r+0x416>
   827ee:	aa23      	add	r2, sp, #140	; 0x8c
   827f0:	990a      	ldr	r1, [sp, #40]	; 0x28
   827f2:	9808      	ldr	r0, [sp, #32]
   827f4:	f003 fb34 	bl	85e60 <__sprint_r>
   827f8:	2800      	cmp	r0, #0
   827fa:	d1a1      	bne.n	82740 <_vfprintf_r+0xb34>
   827fc:	f10d 08c0 	add.w	r8, sp, #192	; 0xc0
   82800:	9c25      	ldr	r4, [sp, #148]	; 0x94
   82802:	f7ff bba2 	b.w	81f4a <_vfprintf_r+0x33e>
   82806:	aa23      	add	r2, sp, #140	; 0x8c
   82808:	990a      	ldr	r1, [sp, #40]	; 0x28
   8280a:	9808      	ldr	r0, [sp, #32]
   8280c:	f003 fb28 	bl	85e60 <__sprint_r>
   82810:	2800      	cmp	r0, #0
   82812:	d195      	bne.n	82740 <_vfprintf_r+0xb34>
   82814:	f10d 08c0 	add.w	r8, sp, #192	; 0xc0
   82818:	9c25      	ldr	r4, [sp, #148]	; 0x94
   8281a:	f7ff bba8 	b.w	81f6e <_vfprintf_r+0x362>
   8281e:	2400      	movs	r4, #0
   82820:	2500      	movs	r5, #0
   82822:	f8cd b018 	str.w	fp, [sp, #24]
   82826:	a930      	add	r1, sp, #192	; 0xc0
   82828:	e005      	b.n	82836 <_vfprintf_r+0xc2a>
   8282a:	bf00      	nop
   8282c:	000864a4 	.word	0x000864a4
   82830:	000864b8 	.word	0x000864b8
   82834:	4639      	mov	r1, r7
   82836:	08e2      	lsrs	r2, r4, #3
   82838:	ea42 7245 	orr.w	r2, r2, r5, lsl #29
   8283c:	08e8      	lsrs	r0, r5, #3
   8283e:	f004 0307 	and.w	r3, r4, #7
   82842:	4605      	mov	r5, r0
   82844:	4614      	mov	r4, r2
   82846:	3330      	adds	r3, #48	; 0x30
   82848:	ea54 0205 	orrs.w	r2, r4, r5
   8284c:	f801 3c01 	strb.w	r3, [r1, #-1]
   82850:	f101 37ff 	add.w	r7, r1, #4294967295
   82854:	d1ee      	bne.n	82834 <_vfprintf_r+0xc28>
   82856:	9a06      	ldr	r2, [sp, #24]
   82858:	07d2      	lsls	r2, r2, #31
   8285a:	f57f ad20 	bpl.w	8229e <_vfprintf_r+0x692>
   8285e:	2b30      	cmp	r3, #48	; 0x30
   82860:	f43f ad1d 	beq.w	8229e <_vfprintf_r+0x692>
   82864:	2330      	movs	r3, #48	; 0x30
   82866:	3902      	subs	r1, #2
   82868:	f807 3c01 	strb.w	r3, [r7, #-1]
   8286c:	ab30      	add	r3, sp, #192	; 0xc0
   8286e:	1a5b      	subs	r3, r3, r1
   82870:	930d      	str	r3, [sp, #52]	; 0x34
   82872:	460f      	mov	r7, r1
   82874:	f7ff baf4 	b.w	81e60 <_vfprintf_r+0x254>
   82878:	2302      	movs	r3, #2
   8287a:	f7ff bad3 	b.w	81e24 <_vfprintf_r+0x218>
   8287e:	991d      	ldr	r1, [sp, #116]	; 0x74
   82880:	2900      	cmp	r1, #0
   82882:	f340 8282 	ble.w	82d8a <_vfprintf_r+0x117e>
   82886:	9b10      	ldr	r3, [sp, #64]	; 0x40
   82888:	9a11      	ldr	r2, [sp, #68]	; 0x44
   8288a:	4293      	cmp	r3, r2
   8288c:	bfa8      	it	ge
   8288e:	4613      	movge	r3, r2
   82890:	2b00      	cmp	r3, #0
   82892:	461e      	mov	r6, r3
   82894:	dd0d      	ble.n	828b2 <_vfprintf_r+0xca6>
   82896:	9b24      	ldr	r3, [sp, #144]	; 0x90
   82898:	4434      	add	r4, r6
   8289a:	3301      	adds	r3, #1
   8289c:	2b07      	cmp	r3, #7
   8289e:	9425      	str	r4, [sp, #148]	; 0x94
   828a0:	f8c8 7000 	str.w	r7, [r8]
   828a4:	f8c8 6004 	str.w	r6, [r8, #4]
   828a8:	9324      	str	r3, [sp, #144]	; 0x90
   828aa:	f300 8314 	bgt.w	82ed6 <_vfprintf_r+0x12ca>
   828ae:	f108 0808 	add.w	r8, r8, #8
   828b2:	9b10      	ldr	r3, [sp, #64]	; 0x40
   828b4:	2e00      	cmp	r6, #0
   828b6:	bfa8      	it	ge
   828b8:	1b9b      	subge	r3, r3, r6
   828ba:	2b00      	cmp	r3, #0
   828bc:	461e      	mov	r6, r3
   828be:	f340 80c2 	ble.w	82a46 <_vfprintf_r+0xe3a>
   828c2:	2b10      	cmp	r3, #16
   828c4:	f340 845a 	ble.w	8317c <_vfprintf_r+0x1570>
   828c8:	4622      	mov	r2, r4
   828ca:	f04f 0a10 	mov.w	sl, #16
   828ce:	9b24      	ldr	r3, [sp, #144]	; 0x90
   828d0:	4dbd      	ldr	r5, [pc, #756]	; (82bc8 <_vfprintf_r+0xfbc>)
   828d2:	f8dd b020 	ldr.w	fp, [sp, #32]
   828d6:	9c0a      	ldr	r4, [sp, #40]	; 0x28
   828d8:	e005      	b.n	828e6 <_vfprintf_r+0xcda>
   828da:	f108 0808 	add.w	r8, r8, #8
   828de:	3e10      	subs	r6, #16
   828e0:	2e10      	cmp	r6, #16
   828e2:	f340 809b 	ble.w	82a1c <_vfprintf_r+0xe10>
   828e6:	3301      	adds	r3, #1
   828e8:	3210      	adds	r2, #16
   828ea:	2b07      	cmp	r3, #7
   828ec:	9225      	str	r2, [sp, #148]	; 0x94
   828ee:	9324      	str	r3, [sp, #144]	; 0x90
   828f0:	e888 0420 	stmia.w	r8, {r5, sl}
   828f4:	ddf1      	ble.n	828da <_vfprintf_r+0xcce>
   828f6:	aa23      	add	r2, sp, #140	; 0x8c
   828f8:	4621      	mov	r1, r4
   828fa:	4658      	mov	r0, fp
   828fc:	f003 fab0 	bl	85e60 <__sprint_r>
   82900:	2800      	cmp	r0, #0
   82902:	f040 8315 	bne.w	82f30 <_vfprintf_r+0x1324>
   82906:	f10d 08c0 	add.w	r8, sp, #192	; 0xc0
   8290a:	9a25      	ldr	r2, [sp, #148]	; 0x94
   8290c:	9b24      	ldr	r3, [sp, #144]	; 0x90
   8290e:	e7e6      	b.n	828de <_vfprintf_r+0xcd2>
   82910:	2d00      	cmp	r5, #0
   82912:	bf08      	it	eq
   82914:	2c0a      	cmpeq	r4, #10
   82916:	d36e      	bcc.n	829f6 <_vfprintf_r+0xdea>
   82918:	af30      	add	r7, sp, #192	; 0xc0
   8291a:	4620      	mov	r0, r4
   8291c:	4629      	mov	r1, r5
   8291e:	220a      	movs	r2, #10
   82920:	2300      	movs	r3, #0
   82922:	f7fe fdf9 	bl	81518 <__aeabi_uldivmod>
   82926:	3230      	adds	r2, #48	; 0x30
   82928:	f807 2d01 	strb.w	r2, [r7, #-1]!
   8292c:	4620      	mov	r0, r4
   8292e:	4629      	mov	r1, r5
   82930:	2300      	movs	r3, #0
   82932:	220a      	movs	r2, #10
   82934:	f7fe fdf0 	bl	81518 <__aeabi_uldivmod>
   82938:	4604      	mov	r4, r0
   8293a:	460d      	mov	r5, r1
   8293c:	ea54 0305 	orrs.w	r3, r4, r5
   82940:	d1eb      	bne.n	8291a <_vfprintf_r+0xd0e>
   82942:	ab30      	add	r3, sp, #192	; 0xc0
   82944:	1bdb      	subs	r3, r3, r7
   82946:	930d      	str	r3, [sp, #52]	; 0x34
   82948:	f7ff ba8a 	b.w	81e60 <_vfprintf_r+0x254>
   8294c:	9b09      	ldr	r3, [sp, #36]	; 0x24
   8294e:	af30      	add	r7, sp, #192	; 0xc0
   82950:	930d      	str	r3, [sp, #52]	; 0x34
   82952:	f7ff ba85 	b.w	81e60 <_vfprintf_r+0x254>
   82956:	1e5f      	subs	r7, r3, #1
   82958:	2f00      	cmp	r7, #0
   8295a:	f77f aed2 	ble.w	82702 <_vfprintf_r+0xaf6>
   8295e:	2f10      	cmp	r7, #16
   82960:	f340 810e 	ble.w	82b80 <_vfprintf_r+0xf74>
   82964:	f04f 0a10 	mov.w	sl, #16
   82968:	4d97      	ldr	r5, [pc, #604]	; (82bc8 <_vfprintf_r+0xfbc>)
   8296a:	f8dd b020 	ldr.w	fp, [sp, #32]
   8296e:	e005      	b.n	8297c <_vfprintf_r+0xd70>
   82970:	f108 0808 	add.w	r8, r8, #8
   82974:	3f10      	subs	r7, #16
   82976:	2f10      	cmp	r7, #16
   82978:	f340 8103 	ble.w	82b82 <_vfprintf_r+0xf76>
   8297c:	3601      	adds	r6, #1
   8297e:	3410      	adds	r4, #16
   82980:	2e07      	cmp	r6, #7
   82982:	9425      	str	r4, [sp, #148]	; 0x94
   82984:	9624      	str	r6, [sp, #144]	; 0x90
   82986:	e888 0420 	stmia.w	r8, {r5, sl}
   8298a:	ddf1      	ble.n	82970 <_vfprintf_r+0xd64>
   8298c:	aa23      	add	r2, sp, #140	; 0x8c
   8298e:	990a      	ldr	r1, [sp, #40]	; 0x28
   82990:	4658      	mov	r0, fp
   82992:	f003 fa65 	bl	85e60 <__sprint_r>
   82996:	2800      	cmp	r0, #0
   82998:	f47f aed2 	bne.w	82740 <_vfprintf_r+0xb34>
   8299c:	f10d 08c0 	add.w	r8, sp, #192	; 0xc0
   829a0:	9c25      	ldr	r4, [sp, #148]	; 0x94
   829a2:	9e24      	ldr	r6, [sp, #144]	; 0x90
   829a4:	e7e6      	b.n	82974 <_vfprintf_r+0xd68>
   829a6:	9b24      	ldr	r3, [sp, #144]	; 0x90
   829a8:	4d87      	ldr	r5, [pc, #540]	; (82bc8 <_vfprintf_r+0xfbc>)
   829aa:	3301      	adds	r3, #1
   829ac:	4434      	add	r4, r6
   829ae:	2b07      	cmp	r3, #7
   829b0:	9425      	str	r4, [sp, #148]	; 0x94
   829b2:	9324      	str	r3, [sp, #144]	; 0x90
   829b4:	e888 0060 	stmia.w	r8, {r5, r6}
   829b8:	f77f ab31 	ble.w	8201e <_vfprintf_r+0x412>
   829bc:	e70c      	b.n	827d8 <_vfprintf_r+0xbcc>
   829be:	3204      	adds	r2, #4
   829c0:	681c      	ldr	r4, [r3, #0]
   829c2:	2500      	movs	r5, #0
   829c4:	2301      	movs	r3, #1
   829c6:	920e      	str	r2, [sp, #56]	; 0x38
   829c8:	f7ff ba2c 	b.w	81e24 <_vfprintf_r+0x218>
   829cc:	990e      	ldr	r1, [sp, #56]	; 0x38
   829ce:	2500      	movs	r5, #0
   829d0:	460a      	mov	r2, r1
   829d2:	3204      	adds	r2, #4
   829d4:	680c      	ldr	r4, [r1, #0]
   829d6:	920e      	str	r2, [sp, #56]	; 0x38
   829d8:	f7ff ba24 	b.w	81e24 <_vfprintf_r+0x218>
   829dc:	681c      	ldr	r4, [r3, #0]
   829de:	3304      	adds	r3, #4
   829e0:	930e      	str	r3, [sp, #56]	; 0x38
   829e2:	2500      	movs	r5, #0
   829e4:	f7ff bbe5 	b.w	821b2 <_vfprintf_r+0x5a6>
   829e8:	681c      	ldr	r4, [r3, #0]
   829ea:	3304      	adds	r3, #4
   829ec:	17e5      	asrs	r5, r4, #31
   829ee:	930e      	str	r3, [sp, #56]	; 0x38
   829f0:	4622      	mov	r2, r4
   829f2:	462b      	mov	r3, r5
   829f4:	e42a      	b.n	8224c <_vfprintf_r+0x640>
   829f6:	f8dd b018 	ldr.w	fp, [sp, #24]
   829fa:	2301      	movs	r3, #1
   829fc:	af40      	add	r7, sp, #256	; 0x100
   829fe:	3430      	adds	r4, #48	; 0x30
   82a00:	f8cd b018 	str.w	fp, [sp, #24]
   82a04:	f807 4d41 	strb.w	r4, [r7, #-65]!
   82a08:	930d      	str	r3, [sp, #52]	; 0x34
   82a0a:	f7ff ba29 	b.w	81e60 <_vfprintf_r+0x254>
   82a0e:	f8da 0058 	ldr.w	r0, [sl, #88]	; 0x58
   82a12:	f002 f895 	bl	84b40 <__retarget_lock_release_recursive>
   82a16:	f8ba 300c 	ldrh.w	r3, [sl, #12]
   82a1a:	e589      	b.n	82530 <_vfprintf_r+0x924>
   82a1c:	4614      	mov	r4, r2
   82a1e:	3301      	adds	r3, #1
   82a20:	4434      	add	r4, r6
   82a22:	2b07      	cmp	r3, #7
   82a24:	9425      	str	r4, [sp, #148]	; 0x94
   82a26:	9324      	str	r3, [sp, #144]	; 0x90
   82a28:	e888 0060 	stmia.w	r8, {r5, r6}
   82a2c:	f340 8184 	ble.w	82d38 <_vfprintf_r+0x112c>
   82a30:	aa23      	add	r2, sp, #140	; 0x8c
   82a32:	990a      	ldr	r1, [sp, #40]	; 0x28
   82a34:	9808      	ldr	r0, [sp, #32]
   82a36:	f003 fa13 	bl	85e60 <__sprint_r>
   82a3a:	2800      	cmp	r0, #0
   82a3c:	f47f ae80 	bne.w	82740 <_vfprintf_r+0xb34>
   82a40:	9c25      	ldr	r4, [sp, #148]	; 0x94
   82a42:	f10d 08c0 	add.w	r8, sp, #192	; 0xc0
   82a46:	9b1d      	ldr	r3, [sp, #116]	; 0x74
   82a48:	9a11      	ldr	r2, [sp, #68]	; 0x44
   82a4a:	4293      	cmp	r3, r2
   82a4c:	f280 816f 	bge.w	82d2e <_vfprintf_r+0x1122>
   82a50:	9a24      	ldr	r2, [sp, #144]	; 0x90
   82a52:	9814      	ldr	r0, [sp, #80]	; 0x50
   82a54:	3201      	adds	r2, #1
   82a56:	9915      	ldr	r1, [sp, #84]	; 0x54
   82a58:	4404      	add	r4, r0
   82a5a:	2a07      	cmp	r2, #7
   82a5c:	9425      	str	r4, [sp, #148]	; 0x94
   82a5e:	f8c8 1000 	str.w	r1, [r8]
   82a62:	f8c8 0004 	str.w	r0, [r8, #4]
   82a66:	9224      	str	r2, [sp, #144]	; 0x90
   82a68:	f300 8169 	bgt.w	82d3e <_vfprintf_r+0x1132>
   82a6c:	f108 0808 	add.w	r8, r8, #8
   82a70:	9a11      	ldr	r2, [sp, #68]	; 0x44
   82a72:	9910      	ldr	r1, [sp, #64]	; 0x40
   82a74:	1ad3      	subs	r3, r2, r3
   82a76:	1a56      	subs	r6, r2, r1
   82a78:	429e      	cmp	r6, r3
   82a7a:	bfa8      	it	ge
   82a7c:	461e      	movge	r6, r3
   82a7e:	2e00      	cmp	r6, #0
   82a80:	dd0e      	ble.n	82aa0 <_vfprintf_r+0xe94>
   82a82:	9a24      	ldr	r2, [sp, #144]	; 0x90
   82a84:	440f      	add	r7, r1
   82a86:	3201      	adds	r2, #1
   82a88:	4434      	add	r4, r6
   82a8a:	2a07      	cmp	r2, #7
   82a8c:	f8c8 7000 	str.w	r7, [r8]
   82a90:	9425      	str	r4, [sp, #148]	; 0x94
   82a92:	f8c8 6004 	str.w	r6, [r8, #4]
   82a96:	9224      	str	r2, [sp, #144]	; 0x90
   82a98:	f300 823b 	bgt.w	82f12 <_vfprintf_r+0x1306>
   82a9c:	f108 0808 	add.w	r8, r8, #8
   82aa0:	2e00      	cmp	r6, #0
   82aa2:	bfb4      	ite	lt
   82aa4:	461e      	movlt	r6, r3
   82aa6:	1b9e      	subge	r6, r3, r6
   82aa8:	2e00      	cmp	r6, #0
   82aaa:	f77f aaba 	ble.w	82022 <_vfprintf_r+0x416>
   82aae:	2e10      	cmp	r6, #16
   82ab0:	f77f af79 	ble.w	829a6 <_vfprintf_r+0xd9a>
   82ab4:	2710      	movs	r7, #16
   82ab6:	9b24      	ldr	r3, [sp, #144]	; 0x90
   82ab8:	4d43      	ldr	r5, [pc, #268]	; (82bc8 <_vfprintf_r+0xfbc>)
   82aba:	f8dd a020 	ldr.w	sl, [sp, #32]
   82abe:	f8dd b028 	ldr.w	fp, [sp, #40]	; 0x28
   82ac2:	e005      	b.n	82ad0 <_vfprintf_r+0xec4>
   82ac4:	f108 0808 	add.w	r8, r8, #8
   82ac8:	3e10      	subs	r6, #16
   82aca:	2e10      	cmp	r6, #16
   82acc:	f77f af6d 	ble.w	829aa <_vfprintf_r+0xd9e>
   82ad0:	3301      	adds	r3, #1
   82ad2:	3410      	adds	r4, #16
   82ad4:	2b07      	cmp	r3, #7
   82ad6:	9425      	str	r4, [sp, #148]	; 0x94
   82ad8:	9324      	str	r3, [sp, #144]	; 0x90
   82ada:	e888 00a0 	stmia.w	r8, {r5, r7}
   82ade:	ddf1      	ble.n	82ac4 <_vfprintf_r+0xeb8>
   82ae0:	aa23      	add	r2, sp, #140	; 0x8c
   82ae2:	4659      	mov	r1, fp
   82ae4:	4650      	mov	r0, sl
   82ae6:	f003 f9bb 	bl	85e60 <__sprint_r>
   82aea:	2800      	cmp	r0, #0
   82aec:	f040 816b 	bne.w	82dc6 <_vfprintf_r+0x11ba>
   82af0:	f10d 08c0 	add.w	r8, sp, #192	; 0xc0
   82af4:	9c25      	ldr	r4, [sp, #148]	; 0x94
   82af6:	9b24      	ldr	r3, [sp, #144]	; 0x90
   82af8:	e7e6      	b.n	82ac8 <_vfprintf_r+0xebc>
   82afa:	9b06      	ldr	r3, [sp, #24]
   82afc:	07d8      	lsls	r0, r3, #31
   82afe:	f53f adc9 	bmi.w	82694 <_vfprintf_r+0xa88>
   82b02:	2301      	movs	r3, #1
   82b04:	9e24      	ldr	r6, [sp, #144]	; 0x90
   82b06:	441c      	add	r4, r3
   82b08:	441e      	add	r6, r3
   82b0a:	2e07      	cmp	r6, #7
   82b0c:	9425      	str	r4, [sp, #148]	; 0x94
   82b0e:	f8c8 7000 	str.w	r7, [r8]
   82b12:	9624      	str	r6, [sp, #144]	; 0x90
   82b14:	f8c8 3004 	str.w	r3, [r8, #4]
   82b18:	f77f adf1 	ble.w	826fe <_vfprintf_r+0xaf2>
   82b1c:	aa23      	add	r2, sp, #140	; 0x8c
   82b1e:	990a      	ldr	r1, [sp, #40]	; 0x28
   82b20:	9808      	ldr	r0, [sp, #32]
   82b22:	f003 f99d 	bl	85e60 <__sprint_r>
   82b26:	2800      	cmp	r0, #0
   82b28:	f47f ae0a 	bne.w	82740 <_vfprintf_r+0xb34>
   82b2c:	f10d 08c0 	add.w	r8, sp, #192	; 0xc0
   82b30:	9c25      	ldr	r4, [sp, #148]	; 0x94
   82b32:	9e24      	ldr	r6, [sp, #144]	; 0x90
   82b34:	e5e5      	b.n	82702 <_vfprintf_r+0xaf6>
   82b36:	aa23      	add	r2, sp, #140	; 0x8c
   82b38:	990a      	ldr	r1, [sp, #40]	; 0x28
   82b3a:	9808      	ldr	r0, [sp, #32]
   82b3c:	f003 f990 	bl	85e60 <__sprint_r>
   82b40:	2800      	cmp	r0, #0
   82b42:	f47f adfd 	bne.w	82740 <_vfprintf_r+0xb34>
   82b46:	f10d 08c0 	add.w	r8, sp, #192	; 0xc0
   82b4a:	9c25      	ldr	r4, [sp, #148]	; 0x94
   82b4c:	9e24      	ldr	r6, [sp, #144]	; 0x90
   82b4e:	e5b0      	b.n	826b2 <_vfprintf_r+0xaa6>
   82b50:	9c0e      	ldr	r4, [sp, #56]	; 0x38
   82b52:	3407      	adds	r4, #7
   82b54:	f024 0307 	bic.w	r3, r4, #7
   82b58:	f103 0208 	add.w	r2, r3, #8
   82b5c:	920e      	str	r2, [sp, #56]	; 0x38
   82b5e:	e9d3 4500 	ldrd	r4, r5, [r3]
   82b62:	f7ff bb26 	b.w	821b2 <_vfprintf_r+0x5a6>
   82b66:	aa23      	add	r2, sp, #140	; 0x8c
   82b68:	990a      	ldr	r1, [sp, #40]	; 0x28
   82b6a:	9808      	ldr	r0, [sp, #32]
   82b6c:	f003 f978 	bl	85e60 <__sprint_r>
   82b70:	2800      	cmp	r0, #0
   82b72:	f47f ade5 	bne.w	82740 <_vfprintf_r+0xb34>
   82b76:	f10d 08c0 	add.w	r8, sp, #192	; 0xc0
   82b7a:	9c25      	ldr	r4, [sp, #148]	; 0x94
   82b7c:	9e24      	ldr	r6, [sp, #144]	; 0x90
   82b7e:	e5a7      	b.n	826d0 <_vfprintf_r+0xac4>
   82b80:	4d11      	ldr	r5, [pc, #68]	; (82bc8 <_vfprintf_r+0xfbc>)
   82b82:	3601      	adds	r6, #1
   82b84:	443c      	add	r4, r7
   82b86:	2e07      	cmp	r6, #7
   82b88:	9425      	str	r4, [sp, #148]	; 0x94
   82b8a:	9624      	str	r6, [sp, #144]	; 0x90
   82b8c:	e888 00a0 	stmia.w	r8, {r5, r7}
   82b90:	f77f adb5 	ble.w	826fe <_vfprintf_r+0xaf2>
   82b94:	aa23      	add	r2, sp, #140	; 0x8c
   82b96:	990a      	ldr	r1, [sp, #40]	; 0x28
   82b98:	9808      	ldr	r0, [sp, #32]
   82b9a:	f003 f961 	bl	85e60 <__sprint_r>
   82b9e:	2800      	cmp	r0, #0
   82ba0:	f47f adce 	bne.w	82740 <_vfprintf_r+0xb34>
   82ba4:	9c25      	ldr	r4, [sp, #148]	; 0x94
   82ba6:	9e24      	ldr	r6, [sp, #144]	; 0x90
   82ba8:	f10d 08c0 	add.w	r8, sp, #192	; 0xc0
   82bac:	e5a9      	b.n	82702 <_vfprintf_r+0xaf6>
   82bae:	9c0e      	ldr	r4, [sp, #56]	; 0x38
   82bb0:	3407      	adds	r4, #7
   82bb2:	f024 0407 	bic.w	r4, r4, #7
   82bb6:	f104 0108 	add.w	r1, r4, #8
   82bba:	e9d4 2300 	ldrd	r2, r3, [r4]
   82bbe:	910e      	str	r1, [sp, #56]	; 0x38
   82bc0:	4614      	mov	r4, r2
   82bc2:	461d      	mov	r5, r3
   82bc4:	f7ff bb42 	b.w	8224c <_vfprintf_r+0x640>
   82bc8:	000864b8 	.word	0x000864b8
   82bcc:	af30      	add	r7, sp, #192	; 0xc0
   82bce:	f7ff b947 	b.w	81e60 <_vfprintf_r+0x254>
   82bd2:	aa23      	add	r2, sp, #140	; 0x8c
   82bd4:	990a      	ldr	r1, [sp, #40]	; 0x28
   82bd6:	9808      	ldr	r0, [sp, #32]
   82bd8:	f003 f942 	bl	85e60 <__sprint_r>
   82bdc:	2800      	cmp	r0, #0
   82bde:	f47f adaf 	bne.w	82740 <_vfprintf_r+0xb34>
   82be2:	f10d 08c0 	add.w	r8, sp, #192	; 0xc0
   82be6:	9c25      	ldr	r4, [sp, #148]	; 0x94
   82be8:	f7ff b9c4 	b.w	81f74 <_vfprintf_r+0x368>
   82bec:	f04f 0a2d 	mov.w	sl, #45	; 0x2d
   82bf0:	4264      	negs	r4, r4
   82bf2:	eb65 0545 	sbc.w	r5, r5, r5, lsl #1
   82bf6:	f88d a06f 	strb.w	sl, [sp, #111]	; 0x6f
   82bfa:	2301      	movs	r3, #1
   82bfc:	f7ff b916 	b.w	81e2c <_vfprintf_r+0x220>
   82c00:	9c13      	ldr	r4, [sp, #76]	; 0x4c
   82c02:	4622      	mov	r2, r4
   82c04:	4620      	mov	r0, r4
   82c06:	9c12      	ldr	r4, [sp, #72]	; 0x48
   82c08:	4623      	mov	r3, r4
   82c0a:	4621      	mov	r1, r4
   82c0c:	f003 fbd2 	bl	863b4 <__aeabi_dcmpun>
   82c10:	2800      	cmp	r0, #0
   82c12:	f040 827d 	bne.w	83110 <_vfprintf_r+0x1504>
   82c16:	9b09      	ldr	r3, [sp, #36]	; 0x24
   82c18:	3301      	adds	r3, #1
   82c1a:	f026 0320 	bic.w	r3, r6, #32
   82c1e:	930d      	str	r3, [sp, #52]	; 0x34
   82c20:	f000 80a0 	beq.w	82d64 <_vfprintf_r+0x1158>
   82c24:	2b47      	cmp	r3, #71	; 0x47
   82c26:	d104      	bne.n	82c32 <_vfprintf_r+0x1026>
   82c28:	9b09      	ldr	r3, [sp, #36]	; 0x24
   82c2a:	2b00      	cmp	r3, #0
   82c2c:	bf08      	it	eq
   82c2e:	2301      	moveq	r3, #1
   82c30:	9309      	str	r3, [sp, #36]	; 0x24
   82c32:	f44b 7380 	orr.w	r3, fp, #256	; 0x100
   82c36:	9306      	str	r3, [sp, #24]
   82c38:	9b12      	ldr	r3, [sp, #72]	; 0x48
   82c3a:	f1b3 0a00 	subs.w	sl, r3, #0
   82c3e:	9b13      	ldr	r3, [sp, #76]	; 0x4c
   82c40:	9307      	str	r3, [sp, #28]
   82c42:	bfb7      	itett	lt
   82c44:	4653      	movlt	r3, sl
   82c46:	2300      	movge	r3, #0
   82c48:	f103 4a00 	addlt.w	sl, r3, #2147483648	; 0x80000000
   82c4c:	232d      	movlt	r3, #45	; 0x2d
   82c4e:	2e66      	cmp	r6, #102	; 0x66
   82c50:	930f      	str	r3, [sp, #60]	; 0x3c
   82c52:	f000 8170 	beq.w	82f36 <_vfprintf_r+0x132a>
   82c56:	2e46      	cmp	r6, #70	; 0x46
   82c58:	f000 8197 	beq.w	82f8a <_vfprintf_r+0x137e>
   82c5c:	2002      	movs	r0, #2
   82c5e:	9b0d      	ldr	r3, [sp, #52]	; 0x34
   82c60:	a921      	add	r1, sp, #132	; 0x84
   82c62:	2b45      	cmp	r3, #69	; 0x45
   82c64:	bf0a      	itet	eq
   82c66:	9b09      	ldreq	r3, [sp, #36]	; 0x24
   82c68:	9d09      	ldrne	r5, [sp, #36]	; 0x24
   82c6a:	1c5d      	addeq	r5, r3, #1
   82c6c:	e88d 0021 	stmia.w	sp, {r0, r5}
   82c70:	9104      	str	r1, [sp, #16]
   82c72:	a81e      	add	r0, sp, #120	; 0x78
   82c74:	a91d      	add	r1, sp, #116	; 0x74
   82c76:	9003      	str	r0, [sp, #12]
   82c78:	9a07      	ldr	r2, [sp, #28]
   82c7a:	4653      	mov	r3, sl
   82c7c:	9102      	str	r1, [sp, #8]
   82c7e:	9808      	ldr	r0, [sp, #32]
   82c80:	f000 fc06 	bl	83490 <_dtoa_r>
   82c84:	2e67      	cmp	r6, #103	; 0x67
   82c86:	4607      	mov	r7, r0
   82c88:	f040 81a3 	bne.w	82fd2 <_vfprintf_r+0x13c6>
   82c8c:	f01b 0f01 	tst.w	fp, #1
   82c90:	f000 8232 	beq.w	830f8 <_vfprintf_r+0x14ec>
   82c94:	197c      	adds	r4, r7, r5
   82c96:	9a16      	ldr	r2, [sp, #88]	; 0x58
   82c98:	9807      	ldr	r0, [sp, #28]
   82c9a:	9b17      	ldr	r3, [sp, #92]	; 0x5c
   82c9c:	4651      	mov	r1, sl
   82c9e:	f7fe fe55 	bl	8194c <__aeabi_dcmpeq>
   82ca2:	2800      	cmp	r0, #0
   82ca4:	f040 8115 	bne.w	82ed2 <_vfprintf_r+0x12c6>
   82ca8:	9b21      	ldr	r3, [sp, #132]	; 0x84
   82caa:	42a3      	cmp	r3, r4
   82cac:	d206      	bcs.n	82cbc <_vfprintf_r+0x10b0>
   82cae:	2130      	movs	r1, #48	; 0x30
   82cb0:	1c5a      	adds	r2, r3, #1
   82cb2:	9221      	str	r2, [sp, #132]	; 0x84
   82cb4:	7019      	strb	r1, [r3, #0]
   82cb6:	9b21      	ldr	r3, [sp, #132]	; 0x84
   82cb8:	429c      	cmp	r4, r3
   82cba:	d8f9      	bhi.n	82cb0 <_vfprintf_r+0x10a4>
   82cbc:	1bdb      	subs	r3, r3, r7
   82cbe:	9311      	str	r3, [sp, #68]	; 0x44
   82cc0:	9b0d      	ldr	r3, [sp, #52]	; 0x34
   82cc2:	2b47      	cmp	r3, #71	; 0x47
   82cc4:	f000 80a6 	beq.w	82e14 <_vfprintf_r+0x1208>
   82cc8:	2e65      	cmp	r6, #101	; 0x65
   82cca:	f340 818f 	ble.w	82fec <_vfprintf_r+0x13e0>
   82cce:	9b1d      	ldr	r3, [sp, #116]	; 0x74
   82cd0:	2e66      	cmp	r6, #102	; 0x66
   82cd2:	9310      	str	r3, [sp, #64]	; 0x40
   82cd4:	f000 816f 	beq.w	82fb6 <_vfprintf_r+0x13aa>
   82cd8:	9b11      	ldr	r3, [sp, #68]	; 0x44
   82cda:	9a10      	ldr	r2, [sp, #64]	; 0x40
   82cdc:	4619      	mov	r1, r3
   82cde:	4291      	cmp	r1, r2
   82ce0:	f300 8146 	bgt.w	82f70 <_vfprintf_r+0x1364>
   82ce4:	f01b 0f01 	tst.w	fp, #1
   82ce8:	f040 81e3 	bne.w	830b2 <_vfprintf_r+0x14a6>
   82cec:	2667      	movs	r6, #103	; 0x67
   82cee:	ea22 73e2 	bic.w	r3, r2, r2, asr #31
   82cf2:	9307      	str	r3, [sp, #28]
   82cf4:	920d      	str	r2, [sp, #52]	; 0x34
   82cf6:	9b0f      	ldr	r3, [sp, #60]	; 0x3c
   82cf8:	2b00      	cmp	r3, #0
   82cfa:	d174      	bne.n	82de6 <_vfprintf_r+0x11da>
   82cfc:	9309      	str	r3, [sp, #36]	; 0x24
   82cfe:	f89d a06f 	ldrb.w	sl, [sp, #111]	; 0x6f
   82d02:	f7ff b8b5 	b.w	81e70 <_vfprintf_r+0x264>
   82d06:	f024 0407 	bic.w	r4, r4, #7
   82d0a:	6823      	ldr	r3, [r4, #0]
   82d0c:	9313      	str	r3, [sp, #76]	; 0x4c
   82d0e:	6863      	ldr	r3, [r4, #4]
   82d10:	9312      	str	r3, [sp, #72]	; 0x48
   82d12:	f104 0308 	add.w	r3, r4, #8
   82d16:	930e      	str	r3, [sp, #56]	; 0x38
   82d18:	f7ff bad8 	b.w	822cc <_vfprintf_r+0x6c0>
   82d1c:	f8da 0058 	ldr.w	r0, [sl, #88]	; 0x58
   82d20:	f001 ff0e 	bl	84b40 <__retarget_lock_release_recursive>
   82d24:	f04f 33ff 	mov.w	r3, #4294967295
   82d28:	930b      	str	r3, [sp, #44]	; 0x2c
   82d2a:	f7ff b9dc 	b.w	820e6 <_vfprintf_r+0x4da>
   82d2e:	9a06      	ldr	r2, [sp, #24]
   82d30:	07d5      	lsls	r5, r2, #31
   82d32:	f57f ae9d 	bpl.w	82a70 <_vfprintf_r+0xe64>
   82d36:	e68b      	b.n	82a50 <_vfprintf_r+0xe44>
   82d38:	f108 0808 	add.w	r8, r8, #8
   82d3c:	e683      	b.n	82a46 <_vfprintf_r+0xe3a>
   82d3e:	aa23      	add	r2, sp, #140	; 0x8c
   82d40:	990a      	ldr	r1, [sp, #40]	; 0x28
   82d42:	9808      	ldr	r0, [sp, #32]
   82d44:	f003 f88c 	bl	85e60 <__sprint_r>
   82d48:	2800      	cmp	r0, #0
   82d4a:	f47f acf9 	bne.w	82740 <_vfprintf_r+0xb34>
   82d4e:	f10d 08c0 	add.w	r8, sp, #192	; 0xc0
   82d52:	9b1d      	ldr	r3, [sp, #116]	; 0x74
   82d54:	9c25      	ldr	r4, [sp, #148]	; 0x94
   82d56:	e68b      	b.n	82a70 <_vfprintf_r+0xe64>
   82d58:	232d      	movs	r3, #45	; 0x2d
   82d5a:	469a      	mov	sl, r3
   82d5c:	f88d 306f 	strb.w	r3, [sp, #111]	; 0x6f
   82d60:	f7ff bad7 	b.w	82312 <_vfprintf_r+0x706>
   82d64:	2306      	movs	r3, #6
   82d66:	9309      	str	r3, [sp, #36]	; 0x24
   82d68:	e763      	b.n	82c32 <_vfprintf_r+0x1026>
   82d6a:	9b24      	ldr	r3, [sp, #144]	; 0x90
   82d6c:	4dac      	ldr	r5, [pc, #688]	; (83020 <_vfprintf_r+0x1414>)
   82d6e:	f7ff b93a 	b.w	81fe6 <_vfprintf_r+0x3da>
   82d72:	aa23      	add	r2, sp, #140	; 0x8c
   82d74:	990a      	ldr	r1, [sp, #40]	; 0x28
   82d76:	9808      	ldr	r0, [sp, #32]
   82d78:	f003 f872 	bl	85e60 <__sprint_r>
   82d7c:	2800      	cmp	r0, #0
   82d7e:	f47f acdf 	bne.w	82740 <_vfprintf_r+0xb34>
   82d82:	f10d 08c0 	add.w	r8, sp, #192	; 0xc0
   82d86:	f7ff bbf6 	b.w	82576 <_vfprintf_r+0x96a>
   82d8a:	2001      	movs	r0, #1
   82d8c:	9b24      	ldr	r3, [sp, #144]	; 0x90
   82d8e:	4aa5      	ldr	r2, [pc, #660]	; (83024 <_vfprintf_r+0x1418>)
   82d90:	4403      	add	r3, r0
   82d92:	4404      	add	r4, r0
   82d94:	2b07      	cmp	r3, #7
   82d96:	9425      	str	r4, [sp, #148]	; 0x94
   82d98:	9324      	str	r3, [sp, #144]	; 0x90
   82d9a:	f8c8 0004 	str.w	r0, [r8, #4]
   82d9e:	f8c8 2000 	str.w	r2, [r8]
   82da2:	f73f ace7 	bgt.w	82774 <_vfprintf_r+0xb68>
   82da6:	f108 0808 	add.w	r8, r8, #8
   82daa:	e4ee      	b.n	8278a <_vfprintf_r+0xb7e>
   82dac:	9a0e      	ldr	r2, [sp, #56]	; 0x38
   82dae:	4613      	mov	r3, r2
   82db0:	3304      	adds	r3, #4
   82db2:	930e      	str	r3, [sp, #56]	; 0x38
   82db4:	9b0b      	ldr	r3, [sp, #44]	; 0x2c
   82db6:	6811      	ldr	r1, [r2, #0]
   82db8:	17dd      	asrs	r5, r3, #31
   82dba:	461a      	mov	r2, r3
   82dbc:	462b      	mov	r3, r5
   82dbe:	e9c1 2300 	strd	r2, r3, [r1]
   82dc2:	f7fe bf6f 	b.w	81ca4 <_vfprintf_r+0x98>
   82dc6:	46da      	mov	sl, fp
   82dc8:	f7ff bba8 	b.w	8251c <_vfprintf_r+0x910>
   82dcc:	aa23      	add	r2, sp, #140	; 0x8c
   82dce:	990a      	ldr	r1, [sp, #40]	; 0x28
   82dd0:	9808      	ldr	r0, [sp, #32]
   82dd2:	f003 f845 	bl	85e60 <__sprint_r>
   82dd6:	2800      	cmp	r0, #0
   82dd8:	f47f acb2 	bne.w	82740 <_vfprintf_r+0xb34>
   82ddc:	f10d 08c0 	add.w	r8, sp, #192	; 0xc0
   82de0:	9c25      	ldr	r4, [sp, #148]	; 0x94
   82de2:	f7ff bbe1 	b.w	825a8 <_vfprintf_r+0x99c>
   82de6:	f04f 0a2d 	mov.w	sl, #45	; 0x2d
   82dea:	2300      	movs	r3, #0
   82dec:	f88d a06f 	strb.w	sl, [sp, #111]	; 0x6f
   82df0:	9309      	str	r3, [sp, #36]	; 0x24
   82df2:	f7ff b840 	b.w	81e76 <_vfprintf_r+0x26a>
   82df6:	4638      	mov	r0, r7
   82df8:	9509      	str	r5, [sp, #36]	; 0x24
   82dfa:	f7fe fed9 	bl	81bb0 <strlen>
   82dfe:	940e      	str	r4, [sp, #56]	; 0x38
   82e00:	900d      	str	r0, [sp, #52]	; 0x34
   82e02:	f8cd b018 	str.w	fp, [sp, #24]
   82e06:	4603      	mov	r3, r0
   82e08:	f7ff bb30 	b.w	8246c <_vfprintf_r+0x860>
   82e0c:	9925      	ldr	r1, [sp, #148]	; 0x94
   82e0e:	9a24      	ldr	r2, [sp, #144]	; 0x90
   82e10:	f7ff b878 	b.w	81f04 <_vfprintf_r+0x2f8>
   82e14:	9b1d      	ldr	r3, [sp, #116]	; 0x74
   82e16:	461a      	mov	r2, r3
   82e18:	9310      	str	r3, [sp, #64]	; 0x40
   82e1a:	3303      	adds	r3, #3
   82e1c:	db04      	blt.n	82e28 <_vfprintf_r+0x121c>
   82e1e:	9b09      	ldr	r3, [sp, #36]	; 0x24
   82e20:	4619      	mov	r1, r3
   82e22:	4291      	cmp	r1, r2
   82e24:	f6bf af58 	bge.w	82cd8 <_vfprintf_r+0x10cc>
   82e28:	3e02      	subs	r6, #2
   82e2a:	9b10      	ldr	r3, [sp, #64]	; 0x40
   82e2c:	f88d 607c 	strb.w	r6, [sp, #124]	; 0x7c
   82e30:	3b01      	subs	r3, #1
   82e32:	2b00      	cmp	r3, #0
   82e34:	bfb4      	ite	lt
   82e36:	222d      	movlt	r2, #45	; 0x2d
   82e38:	222b      	movge	r2, #43	; 0x2b
   82e3a:	931d      	str	r3, [sp, #116]	; 0x74
   82e3c:	bfb8      	it	lt
   82e3e:	9b10      	ldrlt	r3, [sp, #64]	; 0x40
   82e40:	f88d 207d 	strb.w	r2, [sp, #125]	; 0x7d
   82e44:	bfb8      	it	lt
   82e46:	f1c3 0301 	rsblt	r3, r3, #1
   82e4a:	2b09      	cmp	r3, #9
   82e4c:	f340 8129 	ble.w	830a2 <_vfprintf_r+0x1496>
   82e50:	f10d 008b 	add.w	r0, sp, #139	; 0x8b
   82e54:	4601      	mov	r1, r0
   82e56:	4c74      	ldr	r4, [pc, #464]	; (83028 <_vfprintf_r+0x141c>)
   82e58:	e000      	b.n	82e5c <_vfprintf_r+0x1250>
   82e5a:	4611      	mov	r1, r2
   82e5c:	fb84 5203 	smull	r5, r2, r4, r3
   82e60:	17dd      	asrs	r5, r3, #31
   82e62:	ebc5 05a2 	rsb	r5, r5, r2, asr #2
   82e66:	eb05 0285 	add.w	r2, r5, r5, lsl #2
   82e6a:	eba3 0242 	sub.w	r2, r3, r2, lsl #1
   82e6e:	3230      	adds	r2, #48	; 0x30
   82e70:	2d09      	cmp	r5, #9
   82e72:	f801 2c01 	strb.w	r2, [r1, #-1]
   82e76:	462b      	mov	r3, r5
   82e78:	f101 32ff 	add.w	r2, r1, #4294967295
   82e7c:	dced      	bgt.n	82e5a <_vfprintf_r+0x124e>
   82e7e:	3330      	adds	r3, #48	; 0x30
   82e80:	3902      	subs	r1, #2
   82e82:	b2dc      	uxtb	r4, r3
   82e84:	4288      	cmp	r0, r1
   82e86:	f802 4c01 	strb.w	r4, [r2, #-1]
   82e8a:	f240 8195 	bls.w	831b8 <_vfprintf_r+0x15ac>
   82e8e:	f10d 017e 	add.w	r1, sp, #126	; 0x7e
   82e92:	4613      	mov	r3, r2
   82e94:	e001      	b.n	82e9a <_vfprintf_r+0x128e>
   82e96:	f813 4b01 	ldrb.w	r4, [r3], #1
   82e9a:	4283      	cmp	r3, r0
   82e9c:	f801 4b01 	strb.w	r4, [r1], #1
   82ea0:	d1f9      	bne.n	82e96 <_vfprintf_r+0x128a>
   82ea2:	3301      	adds	r3, #1
   82ea4:	1a9b      	subs	r3, r3, r2
   82ea6:	f10d 027e 	add.w	r2, sp, #126	; 0x7e
   82eaa:	4413      	add	r3, r2
   82eac:	aa1f      	add	r2, sp, #124	; 0x7c
   82eae:	1a9b      	subs	r3, r3, r2
   82eb0:	9a11      	ldr	r2, [sp, #68]	; 0x44
   82eb2:	9319      	str	r3, [sp, #100]	; 0x64
   82eb4:	2a01      	cmp	r2, #1
   82eb6:	4413      	add	r3, r2
   82eb8:	930d      	str	r3, [sp, #52]	; 0x34
   82eba:	f340 8155 	ble.w	83168 <_vfprintf_r+0x155c>
   82ebe:	9b0d      	ldr	r3, [sp, #52]	; 0x34
   82ec0:	9a14      	ldr	r2, [sp, #80]	; 0x50
   82ec2:	4413      	add	r3, r2
   82ec4:	930d      	str	r3, [sp, #52]	; 0x34
   82ec6:	ea23 73e3 	bic.w	r3, r3, r3, asr #31
   82eca:	9307      	str	r3, [sp, #28]
   82ecc:	2300      	movs	r3, #0
   82ece:	9310      	str	r3, [sp, #64]	; 0x40
   82ed0:	e711      	b.n	82cf6 <_vfprintf_r+0x10ea>
   82ed2:	4623      	mov	r3, r4
   82ed4:	e6f2      	b.n	82cbc <_vfprintf_r+0x10b0>
   82ed6:	aa23      	add	r2, sp, #140	; 0x8c
   82ed8:	990a      	ldr	r1, [sp, #40]	; 0x28
   82eda:	9808      	ldr	r0, [sp, #32]
   82edc:	f002 ffc0 	bl	85e60 <__sprint_r>
   82ee0:	2800      	cmp	r0, #0
   82ee2:	f47f ac2d 	bne.w	82740 <_vfprintf_r+0xb34>
   82ee6:	f10d 08c0 	add.w	r8, sp, #192	; 0xc0
   82eea:	9c25      	ldr	r4, [sp, #148]	; 0x94
   82eec:	e4e1      	b.n	828b2 <_vfprintf_r+0xca6>
   82eee:	9b24      	ldr	r3, [sp, #144]	; 0x90
   82ef0:	f7ff b8c5 	b.w	8207e <_vfprintf_r+0x472>
   82ef4:	9b09      	ldr	r3, [sp, #36]	; 0x24
   82ef6:	46ba      	mov	sl, r7
   82ef8:	2b06      	cmp	r3, #6
   82efa:	bf28      	it	cs
   82efc:	2306      	movcs	r3, #6
   82efe:	9709      	str	r7, [sp, #36]	; 0x24
   82f00:	9710      	str	r7, [sp, #64]	; 0x40
   82f02:	9307      	str	r3, [sp, #28]
   82f04:	940e      	str	r4, [sp, #56]	; 0x38
   82f06:	f8cd b018 	str.w	fp, [sp, #24]
   82f0a:	930d      	str	r3, [sp, #52]	; 0x34
   82f0c:	4f47      	ldr	r7, [pc, #284]	; (8302c <_vfprintf_r+0x1420>)
   82f0e:	f7fe bfaf 	b.w	81e70 <_vfprintf_r+0x264>
   82f12:	aa23      	add	r2, sp, #140	; 0x8c
   82f14:	990a      	ldr	r1, [sp, #40]	; 0x28
   82f16:	9808      	ldr	r0, [sp, #32]
   82f18:	f002 ffa2 	bl	85e60 <__sprint_r>
   82f1c:	2800      	cmp	r0, #0
   82f1e:	f47f ac0f 	bne.w	82740 <_vfprintf_r+0xb34>
   82f22:	9b1d      	ldr	r3, [sp, #116]	; 0x74
   82f24:	9a11      	ldr	r2, [sp, #68]	; 0x44
   82f26:	f10d 08c0 	add.w	r8, sp, #192	; 0xc0
   82f2a:	9c25      	ldr	r4, [sp, #148]	; 0x94
   82f2c:	1ad3      	subs	r3, r2, r3
   82f2e:	e5b7      	b.n	82aa0 <_vfprintf_r+0xe94>
   82f30:	46a2      	mov	sl, r4
   82f32:	f7ff baf3 	b.w	8251c <_vfprintf_r+0x910>
   82f36:	2003      	movs	r0, #3
   82f38:	9c09      	ldr	r4, [sp, #36]	; 0x24
   82f3a:	a921      	add	r1, sp, #132	; 0x84
   82f3c:	e88d 0011 	stmia.w	sp, {r0, r4}
   82f40:	9104      	str	r1, [sp, #16]
   82f42:	a81e      	add	r0, sp, #120	; 0x78
   82f44:	a91d      	add	r1, sp, #116	; 0x74
   82f46:	9003      	str	r0, [sp, #12]
   82f48:	9a07      	ldr	r2, [sp, #28]
   82f4a:	4653      	mov	r3, sl
   82f4c:	9102      	str	r1, [sp, #8]
   82f4e:	9808      	ldr	r0, [sp, #32]
   82f50:	f000 fa9e 	bl	83490 <_dtoa_r>
   82f54:	4607      	mov	r7, r0
   82f56:	4625      	mov	r5, r4
   82f58:	1904      	adds	r4, r0, r4
   82f5a:	783b      	ldrb	r3, [r7, #0]
   82f5c:	2b30      	cmp	r3, #48	; 0x30
   82f5e:	f000 80ed 	beq.w	8313c <_vfprintf_r+0x1530>
   82f62:	9d1d      	ldr	r5, [sp, #116]	; 0x74
   82f64:	442c      	add	r4, r5
   82f66:	e696      	b.n	82c96 <_vfprintf_r+0x108a>
   82f68:	9b24      	ldr	r3, [sp, #144]	; 0x90
   82f6a:	4d2d      	ldr	r5, [pc, #180]	; (83020 <_vfprintf_r+0x1414>)
   82f6c:	f7ff bb82 	b.w	82674 <_vfprintf_r+0xa68>
   82f70:	9a14      	ldr	r2, [sp, #80]	; 0x50
   82f72:	9b11      	ldr	r3, [sp, #68]	; 0x44
   82f74:	4413      	add	r3, r2
   82f76:	9a10      	ldr	r2, [sp, #64]	; 0x40
   82f78:	930d      	str	r3, [sp, #52]	; 0x34
   82f7a:	2a00      	cmp	r2, #0
   82f7c:	f340 80ec 	ble.w	83158 <_vfprintf_r+0x154c>
   82f80:	ea23 73e3 	bic.w	r3, r3, r3, asr #31
   82f84:	9307      	str	r3, [sp, #28]
   82f86:	2667      	movs	r6, #103	; 0x67
   82f88:	e6b5      	b.n	82cf6 <_vfprintf_r+0x10ea>
   82f8a:	2003      	movs	r0, #3
   82f8c:	9c09      	ldr	r4, [sp, #36]	; 0x24
   82f8e:	a921      	add	r1, sp, #132	; 0x84
   82f90:	e88d 0011 	stmia.w	sp, {r0, r4}
   82f94:	9104      	str	r1, [sp, #16]
   82f96:	a81e      	add	r0, sp, #120	; 0x78
   82f98:	a91d      	add	r1, sp, #116	; 0x74
   82f9a:	9003      	str	r0, [sp, #12]
   82f9c:	9a07      	ldr	r2, [sp, #28]
   82f9e:	4653      	mov	r3, sl
   82fa0:	9102      	str	r1, [sp, #8]
   82fa2:	9808      	ldr	r0, [sp, #32]
   82fa4:	f000 fa74 	bl	83490 <_dtoa_r>
   82fa8:	4625      	mov	r5, r4
   82faa:	4607      	mov	r7, r0
   82fac:	2e46      	cmp	r6, #70	; 0x46
   82fae:	eb07 0405 	add.w	r4, r7, r5
   82fb2:	d0d2      	beq.n	82f5a <_vfprintf_r+0x134e>
   82fb4:	e66f      	b.n	82c96 <_vfprintf_r+0x108a>
   82fb6:	2b00      	cmp	r3, #0
   82fb8:	f340 80e3 	ble.w	83182 <_vfprintf_r+0x1576>
   82fbc:	9a09      	ldr	r2, [sp, #36]	; 0x24
   82fbe:	2a00      	cmp	r2, #0
   82fc0:	f040 809c 	bne.w	830fc <_vfprintf_r+0x14f0>
   82fc4:	f01b 0f01 	tst.w	fp, #1
   82fc8:	f040 8098 	bne.w	830fc <_vfprintf_r+0x14f0>
   82fcc:	9307      	str	r3, [sp, #28]
   82fce:	930d      	str	r3, [sp, #52]	; 0x34
   82fd0:	e691      	b.n	82cf6 <_vfprintf_r+0x10ea>
   82fd2:	2e47      	cmp	r6, #71	; 0x47
   82fd4:	f47f ae5e 	bne.w	82c94 <_vfprintf_r+0x1088>
   82fd8:	f01b 0f01 	tst.w	fp, #1
   82fdc:	d1e6      	bne.n	82fac <_vfprintf_r+0x13a0>
   82fde:	9b21      	ldr	r3, [sp, #132]	; 0x84
   82fe0:	1bdb      	subs	r3, r3, r7
   82fe2:	9311      	str	r3, [sp, #68]	; 0x44
   82fe4:	9b0d      	ldr	r3, [sp, #52]	; 0x34
   82fe6:	2b47      	cmp	r3, #71	; 0x47
   82fe8:	f43f af14 	beq.w	82e14 <_vfprintf_r+0x1208>
   82fec:	9b1d      	ldr	r3, [sp, #116]	; 0x74
   82fee:	9310      	str	r3, [sp, #64]	; 0x40
   82ff0:	e71b      	b.n	82e2a <_vfprintf_r+0x121e>
   82ff2:	9b09      	ldr	r3, [sp, #36]	; 0x24
   82ff4:	940e      	str	r4, [sp, #56]	; 0x38
   82ff6:	9307      	str	r3, [sp, #28]
   82ff8:	930d      	str	r3, [sp, #52]	; 0x34
   82ffa:	9009      	str	r0, [sp, #36]	; 0x24
   82ffc:	f8cd b018 	str.w	fp, [sp, #24]
   83000:	9010      	str	r0, [sp, #64]	; 0x40
   83002:	f89d a06f 	ldrb.w	sl, [sp, #111]	; 0x6f
   83006:	f7fe bf33 	b.w	81e70 <_vfprintf_r+0x264>
   8300a:	424e      	negs	r6, r1
   8300c:	3110      	adds	r1, #16
   8300e:	da59      	bge.n	830c4 <_vfprintf_r+0x14b8>
   83010:	2410      	movs	r4, #16
   83012:	4d03      	ldr	r5, [pc, #12]	; (83020 <_vfprintf_r+0x1414>)
   83014:	f8dd a020 	ldr.w	sl, [sp, #32]
   83018:	f8dd b028 	ldr.w	fp, [sp, #40]	; 0x28
   8301c:	e00d      	b.n	8303a <_vfprintf_r+0x142e>
   8301e:	bf00      	nop
   83020:	000864b8 	.word	0x000864b8
   83024:	000864a4 	.word	0x000864a4
   83028:	66666667 	.word	0x66666667
   8302c:	0008649c 	.word	0x0008649c
   83030:	f108 0808 	add.w	r8, r8, #8
   83034:	3e10      	subs	r6, #16
   83036:	2e10      	cmp	r6, #16
   83038:	dd45      	ble.n	830c6 <_vfprintf_r+0x14ba>
   8303a:	3301      	adds	r3, #1
   8303c:	3210      	adds	r2, #16
   8303e:	2b07      	cmp	r3, #7
   83040:	9225      	str	r2, [sp, #148]	; 0x94
   83042:	9324      	str	r3, [sp, #144]	; 0x90
   83044:	f8c8 5000 	str.w	r5, [r8]
   83048:	f8c8 4004 	str.w	r4, [r8, #4]
   8304c:	ddf0      	ble.n	83030 <_vfprintf_r+0x1424>
   8304e:	aa23      	add	r2, sp, #140	; 0x8c
   83050:	4659      	mov	r1, fp
   83052:	4650      	mov	r0, sl
   83054:	f002 ff04 	bl	85e60 <__sprint_r>
   83058:	2800      	cmp	r0, #0
   8305a:	f47f aeb4 	bne.w	82dc6 <_vfprintf_r+0x11ba>
   8305e:	f10d 08c0 	add.w	r8, sp, #192	; 0xc0
   83062:	9a25      	ldr	r2, [sp, #148]	; 0x94
   83064:	9b24      	ldr	r3, [sp, #144]	; 0x90
   83066:	e7e5      	b.n	83034 <_vfprintf_r+0x1428>
   83068:	aa23      	add	r2, sp, #140	; 0x8c
   8306a:	990a      	ldr	r1, [sp, #40]	; 0x28
   8306c:	9808      	ldr	r0, [sp, #32]
   8306e:	f002 fef7 	bl	85e60 <__sprint_r>
   83072:	2800      	cmp	r0, #0
   83074:	f47f ab64 	bne.w	82740 <_vfprintf_r+0xb34>
   83078:	f10d 08c0 	add.w	r8, sp, #192	; 0xc0
   8307c:	991d      	ldr	r1, [sp, #116]	; 0x74
   8307e:	9a25      	ldr	r2, [sp, #148]	; 0x94
   83080:	9b24      	ldr	r3, [sp, #144]	; 0x90
   83082:	f7ff bb9a 	b.w	827ba <_vfprintf_r+0xbae>
   83086:	9808      	ldr	r0, [sp, #32]
   83088:	aa23      	add	r2, sp, #140	; 0x8c
   8308a:	4651      	mov	r1, sl
   8308c:	f002 fee8 	bl	85e60 <__sprint_r>
   83090:	2800      	cmp	r0, #0
   83092:	f43f aa41 	beq.w	82518 <_vfprintf_r+0x90c>
   83096:	f7ff ba41 	b.w	8251c <_vfprintf_r+0x910>
   8309a:	2300      	movs	r3, #0
   8309c:	9309      	str	r3, [sp, #36]	; 0x24
   8309e:	f7fe be36 	b.w	81d0e <_vfprintf_r+0x102>
   830a2:	2230      	movs	r2, #48	; 0x30
   830a4:	4413      	add	r3, r2
   830a6:	f88d 307f 	strb.w	r3, [sp, #127]	; 0x7f
   830aa:	f88d 207e 	strb.w	r2, [sp, #126]	; 0x7e
   830ae:	ab20      	add	r3, sp, #128	; 0x80
   830b0:	e6fc      	b.n	82eac <_vfprintf_r+0x12a0>
   830b2:	9b10      	ldr	r3, [sp, #64]	; 0x40
   830b4:	9a14      	ldr	r2, [sp, #80]	; 0x50
   830b6:	2667      	movs	r6, #103	; 0x67
   830b8:	4413      	add	r3, r2
   830ba:	930d      	str	r3, [sp, #52]	; 0x34
   830bc:	ea23 73e3 	bic.w	r3, r3, r3, asr #31
   830c0:	9307      	str	r3, [sp, #28]
   830c2:	e618      	b.n	82cf6 <_vfprintf_r+0x10ea>
   830c4:	4d48      	ldr	r5, [pc, #288]	; (831e8 <_vfprintf_r+0x15dc>)
   830c6:	3301      	adds	r3, #1
   830c8:	4432      	add	r2, r6
   830ca:	2b07      	cmp	r3, #7
   830cc:	e888 0060 	stmia.w	r8, {r5, r6}
   830d0:	9225      	str	r2, [sp, #148]	; 0x94
   830d2:	9324      	str	r3, [sp, #144]	; 0x90
   830d4:	f108 0808 	add.w	r8, r8, #8
   830d8:	f77f ab72 	ble.w	827c0 <_vfprintf_r+0xbb4>
   830dc:	aa23      	add	r2, sp, #140	; 0x8c
   830de:	990a      	ldr	r1, [sp, #40]	; 0x28
   830e0:	9808      	ldr	r0, [sp, #32]
   830e2:	f002 febd 	bl	85e60 <__sprint_r>
   830e6:	2800      	cmp	r0, #0
   830e8:	f47f ab2a 	bne.w	82740 <_vfprintf_r+0xb34>
   830ec:	f10d 08c0 	add.w	r8, sp, #192	; 0xc0
   830f0:	9a25      	ldr	r2, [sp, #148]	; 0x94
   830f2:	9b24      	ldr	r3, [sp, #144]	; 0x90
   830f4:	f7ff bb64 	b.w	827c0 <_vfprintf_r+0xbb4>
   830f8:	9b21      	ldr	r3, [sp, #132]	; 0x84
   830fa:	e5df      	b.n	82cbc <_vfprintf_r+0x10b0>
   830fc:	9b10      	ldr	r3, [sp, #64]	; 0x40
   830fe:	9a14      	ldr	r2, [sp, #80]	; 0x50
   83100:	4413      	add	r3, r2
   83102:	9a09      	ldr	r2, [sp, #36]	; 0x24
   83104:	441a      	add	r2, r3
   83106:	ea22 73e2 	bic.w	r3, r2, r2, asr #31
   8310a:	920d      	str	r2, [sp, #52]	; 0x34
   8310c:	9307      	str	r3, [sp, #28]
   8310e:	e5f2      	b.n	82cf6 <_vfprintf_r+0x10ea>
   83110:	9b12      	ldr	r3, [sp, #72]	; 0x48
   83112:	4f36      	ldr	r7, [pc, #216]	; (831ec <_vfprintf_r+0x15e0>)
   83114:	2b00      	cmp	r3, #0
   83116:	bfbe      	ittt	lt
   83118:	232d      	movlt	r3, #45	; 0x2d
   8311a:	469a      	movlt	sl, r3
   8311c:	f88d 306f 	strblt.w	r3, [sp, #111]	; 0x6f
   83120:	f04f 0303 	mov.w	r3, #3
   83124:	461a      	mov	r2, r3
   83126:	9307      	str	r3, [sp, #28]
   83128:	f04f 0300 	mov.w	r3, #0
   8312c:	bfa8      	it	ge
   8312e:	f89d a06f 	ldrbge.w	sl, [sp, #111]	; 0x6f
   83132:	4619      	mov	r1, r3
   83134:	9309      	str	r3, [sp, #36]	; 0x24
   83136:	4b2e      	ldr	r3, [pc, #184]	; (831f0 <_vfprintf_r+0x15e4>)
   83138:	f7ff b8f3 	b.w	82322 <_vfprintf_r+0x716>
   8313c:	9a16      	ldr	r2, [sp, #88]	; 0x58
   8313e:	9807      	ldr	r0, [sp, #28]
   83140:	9b17      	ldr	r3, [sp, #92]	; 0x5c
   83142:	4651      	mov	r1, sl
   83144:	f7fe fc02 	bl	8194c <__aeabi_dcmpeq>
   83148:	2800      	cmp	r0, #0
   8314a:	f47f af0a 	bne.w	82f62 <_vfprintf_r+0x1356>
   8314e:	f1c5 0501 	rsb	r5, r5, #1
   83152:	951d      	str	r5, [sp, #116]	; 0x74
   83154:	442c      	add	r4, r5
   83156:	e59e      	b.n	82c96 <_vfprintf_r+0x108a>
   83158:	9b10      	ldr	r3, [sp, #64]	; 0x40
   8315a:	9a0d      	ldr	r2, [sp, #52]	; 0x34
   8315c:	f1c3 0301 	rsb	r3, r3, #1
   83160:	441a      	add	r2, r3
   83162:	4613      	mov	r3, r2
   83164:	920d      	str	r2, [sp, #52]	; 0x34
   83166:	e70b      	b.n	82f80 <_vfprintf_r+0x1374>
   83168:	f01b 0301 	ands.w	r3, fp, #1
   8316c:	9310      	str	r3, [sp, #64]	; 0x40
   8316e:	f47f aea6 	bne.w	82ebe <_vfprintf_r+0x12b2>
   83172:	9b0d      	ldr	r3, [sp, #52]	; 0x34
   83174:	ea23 73e3 	bic.w	r3, r3, r3, asr #31
   83178:	9307      	str	r3, [sp, #28]
   8317a:	e5bc      	b.n	82cf6 <_vfprintf_r+0x10ea>
   8317c:	9b24      	ldr	r3, [sp, #144]	; 0x90
   8317e:	4d1a      	ldr	r5, [pc, #104]	; (831e8 <_vfprintf_r+0x15dc>)
   83180:	e44d      	b.n	82a1e <_vfprintf_r+0xe12>
   83182:	9b09      	ldr	r3, [sp, #36]	; 0x24
   83184:	b913      	cbnz	r3, 8318c <_vfprintf_r+0x1580>
   83186:	f01b 0f01 	tst.w	fp, #1
   8318a:	d002      	beq.n	83192 <_vfprintf_r+0x1586>
   8318c:	9b14      	ldr	r3, [sp, #80]	; 0x50
   8318e:	3301      	adds	r3, #1
   83190:	e7b7      	b.n	83102 <_vfprintf_r+0x14f6>
   83192:	2301      	movs	r3, #1
   83194:	e71a      	b.n	82fcc <_vfprintf_r+0x13c0>
   83196:	9c0e      	ldr	r4, [sp, #56]	; 0x38
   83198:	f899 6001 	ldrb.w	r6, [r9, #1]
   8319c:	6823      	ldr	r3, [r4, #0]
   8319e:	4681      	mov	r9, r0
   831a0:	ea43 73e3 	orr.w	r3, r3, r3, asr #31
   831a4:	9309      	str	r3, [sp, #36]	; 0x24
   831a6:	4623      	mov	r3, r4
   831a8:	3304      	adds	r3, #4
   831aa:	930e      	str	r3, [sp, #56]	; 0x38
   831ac:	f7fe bdad 	b.w	81d0a <_vfprintf_r+0xfe>
   831b0:	f88d 106f 	strb.w	r1, [sp, #111]	; 0x6f
   831b4:	f7ff b92e 	b.w	82414 <_vfprintf_r+0x808>
   831b8:	f10d 037e 	add.w	r3, sp, #126	; 0x7e
   831bc:	e676      	b.n	82eac <_vfprintf_r+0x12a0>
   831be:	f88d 106f 	strb.w	r1, [sp, #111]	; 0x6f
   831c2:	f7fe bfe2 	b.w	8218a <_vfprintf_r+0x57e>
   831c6:	f88d 106f 	strb.w	r1, [sp, #111]	; 0x6f
   831ca:	f7ff b86f 	b.w	822ac <_vfprintf_r+0x6a0>
   831ce:	f88d 106f 	strb.w	r1, [sp, #111]	; 0x6f
   831d2:	f7ff b824 	b.w	8221e <_vfprintf_r+0x612>
   831d6:	f88d 106f 	strb.w	r1, [sp, #111]	; 0x6f
   831da:	f7ff b971 	b.w	824c0 <_vfprintf_r+0x8b4>
   831de:	f88d 106f 	strb.w	r1, [sp, #111]	; 0x6f
   831e2:	f7ff b8e5 	b.w	823b0 <_vfprintf_r+0x7a4>
   831e6:	bf00      	nop
   831e8:	000864b8 	.word	0x000864b8
   831ec:	00086470 	.word	0x00086470
   831f0:	0008646c 	.word	0x0008646c

000831f4 <__sbprintf>:
   831f4:	e92d 41f0 	stmdb	sp!, {r4, r5, r6, r7, r8, lr}
   831f8:	460c      	mov	r4, r1
   831fa:	f04f 0e00 	mov.w	lr, #0
   831fe:	f44f 6580 	mov.w	r5, #1024	; 0x400
   83202:	4606      	mov	r6, r0
   83204:	4617      	mov	r7, r2
   83206:	4698      	mov	r8, r3
   83208:	6e62      	ldr	r2, [r4, #100]	; 0x64
   8320a:	89e3      	ldrh	r3, [r4, #14]
   8320c:	8989      	ldrh	r1, [r1, #12]
   8320e:	f5ad 6d8d 	sub.w	sp, sp, #1128	; 0x468
   83212:	f021 0102 	bic.w	r1, r1, #2
   83216:	9219      	str	r2, [sp, #100]	; 0x64
   83218:	f8ad 300e 	strh.w	r3, [sp, #14]
   8321c:	69e2      	ldr	r2, [r4, #28]
   8321e:	6a63      	ldr	r3, [r4, #36]	; 0x24
   83220:	f8ad 100c 	strh.w	r1, [sp, #12]
   83224:	a816      	add	r0, sp, #88	; 0x58
   83226:	a91a      	add	r1, sp, #104	; 0x68
   83228:	f8cd e018 	str.w	lr, [sp, #24]
   8322c:	9207      	str	r2, [sp, #28]
   8322e:	9309      	str	r3, [sp, #36]	; 0x24
   83230:	9100      	str	r1, [sp, #0]
   83232:	9104      	str	r1, [sp, #16]
   83234:	9502      	str	r5, [sp, #8]
   83236:	9505      	str	r5, [sp, #20]
   83238:	f001 fc7c 	bl	84b34 <__retarget_lock_init_recursive>
   8323c:	4643      	mov	r3, r8
   8323e:	463a      	mov	r2, r7
   83240:	4669      	mov	r1, sp
   83242:	4630      	mov	r0, r6
   83244:	f7fe fce2 	bl	81c0c <_vfprintf_r>
   83248:	1e05      	subs	r5, r0, #0
   8324a:	db07      	blt.n	8325c <__sbprintf+0x68>
   8324c:	4630      	mov	r0, r6
   8324e:	4669      	mov	r1, sp
   83250:	f001 f8dc 	bl	8440c <_fflush_r>
   83254:	2800      	cmp	r0, #0
   83256:	bf18      	it	ne
   83258:	f04f 35ff 	movne.w	r5, #4294967295
   8325c:	f8bd 300c 	ldrh.w	r3, [sp, #12]
   83260:	065b      	lsls	r3, r3, #25
   83262:	d503      	bpl.n	8326c <__sbprintf+0x78>
   83264:	89a3      	ldrh	r3, [r4, #12]
   83266:	f043 0340 	orr.w	r3, r3, #64	; 0x40
   8326a:	81a3      	strh	r3, [r4, #12]
   8326c:	9816      	ldr	r0, [sp, #88]	; 0x58
   8326e:	f001 fc63 	bl	84b38 <__retarget_lock_close_recursive>
   83272:	4628      	mov	r0, r5
   83274:	f50d 6d8d 	add.w	sp, sp, #1128	; 0x468
   83278:	e8bd 81f0 	ldmia.w	sp!, {r4, r5, r6, r7, r8, pc}

0008327c <__swsetup_r>:
   8327c:	b538      	push	{r3, r4, r5, lr}
   8327e:	4b30      	ldr	r3, [pc, #192]	; (83340 <__swsetup_r+0xc4>)
   83280:	4605      	mov	r5, r0
   83282:	6818      	ldr	r0, [r3, #0]
   83284:	460c      	mov	r4, r1
   83286:	b110      	cbz	r0, 8328e <__swsetup_r+0x12>
   83288:	6b83      	ldr	r3, [r0, #56]	; 0x38
   8328a:	2b00      	cmp	r3, #0
   8328c:	d038      	beq.n	83300 <__swsetup_r+0x84>
   8328e:	f9b4 200c 	ldrsh.w	r2, [r4, #12]
   83292:	b293      	uxth	r3, r2
   83294:	0718      	lsls	r0, r3, #28
   83296:	d50c      	bpl.n	832b2 <__swsetup_r+0x36>
   83298:	6920      	ldr	r0, [r4, #16]
   8329a:	b1a8      	cbz	r0, 832c8 <__swsetup_r+0x4c>
   8329c:	f013 0201 	ands.w	r2, r3, #1
   832a0:	d01e      	beq.n	832e0 <__swsetup_r+0x64>
   832a2:	2200      	movs	r2, #0
   832a4:	6963      	ldr	r3, [r4, #20]
   832a6:	60a2      	str	r2, [r4, #8]
   832a8:	425b      	negs	r3, r3
   832aa:	61a3      	str	r3, [r4, #24]
   832ac:	b1f0      	cbz	r0, 832ec <__swsetup_r+0x70>
   832ae:	2000      	movs	r0, #0
   832b0:	bd38      	pop	{r3, r4, r5, pc}
   832b2:	06d9      	lsls	r1, r3, #27
   832b4:	d53b      	bpl.n	8332e <__swsetup_r+0xb2>
   832b6:	0758      	lsls	r0, r3, #29
   832b8:	d425      	bmi.n	83306 <__swsetup_r+0x8a>
   832ba:	6920      	ldr	r0, [r4, #16]
   832bc:	f042 0308 	orr.w	r3, r2, #8
   832c0:	81a3      	strh	r3, [r4, #12]
   832c2:	b29b      	uxth	r3, r3
   832c4:	2800      	cmp	r0, #0
   832c6:	d1e9      	bne.n	8329c <__swsetup_r+0x20>
   832c8:	f403 7220 	and.w	r2, r3, #640	; 0x280
   832cc:	f5b2 7f00 	cmp.w	r2, #512	; 0x200
   832d0:	d0e4      	beq.n	8329c <__swsetup_r+0x20>
   832d2:	4628      	mov	r0, r5
   832d4:	4621      	mov	r1, r4
   832d6:	f001 fc63 	bl	84ba0 <__smakebuf_r>
   832da:	89a3      	ldrh	r3, [r4, #12]
   832dc:	6920      	ldr	r0, [r4, #16]
   832de:	e7dd      	b.n	8329c <__swsetup_r+0x20>
   832e0:	0799      	lsls	r1, r3, #30
   832e2:	bf58      	it	pl
   832e4:	6962      	ldrpl	r2, [r4, #20]
   832e6:	60a2      	str	r2, [r4, #8]
   832e8:	2800      	cmp	r0, #0
   832ea:	d1e0      	bne.n	832ae <__swsetup_r+0x32>
   832ec:	f9b4 300c 	ldrsh.w	r3, [r4, #12]
   832f0:	061a      	lsls	r2, r3, #24
   832f2:	d5dd      	bpl.n	832b0 <__swsetup_r+0x34>
   832f4:	f043 0340 	orr.w	r3, r3, #64	; 0x40
   832f8:	81a3      	strh	r3, [r4, #12]
   832fa:	f04f 30ff 	mov.w	r0, #4294967295
   832fe:	bd38      	pop	{r3, r4, r5, pc}
   83300:	f001 f8dc 	bl	844bc <__sinit>
   83304:	e7c3      	b.n	8328e <__swsetup_r+0x12>
   83306:	6b21      	ldr	r1, [r4, #48]	; 0x30
   83308:	b151      	cbz	r1, 83320 <__swsetup_r+0xa4>
   8330a:	f104 0340 	add.w	r3, r4, #64	; 0x40
   8330e:	4299      	cmp	r1, r3
   83310:	d004      	beq.n	8331c <__swsetup_r+0xa0>
   83312:	4628      	mov	r0, r5
   83314:	f001 f978 	bl	84608 <_free_r>
   83318:	f9b4 200c 	ldrsh.w	r2, [r4, #12]
   8331c:	2300      	movs	r3, #0
   8331e:	6323      	str	r3, [r4, #48]	; 0x30
   83320:	2300      	movs	r3, #0
   83322:	6920      	ldr	r0, [r4, #16]
   83324:	f022 0224 	bic.w	r2, r2, #36	; 0x24
   83328:	e884 0009 	stmia.w	r4, {r0, r3}
   8332c:	e7c6      	b.n	832bc <__swsetup_r+0x40>
   8332e:	2309      	movs	r3, #9
   83330:	f042 0240 	orr.w	r2, r2, #64	; 0x40
   83334:	602b      	str	r3, [r5, #0]
   83336:	f04f 30ff 	mov.w	r0, #4294967295
   8333a:	81a2      	strh	r2, [r4, #12]
   8333c:	bd38      	pop	{r3, r4, r5, pc}
   8333e:	bf00      	nop
   83340:	2000000c 	.word	0x2000000c

00083344 <register_fini>:
   83344:	4b02      	ldr	r3, [pc, #8]	; (83350 <register_fini+0xc>)
   83346:	b113      	cbz	r3, 8334e <register_fini+0xa>
   83348:	4802      	ldr	r0, [pc, #8]	; (83354 <register_fini+0x10>)
   8334a:	f000 b805 	b.w	83358 <atexit>
   8334e:	4770      	bx	lr
   83350:	00000000 	.word	0x00000000
   83354:	00084535 	.word	0x00084535

00083358 <atexit>:
   83358:	2300      	movs	r3, #0
   8335a:	4601      	mov	r1, r0
   8335c:	461a      	mov	r2, r3
   8335e:	4618      	mov	r0, r3
   83360:	f002 bd9e 	b.w	85ea0 <__register_exitproc>

00083364 <quorem>:
   83364:	e92d 4ff0 	stmdb	sp!, {r4, r5, r6, r7, r8, r9, sl, fp, lr}
   83368:	6903      	ldr	r3, [r0, #16]
   8336a:	690f      	ldr	r7, [r1, #16]
   8336c:	b083      	sub	sp, #12
   8336e:	429f      	cmp	r7, r3
   83370:	f300 8088 	bgt.w	83484 <quorem+0x120>
   83374:	3f01      	subs	r7, #1
   83376:	f101 0614 	add.w	r6, r1, #20
   8337a:	f100 0a14 	add.w	sl, r0, #20
   8337e:	f856 3027 	ldr.w	r3, [r6, r7, lsl #2]
   83382:	f85a 2027 	ldr.w	r2, [sl, r7, lsl #2]
   83386:	3301      	adds	r3, #1
   83388:	fbb2 f8f3 	udiv	r8, r2, r3
   8338c:	00bb      	lsls	r3, r7, #2
   8338e:	9300      	str	r3, [sp, #0]
   83390:	eb06 0903 	add.w	r9, r6, r3
   83394:	4453      	add	r3, sl
   83396:	9301      	str	r3, [sp, #4]
   83398:	f1b8 0f00 	cmp.w	r8, #0
   8339c:	d03b      	beq.n	83416 <quorem+0xb2>
   8339e:	2300      	movs	r3, #0
   833a0:	46b4      	mov	ip, r6
   833a2:	461c      	mov	r4, r3
   833a4:	46d6      	mov	lr, sl
   833a6:	f85c 2b04 	ldr.w	r2, [ip], #4
   833aa:	f8de 5000 	ldr.w	r5, [lr]
   833ae:	fa1f fb82 	uxth.w	fp, r2
   833b2:	fb08 330b 	mla	r3, r8, fp, r3
   833b6:	0c12      	lsrs	r2, r2, #16
   833b8:	ea4f 4b13 	mov.w	fp, r3, lsr #16
   833bc:	fb08 bb02 	mla	fp, r8, r2, fp
   833c0:	b29a      	uxth	r2, r3
   833c2:	1aa2      	subs	r2, r4, r2
   833c4:	b2ab      	uxth	r3, r5
   833c6:	fa1f f48b 	uxth.w	r4, fp
   833ca:	441a      	add	r2, r3
   833cc:	ebc4 4415 	rsb	r4, r4, r5, lsr #16
   833d0:	eb04 4422 	add.w	r4, r4, r2, asr #16
   833d4:	b292      	uxth	r2, r2
   833d6:	ea42 4204 	orr.w	r2, r2, r4, lsl #16
   833da:	45e1      	cmp	r9, ip
   833dc:	f84e 2b04 	str.w	r2, [lr], #4
   833e0:	ea4f 4424 	mov.w	r4, r4, asr #16
   833e4:	ea4f 431b 	mov.w	r3, fp, lsr #16
   833e8:	d2dd      	bcs.n	833a6 <quorem+0x42>
   833ea:	9b00      	ldr	r3, [sp, #0]
   833ec:	f85a 3003 	ldr.w	r3, [sl, r3]
   833f0:	b98b      	cbnz	r3, 83416 <quorem+0xb2>
   833f2:	9c01      	ldr	r4, [sp, #4]
   833f4:	1f23      	subs	r3, r4, #4
   833f6:	459a      	cmp	sl, r3
   833f8:	d20c      	bcs.n	83414 <quorem+0xb0>
   833fa:	f854 3c04 	ldr.w	r3, [r4, #-4]
   833fe:	b94b      	cbnz	r3, 83414 <quorem+0xb0>
   83400:	f1a4 0308 	sub.w	r3, r4, #8
   83404:	e002      	b.n	8340c <quorem+0xa8>
   83406:	681a      	ldr	r2, [r3, #0]
   83408:	3b04      	subs	r3, #4
   8340a:	b91a      	cbnz	r2, 83414 <quorem+0xb0>
   8340c:	459a      	cmp	sl, r3
   8340e:	f107 37ff 	add.w	r7, r7, #4294967295
   83412:	d3f8      	bcc.n	83406 <quorem+0xa2>
   83414:	6107      	str	r7, [r0, #16]
   83416:	4604      	mov	r4, r0
   83418:	f002 f9d8 	bl	857cc <__mcmp>
   8341c:	2800      	cmp	r0, #0
   8341e:	db2d      	blt.n	8347c <quorem+0x118>
   83420:	4655      	mov	r5, sl
   83422:	2300      	movs	r3, #0
   83424:	f108 0801 	add.w	r8, r8, #1
   83428:	f856 1b04 	ldr.w	r1, [r6], #4
   8342c:	6828      	ldr	r0, [r5, #0]
   8342e:	b28a      	uxth	r2, r1
   83430:	1a9a      	subs	r2, r3, r2
   83432:	0c0b      	lsrs	r3, r1, #16
   83434:	b281      	uxth	r1, r0
   83436:	440a      	add	r2, r1
   83438:	ebc3 4310 	rsb	r3, r3, r0, lsr #16
   8343c:	eb03 4322 	add.w	r3, r3, r2, asr #16
   83440:	b292      	uxth	r2, r2
   83442:	ea42 4203 	orr.w	r2, r2, r3, lsl #16
   83446:	45b1      	cmp	r9, r6
   83448:	f845 2b04 	str.w	r2, [r5], #4
   8344c:	ea4f 4323 	mov.w	r3, r3, asr #16
   83450:	d2ea      	bcs.n	83428 <quorem+0xc4>
   83452:	f85a 2027 	ldr.w	r2, [sl, r7, lsl #2]
   83456:	eb0a 0387 	add.w	r3, sl, r7, lsl #2
   8345a:	b97a      	cbnz	r2, 8347c <quorem+0x118>
   8345c:	1f1a      	subs	r2, r3, #4
   8345e:	4592      	cmp	sl, r2
   83460:	d20b      	bcs.n	8347a <quorem+0x116>
   83462:	f853 2c04 	ldr.w	r2, [r3, #-4]
   83466:	b942      	cbnz	r2, 8347a <quorem+0x116>
   83468:	3b08      	subs	r3, #8
   8346a:	e002      	b.n	83472 <quorem+0x10e>
   8346c:	681a      	ldr	r2, [r3, #0]
   8346e:	3b04      	subs	r3, #4
   83470:	b91a      	cbnz	r2, 8347a <quorem+0x116>
   83472:	459a      	cmp	sl, r3
   83474:	f107 37ff 	add.w	r7, r7, #4294967295
   83478:	d3f8      	bcc.n	8346c <quorem+0x108>
   8347a:	6127      	str	r7, [r4, #16]
   8347c:	4640      	mov	r0, r8
   8347e:	b003      	add	sp, #12
   83480:	e8bd 8ff0 	ldmia.w	sp!, {r4, r5, r6, r7, r8, r9, sl, fp, pc}
   83484:	2000      	movs	r0, #0
   83486:	b003      	add	sp, #12
   83488:	e8bd 8ff0 	ldmia.w	sp!, {r4, r5, r6, r7, r8, r9, sl, fp, pc}
   8348c:	0000      	movs	r0, r0
	...

00083490 <_dtoa_r>:
   83490:	e92d 4ff0 	stmdb	sp!, {r4, r5, r6, r7, r8, r9, sl, fp, lr}
   83494:	6c05      	ldr	r5, [r0, #64]	; 0x40
   83496:	b09b      	sub	sp, #108	; 0x6c
   83498:	4604      	mov	r4, r0
   8349a:	4692      	mov	sl, r2
   8349c:	469b      	mov	fp, r3
   8349e:	9e27      	ldr	r6, [sp, #156]	; 0x9c
   834a0:	b14d      	cbz	r5, 834b6 <_dtoa_r+0x26>
   834a2:	2301      	movs	r3, #1
   834a4:	6c42      	ldr	r2, [r0, #68]	; 0x44
   834a6:	4629      	mov	r1, r5
   834a8:	4093      	lsls	r3, r2
   834aa:	60ab      	str	r3, [r5, #8]
   834ac:	606a      	str	r2, [r5, #4]
   834ae:	f001 ffb5 	bl	8541c <_Bfree>
   834b2:	2300      	movs	r3, #0
   834b4:	6423      	str	r3, [r4, #64]	; 0x40
   834b6:	f1bb 0f00 	cmp.w	fp, #0
   834ba:	465d      	mov	r5, fp
   834bc:	db35      	blt.n	8352a <_dtoa_r+0x9a>
   834be:	2300      	movs	r3, #0
   834c0:	6033      	str	r3, [r6, #0]
   834c2:	4b9d      	ldr	r3, [pc, #628]	; (83738 <_dtoa_r+0x2a8>)
   834c4:	43ab      	bics	r3, r5
   834c6:	d015      	beq.n	834f4 <_dtoa_r+0x64>
   834c8:	2200      	movs	r2, #0
   834ca:	2300      	movs	r3, #0
   834cc:	4650      	mov	r0, sl
   834ce:	4659      	mov	r1, fp
   834d0:	f7fe fa3c 	bl	8194c <__aeabi_dcmpeq>
   834d4:	4680      	mov	r8, r0
   834d6:	2800      	cmp	r0, #0
   834d8:	d02d      	beq.n	83536 <_dtoa_r+0xa6>
   834da:	2301      	movs	r3, #1
   834dc:	9a26      	ldr	r2, [sp, #152]	; 0x98
   834de:	6013      	str	r3, [r2, #0]
   834e0:	9b28      	ldr	r3, [sp, #160]	; 0xa0
   834e2:	2b00      	cmp	r3, #0
   834e4:	f000 80bd 	beq.w	83662 <_dtoa_r+0x1d2>
   834e8:	4894      	ldr	r0, [pc, #592]	; (8373c <_dtoa_r+0x2ac>)
   834ea:	6018      	str	r0, [r3, #0]
   834ec:	3801      	subs	r0, #1
   834ee:	b01b      	add	sp, #108	; 0x6c
   834f0:	e8bd 8ff0 	ldmia.w	sp!, {r4, r5, r6, r7, r8, r9, sl, fp, pc}
   834f4:	f242 730f 	movw	r3, #9999	; 0x270f
   834f8:	9a26      	ldr	r2, [sp, #152]	; 0x98
   834fa:	6013      	str	r3, [r2, #0]
   834fc:	f1ba 0f00 	cmp.w	sl, #0
   83500:	d10d      	bne.n	8351e <_dtoa_r+0x8e>
   83502:	f3c5 0513 	ubfx	r5, r5, #0, #20
   83506:	b955      	cbnz	r5, 8351e <_dtoa_r+0x8e>
   83508:	9b28      	ldr	r3, [sp, #160]	; 0xa0
   8350a:	488d      	ldr	r0, [pc, #564]	; (83740 <_dtoa_r+0x2b0>)
   8350c:	2b00      	cmp	r3, #0
   8350e:	d0ee      	beq.n	834ee <_dtoa_r+0x5e>
   83510:	f100 0308 	add.w	r3, r0, #8
   83514:	9a28      	ldr	r2, [sp, #160]	; 0xa0
   83516:	6013      	str	r3, [r2, #0]
   83518:	b01b      	add	sp, #108	; 0x6c
   8351a:	e8bd 8ff0 	ldmia.w	sp!, {r4, r5, r6, r7, r8, r9, sl, fp, pc}
   8351e:	9b28      	ldr	r3, [sp, #160]	; 0xa0
   83520:	4888      	ldr	r0, [pc, #544]	; (83744 <_dtoa_r+0x2b4>)
   83522:	2b00      	cmp	r3, #0
   83524:	d0e3      	beq.n	834ee <_dtoa_r+0x5e>
   83526:	1cc3      	adds	r3, r0, #3
   83528:	e7f4      	b.n	83514 <_dtoa_r+0x84>
   8352a:	2301      	movs	r3, #1
   8352c:	f02b 4500 	bic.w	r5, fp, #2147483648	; 0x80000000
   83530:	6033      	str	r3, [r6, #0]
   83532:	46ab      	mov	fp, r5
   83534:	e7c5      	b.n	834c2 <_dtoa_r+0x32>
   83536:	aa18      	add	r2, sp, #96	; 0x60
   83538:	ab19      	add	r3, sp, #100	; 0x64
   8353a:	9201      	str	r2, [sp, #4]
   8353c:	9300      	str	r3, [sp, #0]
   8353e:	4652      	mov	r2, sl
   83540:	465b      	mov	r3, fp
   83542:	4620      	mov	r0, r4
   83544:	f002 f9ec 	bl	85920 <__d2b>
   83548:	0d2b      	lsrs	r3, r5, #20
   8354a:	4681      	mov	r9, r0
   8354c:	d071      	beq.n	83632 <_dtoa_r+0x1a2>
   8354e:	4650      	mov	r0, sl
   83550:	f3cb 0213 	ubfx	r2, fp, #0, #20
   83554:	f042 517f 	orr.w	r1, r2, #1069547520	; 0x3fc00000
   83558:	9f18      	ldr	r7, [sp, #96]	; 0x60
   8355a:	f2a3 36ff 	subw	r6, r3, #1023	; 0x3ff
   8355e:	f8cd 8050 	str.w	r8, [sp, #80]	; 0x50
   83562:	f441 1140 	orr.w	r1, r1, #3145728	; 0x300000
   83566:	2200      	movs	r2, #0
   83568:	4b77      	ldr	r3, [pc, #476]	; (83748 <_dtoa_r+0x2b8>)
   8356a:	f7fd fbe7 	bl	80d3c <__aeabi_dsub>
   8356e:	a36c      	add	r3, pc, #432	; (adr r3, 83720 <_dtoa_r+0x290>)
   83570:	e9d3 2300 	ldrd	r2, r3, [r3]
   83574:	f7fd fd96 	bl	810a4 <__aeabi_dmul>
   83578:	a36b      	add	r3, pc, #428	; (adr r3, 83728 <_dtoa_r+0x298>)
   8357a:	e9d3 2300 	ldrd	r2, r3, [r3]
   8357e:	f7fd fbdf 	bl	80d40 <__adddf3>
   83582:	e9cd 0102 	strd	r0, r1, [sp, #8]
   83586:	4630      	mov	r0, r6
   83588:	f7fd fd26 	bl	80fd8 <__aeabi_i2d>
   8358c:	a368      	add	r3, pc, #416	; (adr r3, 83730 <_dtoa_r+0x2a0>)
   8358e:	e9d3 2300 	ldrd	r2, r3, [r3]
   83592:	f7fd fd87 	bl	810a4 <__aeabi_dmul>
   83596:	4602      	mov	r2, r0
   83598:	460b      	mov	r3, r1
   8359a:	e9dd 0102 	ldrd	r0, r1, [sp, #8]
   8359e:	f7fd fbcf 	bl	80d40 <__adddf3>
   835a2:	e9cd 0104 	strd	r0, r1, [sp, #16]
   835a6:	f7fd ff8f 	bl	814c8 <__aeabi_d2iz>
   835aa:	2200      	movs	r2, #0
   835ac:	9002      	str	r0, [sp, #8]
   835ae:	2300      	movs	r3, #0
   835b0:	e9dd 0104 	ldrd	r0, r1, [sp, #16]
   835b4:	f7fe f9d4 	bl	81960 <__aeabi_dcmplt>
   835b8:	2800      	cmp	r0, #0
   835ba:	f040 816d 	bne.w	83898 <_dtoa_r+0x408>
   835be:	9d02      	ldr	r5, [sp, #8]
   835c0:	2d16      	cmp	r5, #22
   835c2:	f200 8157 	bhi.w	83874 <_dtoa_r+0x3e4>
   835c6:	4961      	ldr	r1, [pc, #388]	; (8374c <_dtoa_r+0x2bc>)
   835c8:	4652      	mov	r2, sl
   835ca:	eb01 01c5 	add.w	r1, r1, r5, lsl #3
   835ce:	465b      	mov	r3, fp
   835d0:	e9d1 0100 	ldrd	r0, r1, [r1]
   835d4:	f7fe f9e2 	bl	8199c <__aeabi_dcmpgt>
   835d8:	2800      	cmp	r0, #0
   835da:	f000 81be 	beq.w	8395a <_dtoa_r+0x4ca>
   835de:	1e6b      	subs	r3, r5, #1
   835e0:	9302      	str	r3, [sp, #8]
   835e2:	2300      	movs	r3, #0
   835e4:	930e      	str	r3, [sp, #56]	; 0x38
   835e6:	1bbf      	subs	r7, r7, r6
   835e8:	1e7b      	subs	r3, r7, #1
   835ea:	9308      	str	r3, [sp, #32]
   835ec:	f100 814e 	bmi.w	8388c <_dtoa_r+0x3fc>
   835f0:	2300      	movs	r3, #0
   835f2:	930a      	str	r3, [sp, #40]	; 0x28
   835f4:	9b02      	ldr	r3, [sp, #8]
   835f6:	2b00      	cmp	r3, #0
   835f8:	f2c0 813f 	blt.w	8387a <_dtoa_r+0x3ea>
   835fc:	9a08      	ldr	r2, [sp, #32]
   835fe:	930d      	str	r3, [sp, #52]	; 0x34
   83600:	4611      	mov	r1, r2
   83602:	4419      	add	r1, r3
   83604:	2300      	movs	r3, #0
   83606:	9108      	str	r1, [sp, #32]
   83608:	930c      	str	r3, [sp, #48]	; 0x30
   8360a:	9b24      	ldr	r3, [sp, #144]	; 0x90
   8360c:	2b09      	cmp	r3, #9
   8360e:	d82a      	bhi.n	83666 <_dtoa_r+0x1d6>
   83610:	2b05      	cmp	r3, #5
   83612:	f340 8658 	ble.w	842c6 <_dtoa_r+0xe36>
   83616:	2500      	movs	r5, #0
   83618:	3b04      	subs	r3, #4
   8361a:	9324      	str	r3, [sp, #144]	; 0x90
   8361c:	9b24      	ldr	r3, [sp, #144]	; 0x90
   8361e:	3b02      	subs	r3, #2
   83620:	2b03      	cmp	r3, #3
   83622:	f200 863f 	bhi.w	842a4 <_dtoa_r+0xe14>
   83626:	e8df f013 	tbh	[pc, r3, lsl #1]
   8362a:	03ce      	.short	0x03ce
   8362c:	03d902c3 	.word	0x03d902c3
   83630:	045b      	.short	0x045b
   83632:	9f18      	ldr	r7, [sp, #96]	; 0x60
   83634:	9e19      	ldr	r6, [sp, #100]	; 0x64
   83636:	443e      	add	r6, r7
   83638:	f206 4332 	addw	r3, r6, #1074	; 0x432
   8363c:	2b20      	cmp	r3, #32
   8363e:	f340 8187 	ble.w	83950 <_dtoa_r+0x4c0>
   83642:	f1c3 0340 	rsb	r3, r3, #64	; 0x40
   83646:	f206 4012 	addw	r0, r6, #1042	; 0x412
   8364a:	409d      	lsls	r5, r3
   8364c:	fa2a f000 	lsr.w	r0, sl, r0
   83650:	4328      	orrs	r0, r5
   83652:	f7fd fcb1 	bl	80fb8 <__aeabi_ui2d>
   83656:	2301      	movs	r3, #1
   83658:	3e01      	subs	r6, #1
   8365a:	9314      	str	r3, [sp, #80]	; 0x50
   8365c:	f1a1 71f8 	sub.w	r1, r1, #32505856	; 0x1f00000
   83660:	e781      	b.n	83566 <_dtoa_r+0xd6>
   83662:	483b      	ldr	r0, [pc, #236]	; (83750 <_dtoa_r+0x2c0>)
   83664:	e743      	b.n	834ee <_dtoa_r+0x5e>
   83666:	2100      	movs	r1, #0
   83668:	4620      	mov	r0, r4
   8366a:	6461      	str	r1, [r4, #68]	; 0x44
   8366c:	9125      	str	r1, [sp, #148]	; 0x94
   8366e:	f001 feaf 	bl	853d0 <_Balloc>
   83672:	f04f 33ff 	mov.w	r3, #4294967295
   83676:	9307      	str	r3, [sp, #28]
   83678:	930f      	str	r3, [sp, #60]	; 0x3c
   8367a:	2301      	movs	r3, #1
   8367c:	9a25      	ldr	r2, [sp, #148]	; 0x94
   8367e:	9004      	str	r0, [sp, #16]
   83680:	6420      	str	r0, [r4, #64]	; 0x40
   83682:	9224      	str	r2, [sp, #144]	; 0x90
   83684:	930b      	str	r3, [sp, #44]	; 0x2c
   83686:	9b19      	ldr	r3, [sp, #100]	; 0x64
   83688:	2b00      	cmp	r3, #0
   8368a:	f2c0 80d3 	blt.w	83834 <_dtoa_r+0x3a4>
   8368e:	9a02      	ldr	r2, [sp, #8]
   83690:	2a0e      	cmp	r2, #14
   83692:	f300 80cf 	bgt.w	83834 <_dtoa_r+0x3a4>
   83696:	4b2d      	ldr	r3, [pc, #180]	; (8374c <_dtoa_r+0x2bc>)
   83698:	eb03 03c2 	add.w	r3, r3, r2, lsl #3
   8369c:	e9d3 2300 	ldrd	r2, r3, [r3]
   836a0:	e9cd 2308 	strd	r2, r3, [sp, #32]
   836a4:	9b25      	ldr	r3, [sp, #148]	; 0x94
   836a6:	2b00      	cmp	r3, #0
   836a8:	f2c0 83b4 	blt.w	83e14 <_dtoa_r+0x984>
   836ac:	e9dd 5608 	ldrd	r5, r6, [sp, #32]
   836b0:	4650      	mov	r0, sl
   836b2:	462a      	mov	r2, r5
   836b4:	4633      	mov	r3, r6
   836b6:	4659      	mov	r1, fp
   836b8:	f7fd fe1e 	bl	812f8 <__aeabi_ddiv>
   836bc:	f7fd ff04 	bl	814c8 <__aeabi_d2iz>
   836c0:	4680      	mov	r8, r0
   836c2:	f7fd fc89 	bl	80fd8 <__aeabi_i2d>
   836c6:	462a      	mov	r2, r5
   836c8:	4633      	mov	r3, r6
   836ca:	f7fd fceb 	bl	810a4 <__aeabi_dmul>
   836ce:	4602      	mov	r2, r0
   836d0:	460b      	mov	r3, r1
   836d2:	4650      	mov	r0, sl
   836d4:	4659      	mov	r1, fp
   836d6:	f7fd fb31 	bl	80d3c <__aeabi_dsub>
   836da:	9e07      	ldr	r6, [sp, #28]
   836dc:	9f04      	ldr	r7, [sp, #16]
   836de:	f108 0530 	add.w	r5, r8, #48	; 0x30
   836e2:	2e01      	cmp	r6, #1
   836e4:	703d      	strb	r5, [r7, #0]
   836e6:	4602      	mov	r2, r0
   836e8:	460b      	mov	r3, r1
   836ea:	f107 0501 	add.w	r5, r7, #1
   836ee:	d064      	beq.n	837ba <_dtoa_r+0x32a>
   836f0:	2200      	movs	r2, #0
   836f2:	4b18      	ldr	r3, [pc, #96]	; (83754 <_dtoa_r+0x2c4>)
   836f4:	f7fd fcd6 	bl	810a4 <__aeabi_dmul>
   836f8:	2200      	movs	r2, #0
   836fa:	2300      	movs	r3, #0
   836fc:	4606      	mov	r6, r0
   836fe:	460f      	mov	r7, r1
   83700:	f7fe f924 	bl	8194c <__aeabi_dcmpeq>
   83704:	2800      	cmp	r0, #0
   83706:	f040 8082 	bne.w	8380e <_dtoa_r+0x37e>
   8370a:	f8cd 9028 	str.w	r9, [sp, #40]	; 0x28
   8370e:	f04f 0a00 	mov.w	sl, #0
   83712:	e9dd 8908 	ldrd	r8, r9, [sp, #32]
   83716:	f04f 0b00 	mov.w	fp, #0
   8371a:	940b      	str	r4, [sp, #44]	; 0x2c
   8371c:	e029      	b.n	83772 <_dtoa_r+0x2e2>
   8371e:	bf00      	nop
   83720:	636f4361 	.word	0x636f4361
   83724:	3fd287a7 	.word	0x3fd287a7
   83728:	8b60c8b3 	.word	0x8b60c8b3
   8372c:	3fc68a28 	.word	0x3fc68a28
   83730:	509f79fb 	.word	0x509f79fb
   83734:	3fd34413 	.word	0x3fd34413
   83738:	7ff00000 	.word	0x7ff00000
   8373c:	000864a5 	.word	0x000864a5
   83740:	000864c8 	.word	0x000864c8
   83744:	000864d4 	.word	0x000864d4
   83748:	3ff80000 	.word	0x3ff80000
   8374c:	00086500 	.word	0x00086500
   83750:	000864a4 	.word	0x000864a4
   83754:	40240000 	.word	0x40240000
   83758:	2200      	movs	r2, #0
   8375a:	4b81      	ldr	r3, [pc, #516]	; (83960 <_dtoa_r+0x4d0>)
   8375c:	f7fd fca2 	bl	810a4 <__aeabi_dmul>
   83760:	4652      	mov	r2, sl
   83762:	465b      	mov	r3, fp
   83764:	4606      	mov	r6, r0
   83766:	460f      	mov	r7, r1
   83768:	f7fe f8f0 	bl	8194c <__aeabi_dcmpeq>
   8376c:	2800      	cmp	r0, #0
   8376e:	f040 83ba 	bne.w	83ee6 <_dtoa_r+0xa56>
   83772:	4642      	mov	r2, r8
   83774:	464b      	mov	r3, r9
   83776:	4630      	mov	r0, r6
   83778:	4639      	mov	r1, r7
   8377a:	f7fd fdbd 	bl	812f8 <__aeabi_ddiv>
   8377e:	f7fd fea3 	bl	814c8 <__aeabi_d2iz>
   83782:	4604      	mov	r4, r0
   83784:	f7fd fc28 	bl	80fd8 <__aeabi_i2d>
   83788:	4642      	mov	r2, r8
   8378a:	464b      	mov	r3, r9
   8378c:	f7fd fc8a 	bl	810a4 <__aeabi_dmul>
   83790:	4602      	mov	r2, r0
   83792:	460b      	mov	r3, r1
   83794:	4630      	mov	r0, r6
   83796:	4639      	mov	r1, r7
   83798:	f7fd fad0 	bl	80d3c <__aeabi_dsub>
   8379c:	f104 0630 	add.w	r6, r4, #48	; 0x30
   837a0:	f805 6b01 	strb.w	r6, [r5], #1
   837a4:	9e04      	ldr	r6, [sp, #16]
   837a6:	9f07      	ldr	r7, [sp, #28]
   837a8:	1bae      	subs	r6, r5, r6
   837aa:	42be      	cmp	r6, r7
   837ac:	4602      	mov	r2, r0
   837ae:	460b      	mov	r3, r1
   837b0:	d1d2      	bne.n	83758 <_dtoa_r+0x2c8>
   837b2:	46a0      	mov	r8, r4
   837b4:	f8dd 9028 	ldr.w	r9, [sp, #40]	; 0x28
   837b8:	9c0b      	ldr	r4, [sp, #44]	; 0x2c
   837ba:	4610      	mov	r0, r2
   837bc:	4619      	mov	r1, r3
   837be:	f7fd fabf 	bl	80d40 <__adddf3>
   837c2:	4606      	mov	r6, r0
   837c4:	460f      	mov	r7, r1
   837c6:	4602      	mov	r2, r0
   837c8:	460b      	mov	r3, r1
   837ca:	e9dd 0108 	ldrd	r0, r1, [sp, #32]
   837ce:	f7fe f8c7 	bl	81960 <__aeabi_dcmplt>
   837d2:	b948      	cbnz	r0, 837e8 <_dtoa_r+0x358>
   837d4:	e9dd 0108 	ldrd	r0, r1, [sp, #32]
   837d8:	4632      	mov	r2, r6
   837da:	463b      	mov	r3, r7
   837dc:	f7fe f8b6 	bl	8194c <__aeabi_dcmpeq>
   837e0:	b1a8      	cbz	r0, 8380e <_dtoa_r+0x37e>
   837e2:	f018 0f01 	tst.w	r8, #1
   837e6:	d012      	beq.n	8380e <_dtoa_r+0x37e>
   837e8:	f815 8c01 	ldrb.w	r8, [r5, #-1]
   837ec:	1e6b      	subs	r3, r5, #1
   837ee:	9a04      	ldr	r2, [sp, #16]
   837f0:	e004      	b.n	837fc <_dtoa_r+0x36c>
   837f2:	429a      	cmp	r2, r3
   837f4:	f000 8402 	beq.w	83ffc <_dtoa_r+0xb6c>
   837f8:	f813 8d01 	ldrb.w	r8, [r3, #-1]!
   837fc:	f1b8 0f39 	cmp.w	r8, #57	; 0x39
   83800:	f103 0501 	add.w	r5, r3, #1
   83804:	d0f5      	beq.n	837f2 <_dtoa_r+0x362>
   83806:	f108 0801 	add.w	r8, r8, #1
   8380a:	f883 8000 	strb.w	r8, [r3]
   8380e:	4649      	mov	r1, r9
   83810:	4620      	mov	r0, r4
   83812:	f001 fe03 	bl	8541c <_Bfree>
   83816:	2200      	movs	r2, #0
   83818:	9b02      	ldr	r3, [sp, #8]
   8381a:	702a      	strb	r2, [r5, #0]
   8381c:	9a26      	ldr	r2, [sp, #152]	; 0x98
   8381e:	3301      	adds	r3, #1
   83820:	6013      	str	r3, [r2, #0]
   83822:	9b28      	ldr	r3, [sp, #160]	; 0xa0
   83824:	2b00      	cmp	r3, #0
   83826:	f000 839f 	beq.w	83f68 <_dtoa_r+0xad8>
   8382a:	9804      	ldr	r0, [sp, #16]
   8382c:	601d      	str	r5, [r3, #0]
   8382e:	b01b      	add	sp, #108	; 0x6c
   83830:	e8bd 8ff0 	ldmia.w	sp!, {r4, r5, r6, r7, r8, r9, sl, fp, pc}
   83834:	9a0b      	ldr	r2, [sp, #44]	; 0x2c
   83836:	2a00      	cmp	r2, #0
   83838:	d03e      	beq.n	838b8 <_dtoa_r+0x428>
   8383a:	9a24      	ldr	r2, [sp, #144]	; 0x90
   8383c:	2a01      	cmp	r2, #1
   8383e:	f340 8311 	ble.w	83e64 <_dtoa_r+0x9d4>
   83842:	9b07      	ldr	r3, [sp, #28]
   83844:	9a0c      	ldr	r2, [sp, #48]	; 0x30
   83846:	1e5f      	subs	r7, r3, #1
   83848:	42ba      	cmp	r2, r7
   8384a:	f2c0 8390 	blt.w	83f6e <_dtoa_r+0xade>
   8384e:	1bd7      	subs	r7, r2, r7
   83850:	9b07      	ldr	r3, [sp, #28]
   83852:	2b00      	cmp	r3, #0
   83854:	f2c0 848c 	blt.w	84170 <_dtoa_r+0xce0>
   83858:	9d0a      	ldr	r5, [sp, #40]	; 0x28
   8385a:	9b07      	ldr	r3, [sp, #28]
   8385c:	9a0a      	ldr	r2, [sp, #40]	; 0x28
   8385e:	2101      	movs	r1, #1
   83860:	441a      	add	r2, r3
   83862:	920a      	str	r2, [sp, #40]	; 0x28
   83864:	9a08      	ldr	r2, [sp, #32]
   83866:	4620      	mov	r0, r4
   83868:	441a      	add	r2, r3
   8386a:	9208      	str	r2, [sp, #32]
   8386c:	f001 fe72 	bl	85554 <__i2b>
   83870:	4606      	mov	r6, r0
   83872:	e023      	b.n	838bc <_dtoa_r+0x42c>
   83874:	2301      	movs	r3, #1
   83876:	930e      	str	r3, [sp, #56]	; 0x38
   83878:	e6b5      	b.n	835e6 <_dtoa_r+0x156>
   8387a:	2300      	movs	r3, #0
   8387c:	9a0a      	ldr	r2, [sp, #40]	; 0x28
   8387e:	930d      	str	r3, [sp, #52]	; 0x34
   83880:	9b02      	ldr	r3, [sp, #8]
   83882:	1ad2      	subs	r2, r2, r3
   83884:	425b      	negs	r3, r3
   83886:	920a      	str	r2, [sp, #40]	; 0x28
   83888:	930c      	str	r3, [sp, #48]	; 0x30
   8388a:	e6be      	b.n	8360a <_dtoa_r+0x17a>
   8388c:	f1c7 0301 	rsb	r3, r7, #1
   83890:	930a      	str	r3, [sp, #40]	; 0x28
   83892:	2300      	movs	r3, #0
   83894:	9308      	str	r3, [sp, #32]
   83896:	e6ad      	b.n	835f4 <_dtoa_r+0x164>
   83898:	9d02      	ldr	r5, [sp, #8]
   8389a:	4628      	mov	r0, r5
   8389c:	f7fd fb9c 	bl	80fd8 <__aeabi_i2d>
   838a0:	4602      	mov	r2, r0
   838a2:	460b      	mov	r3, r1
   838a4:	e9dd 0104 	ldrd	r0, r1, [sp, #16]
   838a8:	f7fe f850 	bl	8194c <__aeabi_dcmpeq>
   838ac:	2800      	cmp	r0, #0
   838ae:	f47f ae86 	bne.w	835be <_dtoa_r+0x12e>
   838b2:	1e6b      	subs	r3, r5, #1
   838b4:	9302      	str	r3, [sp, #8]
   838b6:	e682      	b.n	835be <_dtoa_r+0x12e>
   838b8:	ad0a      	add	r5, sp, #40	; 0x28
   838ba:	cde0      	ldmia	r5, {r5, r6, r7}
   838bc:	2d00      	cmp	r5, #0
   838be:	dd0c      	ble.n	838da <_dtoa_r+0x44a>
   838c0:	9908      	ldr	r1, [sp, #32]
   838c2:	2900      	cmp	r1, #0
   838c4:	460b      	mov	r3, r1
   838c6:	dd08      	ble.n	838da <_dtoa_r+0x44a>
   838c8:	42a9      	cmp	r1, r5
   838ca:	bfa8      	it	ge
   838cc:	462b      	movge	r3, r5
   838ce:	9a0a      	ldr	r2, [sp, #40]	; 0x28
   838d0:	1aed      	subs	r5, r5, r3
   838d2:	1ad2      	subs	r2, r2, r3
   838d4:	1acb      	subs	r3, r1, r3
   838d6:	920a      	str	r2, [sp, #40]	; 0x28
   838d8:	9308      	str	r3, [sp, #32]
   838da:	9b0c      	ldr	r3, [sp, #48]	; 0x30
   838dc:	b1d3      	cbz	r3, 83914 <_dtoa_r+0x484>
   838de:	9b0b      	ldr	r3, [sp, #44]	; 0x2c
   838e0:	2b00      	cmp	r3, #0
   838e2:	f000 82b8 	beq.w	83e56 <_dtoa_r+0x9c6>
   838e6:	2f00      	cmp	r7, #0
   838e8:	dd10      	ble.n	8390c <_dtoa_r+0x47c>
   838ea:	4631      	mov	r1, r6
   838ec:	463a      	mov	r2, r7
   838ee:	4620      	mov	r0, r4
   838f0:	f001 fecc 	bl	8568c <__pow5mult>
   838f4:	464a      	mov	r2, r9
   838f6:	4601      	mov	r1, r0
   838f8:	4606      	mov	r6, r0
   838fa:	4620      	mov	r0, r4
   838fc:	f001 fe34 	bl	85568 <__multiply>
   83900:	4603      	mov	r3, r0
   83902:	4649      	mov	r1, r9
   83904:	4620      	mov	r0, r4
   83906:	4699      	mov	r9, r3
   83908:	f001 fd88 	bl	8541c <_Bfree>
   8390c:	9b0c      	ldr	r3, [sp, #48]	; 0x30
   8390e:	1bda      	subs	r2, r3, r7
   83910:	f040 82a2 	bne.w	83e58 <_dtoa_r+0x9c8>
   83914:	2101      	movs	r1, #1
   83916:	4620      	mov	r0, r4
   83918:	f001 fe1c 	bl	85554 <__i2b>
   8391c:	9b0d      	ldr	r3, [sp, #52]	; 0x34
   8391e:	4680      	mov	r8, r0
   83920:	2b00      	cmp	r3, #0
   83922:	dd1f      	ble.n	83964 <_dtoa_r+0x4d4>
   83924:	4601      	mov	r1, r0
   83926:	461a      	mov	r2, r3
   83928:	4620      	mov	r0, r4
   8392a:	f001 feaf 	bl	8568c <__pow5mult>
   8392e:	9b24      	ldr	r3, [sp, #144]	; 0x90
   83930:	4680      	mov	r8, r0
   83932:	2b01      	cmp	r3, #1
   83934:	f340 8255 	ble.w	83de2 <_dtoa_r+0x952>
   83938:	2300      	movs	r3, #0
   8393a:	930c      	str	r3, [sp, #48]	; 0x30
   8393c:	f8d8 3010 	ldr.w	r3, [r8, #16]
   83940:	eb08 0383 	add.w	r3, r8, r3, lsl #2
   83944:	6918      	ldr	r0, [r3, #16]
   83946:	f001 fdb5 	bl	854b4 <__hi0bits>
   8394a:	f1c0 0020 	rsb	r0, r0, #32
   8394e:	e013      	b.n	83978 <_dtoa_r+0x4e8>
   83950:	f1c3 0520 	rsb	r5, r3, #32
   83954:	fa0a f005 	lsl.w	r0, sl, r5
   83958:	e67b      	b.n	83652 <_dtoa_r+0x1c2>
   8395a:	900e      	str	r0, [sp, #56]	; 0x38
   8395c:	e643      	b.n	835e6 <_dtoa_r+0x156>
   8395e:	bf00      	nop
   83960:	40240000 	.word	0x40240000
   83964:	9b24      	ldr	r3, [sp, #144]	; 0x90
   83966:	2b01      	cmp	r3, #1
   83968:	f340 8285 	ble.w	83e76 <_dtoa_r+0x9e6>
   8396c:	2300      	movs	r3, #0
   8396e:	930c      	str	r3, [sp, #48]	; 0x30
   83970:	9b0d      	ldr	r3, [sp, #52]	; 0x34
   83972:	2001      	movs	r0, #1
   83974:	2b00      	cmp	r3, #0
   83976:	d1e1      	bne.n	8393c <_dtoa_r+0x4ac>
   83978:	9a08      	ldr	r2, [sp, #32]
   8397a:	4410      	add	r0, r2
   8397c:	f010 001f 	ands.w	r0, r0, #31
   83980:	f000 80a1 	beq.w	83ac6 <_dtoa_r+0x636>
   83984:	f1c0 0320 	rsb	r3, r0, #32
   83988:	2b04      	cmp	r3, #4
   8398a:	f340 8486 	ble.w	8429a <_dtoa_r+0xe0a>
   8398e:	9b0a      	ldr	r3, [sp, #40]	; 0x28
   83990:	f1c0 001c 	rsb	r0, r0, #28
   83994:	4403      	add	r3, r0
   83996:	930a      	str	r3, [sp, #40]	; 0x28
   83998:	4613      	mov	r3, r2
   8399a:	4403      	add	r3, r0
   8399c:	4405      	add	r5, r0
   8399e:	9308      	str	r3, [sp, #32]
   839a0:	9b0a      	ldr	r3, [sp, #40]	; 0x28
   839a2:	2b00      	cmp	r3, #0
   839a4:	dd05      	ble.n	839b2 <_dtoa_r+0x522>
   839a6:	4649      	mov	r1, r9
   839a8:	461a      	mov	r2, r3
   839aa:	4620      	mov	r0, r4
   839ac:	f001 febe 	bl	8572c <__lshift>
   839b0:	4681      	mov	r9, r0
   839b2:	9b08      	ldr	r3, [sp, #32]
   839b4:	2b00      	cmp	r3, #0
   839b6:	dd05      	ble.n	839c4 <_dtoa_r+0x534>
   839b8:	4641      	mov	r1, r8
   839ba:	461a      	mov	r2, r3
   839bc:	4620      	mov	r0, r4
   839be:	f001 feb5 	bl	8572c <__lshift>
   839c2:	4680      	mov	r8, r0
   839c4:	9b0e      	ldr	r3, [sp, #56]	; 0x38
   839c6:	2b00      	cmp	r3, #0
   839c8:	f040 8086 	bne.w	83ad8 <_dtoa_r+0x648>
   839cc:	9b07      	ldr	r3, [sp, #28]
   839ce:	2b00      	cmp	r3, #0
   839d0:	f340 8264 	ble.w	83e9c <_dtoa_r+0xa0c>
   839d4:	9b0b      	ldr	r3, [sp, #44]	; 0x2c
   839d6:	2b00      	cmp	r3, #0
   839d8:	f000 8098 	beq.w	83b0c <_dtoa_r+0x67c>
   839dc:	2d00      	cmp	r5, #0
   839de:	dd05      	ble.n	839ec <_dtoa_r+0x55c>
   839e0:	4631      	mov	r1, r6
   839e2:	462a      	mov	r2, r5
   839e4:	4620      	mov	r0, r4
   839e6:	f001 fea1 	bl	8572c <__lshift>
   839ea:	4606      	mov	r6, r0
   839ec:	9b0c      	ldr	r3, [sp, #48]	; 0x30
   839ee:	2b00      	cmp	r3, #0
   839f0:	f040 8336 	bne.w	84060 <_dtoa_r+0xbd0>
   839f4:	9608      	str	r6, [sp, #32]
   839f6:	9b07      	ldr	r3, [sp, #28]
   839f8:	9a04      	ldr	r2, [sp, #16]
   839fa:	3b01      	subs	r3, #1
   839fc:	18d3      	adds	r3, r2, r3
   839fe:	930b      	str	r3, [sp, #44]	; 0x2c
   83a00:	4617      	mov	r7, r2
   83a02:	f00a 0301 	and.w	r3, sl, #1
   83a06:	46c2      	mov	sl, r8
   83a08:	f8dd b020 	ldr.w	fp, [sp, #32]
   83a0c:	930c      	str	r3, [sp, #48]	; 0x30
   83a0e:	4651      	mov	r1, sl
   83a10:	4648      	mov	r0, r9
   83a12:	f7ff fca7 	bl	83364 <quorem>
   83a16:	4631      	mov	r1, r6
   83a18:	4605      	mov	r5, r0
   83a1a:	4648      	mov	r0, r9
   83a1c:	f001 fed6 	bl	857cc <__mcmp>
   83a20:	465a      	mov	r2, fp
   83a22:	9007      	str	r0, [sp, #28]
   83a24:	4651      	mov	r1, sl
   83a26:	4620      	mov	r0, r4
   83a28:	f001 feec 	bl	85804 <__mdiff>
   83a2c:	68c2      	ldr	r2, [r0, #12]
   83a2e:	4680      	mov	r8, r0
   83a30:	f105 0330 	add.w	r3, r5, #48	; 0x30
   83a34:	2a00      	cmp	r2, #0
   83a36:	f040 8229 	bne.w	83e8c <_dtoa_r+0x9fc>
   83a3a:	4601      	mov	r1, r0
   83a3c:	4648      	mov	r0, r9
   83a3e:	930a      	str	r3, [sp, #40]	; 0x28
   83a40:	f001 fec4 	bl	857cc <__mcmp>
   83a44:	4641      	mov	r1, r8
   83a46:	9008      	str	r0, [sp, #32]
   83a48:	4620      	mov	r0, r4
   83a4a:	f001 fce7 	bl	8541c <_Bfree>
   83a4e:	9a08      	ldr	r2, [sp, #32]
   83a50:	9b0a      	ldr	r3, [sp, #40]	; 0x28
   83a52:	b932      	cbnz	r2, 83a62 <_dtoa_r+0x5d2>
   83a54:	9924      	ldr	r1, [sp, #144]	; 0x90
   83a56:	b921      	cbnz	r1, 83a62 <_dtoa_r+0x5d2>
   83a58:	9a0c      	ldr	r2, [sp, #48]	; 0x30
   83a5a:	2a00      	cmp	r2, #0
   83a5c:	f000 83ee 	beq.w	8423c <_dtoa_r+0xdac>
   83a60:	9a24      	ldr	r2, [sp, #144]	; 0x90
   83a62:	9907      	ldr	r1, [sp, #28]
   83a64:	2900      	cmp	r1, #0
   83a66:	f2c0 829f 	blt.w	83fa8 <_dtoa_r+0xb18>
   83a6a:	d105      	bne.n	83a78 <_dtoa_r+0x5e8>
   83a6c:	9924      	ldr	r1, [sp, #144]	; 0x90
   83a6e:	b919      	cbnz	r1, 83a78 <_dtoa_r+0x5e8>
   83a70:	990c      	ldr	r1, [sp, #48]	; 0x30
   83a72:	2900      	cmp	r1, #0
   83a74:	f000 8298 	beq.w	83fa8 <_dtoa_r+0xb18>
   83a78:	2a00      	cmp	r2, #0
   83a7a:	f300 8305 	bgt.w	84088 <_dtoa_r+0xbf8>
   83a7e:	9a0b      	ldr	r2, [sp, #44]	; 0x2c
   83a80:	f107 0801 	add.w	r8, r7, #1
   83a84:	4297      	cmp	r7, r2
   83a86:	703b      	strb	r3, [r7, #0]
   83a88:	4645      	mov	r5, r8
   83a8a:	f000 830b 	beq.w	840a4 <_dtoa_r+0xc14>
   83a8e:	4649      	mov	r1, r9
   83a90:	2300      	movs	r3, #0
   83a92:	220a      	movs	r2, #10
   83a94:	4620      	mov	r0, r4
   83a96:	f001 fccb 	bl	85430 <__multadd>
   83a9a:	455e      	cmp	r6, fp
   83a9c:	4681      	mov	r9, r0
   83a9e:	4631      	mov	r1, r6
   83aa0:	f04f 0300 	mov.w	r3, #0
   83aa4:	f04f 020a 	mov.w	r2, #10
   83aa8:	4620      	mov	r0, r4
   83aaa:	f000 81e9 	beq.w	83e80 <_dtoa_r+0x9f0>
   83aae:	f001 fcbf 	bl	85430 <__multadd>
   83ab2:	4659      	mov	r1, fp
   83ab4:	4606      	mov	r6, r0
   83ab6:	2300      	movs	r3, #0
   83ab8:	220a      	movs	r2, #10
   83aba:	4620      	mov	r0, r4
   83abc:	f001 fcb8 	bl	85430 <__multadd>
   83ac0:	4647      	mov	r7, r8
   83ac2:	4683      	mov	fp, r0
   83ac4:	e7a3      	b.n	83a0e <_dtoa_r+0x57e>
   83ac6:	201c      	movs	r0, #28
   83ac8:	9b0a      	ldr	r3, [sp, #40]	; 0x28
   83aca:	4405      	add	r5, r0
   83acc:	4403      	add	r3, r0
   83ace:	930a      	str	r3, [sp, #40]	; 0x28
   83ad0:	9b08      	ldr	r3, [sp, #32]
   83ad2:	4403      	add	r3, r0
   83ad4:	9308      	str	r3, [sp, #32]
   83ad6:	e763      	b.n	839a0 <_dtoa_r+0x510>
   83ad8:	4641      	mov	r1, r8
   83ada:	4648      	mov	r0, r9
   83adc:	f001 fe76 	bl	857cc <__mcmp>
   83ae0:	2800      	cmp	r0, #0
   83ae2:	f6bf af73 	bge.w	839cc <_dtoa_r+0x53c>
   83ae6:	9f02      	ldr	r7, [sp, #8]
   83ae8:	4649      	mov	r1, r9
   83aea:	2300      	movs	r3, #0
   83aec:	220a      	movs	r2, #10
   83aee:	4620      	mov	r0, r4
   83af0:	3f01      	subs	r7, #1
   83af2:	9702      	str	r7, [sp, #8]
   83af4:	f001 fc9c 	bl	85430 <__multadd>
   83af8:	9b0b      	ldr	r3, [sp, #44]	; 0x2c
   83afa:	4681      	mov	r9, r0
   83afc:	2b00      	cmp	r3, #0
   83afe:	f040 83b5 	bne.w	8426c <_dtoa_r+0xddc>
   83b02:	9b0f      	ldr	r3, [sp, #60]	; 0x3c
   83b04:	2b00      	cmp	r3, #0
   83b06:	f340 83be 	ble.w	84286 <_dtoa_r+0xdf6>
   83b0a:	9307      	str	r3, [sp, #28]
   83b0c:	f8dd a010 	ldr.w	sl, [sp, #16]
   83b10:	9f07      	ldr	r7, [sp, #28]
   83b12:	4655      	mov	r5, sl
   83b14:	e006      	b.n	83b24 <_dtoa_r+0x694>
   83b16:	4649      	mov	r1, r9
   83b18:	2300      	movs	r3, #0
   83b1a:	220a      	movs	r2, #10
   83b1c:	4620      	mov	r0, r4
   83b1e:	f001 fc87 	bl	85430 <__multadd>
   83b22:	4681      	mov	r9, r0
   83b24:	4641      	mov	r1, r8
   83b26:	4648      	mov	r0, r9
   83b28:	f7ff fc1c 	bl	83364 <quorem>
   83b2c:	3030      	adds	r0, #48	; 0x30
   83b2e:	f805 0b01 	strb.w	r0, [r5], #1
   83b32:	eba5 030a 	sub.w	r3, r5, sl
   83b36:	42bb      	cmp	r3, r7
   83b38:	dbed      	blt.n	83b16 <_dtoa_r+0x686>
   83b3a:	9b04      	ldr	r3, [sp, #16]
   83b3c:	9a07      	ldr	r2, [sp, #28]
   83b3e:	4682      	mov	sl, r0
   83b40:	2a01      	cmp	r2, #1
   83b42:	bfac      	ite	ge
   83b44:	189b      	addge	r3, r3, r2
   83b46:	3301      	addlt	r3, #1
   83b48:	f04f 0b00 	mov.w	fp, #0
   83b4c:	461d      	mov	r5, r3
   83b4e:	4649      	mov	r1, r9
   83b50:	2201      	movs	r2, #1
   83b52:	4620      	mov	r0, r4
   83b54:	f001 fdea 	bl	8572c <__lshift>
   83b58:	4641      	mov	r1, r8
   83b5a:	4681      	mov	r9, r0
   83b5c:	f001 fe36 	bl	857cc <__mcmp>
   83b60:	2800      	cmp	r0, #0
   83b62:	f340 823f 	ble.w	83fe4 <_dtoa_r+0xb54>
   83b66:	f815 2c01 	ldrb.w	r2, [r5, #-1]
   83b6a:	1e6b      	subs	r3, r5, #1
   83b6c:	9904      	ldr	r1, [sp, #16]
   83b6e:	e004      	b.n	83b7a <_dtoa_r+0x6ea>
   83b70:	428b      	cmp	r3, r1
   83b72:	f000 81ae 	beq.w	83ed2 <_dtoa_r+0xa42>
   83b76:	f813 2d01 	ldrb.w	r2, [r3, #-1]!
   83b7a:	2a39      	cmp	r2, #57	; 0x39
   83b7c:	f103 0501 	add.w	r5, r3, #1
   83b80:	d0f6      	beq.n	83b70 <_dtoa_r+0x6e0>
   83b82:	3201      	adds	r2, #1
   83b84:	701a      	strb	r2, [r3, #0]
   83b86:	4641      	mov	r1, r8
   83b88:	4620      	mov	r0, r4
   83b8a:	f001 fc47 	bl	8541c <_Bfree>
   83b8e:	2e00      	cmp	r6, #0
   83b90:	f43f ae3d 	beq.w	8380e <_dtoa_r+0x37e>
   83b94:	f1bb 0f00 	cmp.w	fp, #0
   83b98:	d005      	beq.n	83ba6 <_dtoa_r+0x716>
   83b9a:	45b3      	cmp	fp, r6
   83b9c:	d003      	beq.n	83ba6 <_dtoa_r+0x716>
   83b9e:	4659      	mov	r1, fp
   83ba0:	4620      	mov	r0, r4
   83ba2:	f001 fc3b 	bl	8541c <_Bfree>
   83ba6:	4631      	mov	r1, r6
   83ba8:	4620      	mov	r0, r4
   83baa:	f001 fc37 	bl	8541c <_Bfree>
   83bae:	e62e      	b.n	8380e <_dtoa_r+0x37e>
   83bb0:	2300      	movs	r3, #0
   83bb2:	930b      	str	r3, [sp, #44]	; 0x2c
   83bb4:	9b02      	ldr	r3, [sp, #8]
   83bb6:	9a25      	ldr	r2, [sp, #148]	; 0x94
   83bb8:	4413      	add	r3, r2
   83bba:	930f      	str	r3, [sp, #60]	; 0x3c
   83bbc:	3301      	adds	r3, #1
   83bbe:	2b01      	cmp	r3, #1
   83bc0:	461f      	mov	r7, r3
   83bc2:	461e      	mov	r6, r3
   83bc4:	bfb8      	it	lt
   83bc6:	2701      	movlt	r7, #1
   83bc8:	9307      	str	r3, [sp, #28]
   83bca:	2100      	movs	r1, #0
   83bcc:	2f17      	cmp	r7, #23
   83bce:	6461      	str	r1, [r4, #68]	; 0x44
   83bd0:	d90a      	bls.n	83be8 <_dtoa_r+0x758>
   83bd2:	2201      	movs	r2, #1
   83bd4:	2304      	movs	r3, #4
   83bd6:	005b      	lsls	r3, r3, #1
   83bd8:	f103 0014 	add.w	r0, r3, #20
   83bdc:	4287      	cmp	r7, r0
   83bde:	4611      	mov	r1, r2
   83be0:	f102 0201 	add.w	r2, r2, #1
   83be4:	d2f7      	bcs.n	83bd6 <_dtoa_r+0x746>
   83be6:	6461      	str	r1, [r4, #68]	; 0x44
   83be8:	4620      	mov	r0, r4
   83bea:	f001 fbf1 	bl	853d0 <_Balloc>
   83bee:	2e0e      	cmp	r6, #14
   83bf0:	9004      	str	r0, [sp, #16]
   83bf2:	6420      	str	r0, [r4, #64]	; 0x40
   83bf4:	f63f ad47 	bhi.w	83686 <_dtoa_r+0x1f6>
   83bf8:	2d00      	cmp	r5, #0
   83bfa:	f43f ad44 	beq.w	83686 <_dtoa_r+0x1f6>
   83bfe:	9902      	ldr	r1, [sp, #8]
   83c00:	e9cd ab10 	strd	sl, fp, [sp, #64]	; 0x40
   83c04:	2900      	cmp	r1, #0
   83c06:	f340 8203 	ble.w	84010 <_dtoa_r+0xb80>
   83c0a:	4bb9      	ldr	r3, [pc, #740]	; (83ef0 <_dtoa_r+0xa60>)
   83c0c:	f001 020f 	and.w	r2, r1, #15
   83c10:	110d      	asrs	r5, r1, #4
   83c12:	eb03 03c2 	add.w	r3, r3, r2, lsl #3
   83c16:	06e9      	lsls	r1, r5, #27
   83c18:	e9d3 6700 	ldrd	r6, r7, [r3]
   83c1c:	f140 81af 	bpl.w	83f7e <_dtoa_r+0xaee>
   83c20:	4bb4      	ldr	r3, [pc, #720]	; (83ef4 <_dtoa_r+0xa64>)
   83c22:	4650      	mov	r0, sl
   83c24:	e9d3 2308 	ldrd	r2, r3, [r3, #32]
   83c28:	4659      	mov	r1, fp
   83c2a:	f7fd fb65 	bl	812f8 <__aeabi_ddiv>
   83c2e:	f04f 0a03 	mov.w	sl, #3
   83c32:	e9cd 0112 	strd	r0, r1, [sp, #72]	; 0x48
   83c36:	f005 050f 	and.w	r5, r5, #15
   83c3a:	b18d      	cbz	r5, 83c60 <_dtoa_r+0x7d0>
   83c3c:	f8df 82b4 	ldr.w	r8, [pc, #692]	; 83ef4 <_dtoa_r+0xa64>
   83c40:	07ea      	lsls	r2, r5, #31
   83c42:	d509      	bpl.n	83c58 <_dtoa_r+0x7c8>
   83c44:	e9d8 2300 	ldrd	r2, r3, [r8]
   83c48:	4630      	mov	r0, r6
   83c4a:	4639      	mov	r1, r7
   83c4c:	f7fd fa2a 	bl	810a4 <__aeabi_dmul>
   83c50:	4606      	mov	r6, r0
   83c52:	460f      	mov	r7, r1
   83c54:	f10a 0a01 	add.w	sl, sl, #1
   83c58:	106d      	asrs	r5, r5, #1
   83c5a:	f108 0808 	add.w	r8, r8, #8
   83c5e:	d1ef      	bne.n	83c40 <_dtoa_r+0x7b0>
   83c60:	463b      	mov	r3, r7
   83c62:	e9dd 0112 	ldrd	r0, r1, [sp, #72]	; 0x48
   83c66:	4632      	mov	r2, r6
   83c68:	f7fd fb46 	bl	812f8 <__aeabi_ddiv>
   83c6c:	4607      	mov	r7, r0
   83c6e:	4688      	mov	r8, r1
   83c70:	9b0e      	ldr	r3, [sp, #56]	; 0x38
   83c72:	b143      	cbz	r3, 83c86 <_dtoa_r+0x7f6>
   83c74:	2200      	movs	r2, #0
   83c76:	4ba0      	ldr	r3, [pc, #640]	; (83ef8 <_dtoa_r+0xa68>)
   83c78:	4638      	mov	r0, r7
   83c7a:	4641      	mov	r1, r8
   83c7c:	f7fd fe70 	bl	81960 <__aeabi_dcmplt>
   83c80:	2800      	cmp	r0, #0
   83c82:	f040 8287 	bne.w	84194 <_dtoa_r+0xd04>
   83c86:	4650      	mov	r0, sl
   83c88:	f7fd f9a6 	bl	80fd8 <__aeabi_i2d>
   83c8c:	463a      	mov	r2, r7
   83c8e:	4643      	mov	r3, r8
   83c90:	f7fd fa08 	bl	810a4 <__aeabi_dmul>
   83c94:	4b99      	ldr	r3, [pc, #612]	; (83efc <_dtoa_r+0xa6c>)
   83c96:	2200      	movs	r2, #0
   83c98:	f7fd f852 	bl	80d40 <__adddf3>
   83c9c:	9b07      	ldr	r3, [sp, #28]
   83c9e:	4605      	mov	r5, r0
   83ca0:	f1a1 7650 	sub.w	r6, r1, #54525952	; 0x3400000
   83ca4:	2b00      	cmp	r3, #0
   83ca6:	f000 813f 	beq.w	83f28 <_dtoa_r+0xa98>
   83caa:	9b02      	ldr	r3, [sp, #8]
   83cac:	9315      	str	r3, [sp, #84]	; 0x54
   83cae:	9b07      	ldr	r3, [sp, #28]
   83cb0:	9312      	str	r3, [sp, #72]	; 0x48
   83cb2:	9b0b      	ldr	r3, [sp, #44]	; 0x2c
   83cb4:	2b00      	cmp	r3, #0
   83cb6:	f000 81fb 	beq.w	840b0 <_dtoa_r+0xc20>
   83cba:	9a12      	ldr	r2, [sp, #72]	; 0x48
   83cbc:	4b8c      	ldr	r3, [pc, #560]	; (83ef0 <_dtoa_r+0xa60>)
   83cbe:	2000      	movs	r0, #0
   83cc0:	eb03 03c2 	add.w	r3, r3, r2, lsl #3
   83cc4:	e953 2302 	ldrd	r2, r3, [r3, #-8]
   83cc8:	498d      	ldr	r1, [pc, #564]	; (83f00 <_dtoa_r+0xa70>)
   83cca:	f7fd fb15 	bl	812f8 <__aeabi_ddiv>
   83cce:	462a      	mov	r2, r5
   83cd0:	4633      	mov	r3, r6
   83cd2:	f7fd f833 	bl	80d3c <__aeabi_dsub>
   83cd6:	4682      	mov	sl, r0
   83cd8:	468b      	mov	fp, r1
   83cda:	4638      	mov	r0, r7
   83cdc:	4641      	mov	r1, r8
   83cde:	f7fd fbf3 	bl	814c8 <__aeabi_d2iz>
   83ce2:	4605      	mov	r5, r0
   83ce4:	f7fd f978 	bl	80fd8 <__aeabi_i2d>
   83ce8:	4602      	mov	r2, r0
   83cea:	460b      	mov	r3, r1
   83cec:	4638      	mov	r0, r7
   83cee:	4641      	mov	r1, r8
   83cf0:	f7fd f824 	bl	80d3c <__aeabi_dsub>
   83cf4:	3530      	adds	r5, #48	; 0x30
   83cf6:	fa5f f885 	uxtb.w	r8, r5
   83cfa:	9d04      	ldr	r5, [sp, #16]
   83cfc:	4606      	mov	r6, r0
   83cfe:	460f      	mov	r7, r1
   83d00:	f885 8000 	strb.w	r8, [r5]
   83d04:	4602      	mov	r2, r0
   83d06:	460b      	mov	r3, r1
   83d08:	4650      	mov	r0, sl
   83d0a:	4659      	mov	r1, fp
   83d0c:	3501      	adds	r5, #1
   83d0e:	f7fd fe45 	bl	8199c <__aeabi_dcmpgt>
   83d12:	2800      	cmp	r0, #0
   83d14:	d154      	bne.n	83dc0 <_dtoa_r+0x930>
   83d16:	4632      	mov	r2, r6
   83d18:	463b      	mov	r3, r7
   83d1a:	2000      	movs	r0, #0
   83d1c:	4976      	ldr	r1, [pc, #472]	; (83ef8 <_dtoa_r+0xa68>)
   83d1e:	f7fd f80d 	bl	80d3c <__aeabi_dsub>
   83d22:	4602      	mov	r2, r0
   83d24:	460b      	mov	r3, r1
   83d26:	4650      	mov	r0, sl
   83d28:	4659      	mov	r1, fp
   83d2a:	f7fd fe37 	bl	8199c <__aeabi_dcmpgt>
   83d2e:	2800      	cmp	r0, #0
   83d30:	f040 8270 	bne.w	84214 <_dtoa_r+0xd84>
   83d34:	9a12      	ldr	r2, [sp, #72]	; 0x48
   83d36:	2a01      	cmp	r2, #1
   83d38:	f000 8112 	beq.w	83f60 <_dtoa_r+0xad0>
   83d3c:	9b12      	ldr	r3, [sp, #72]	; 0x48
   83d3e:	9a04      	ldr	r2, [sp, #16]
   83d40:	f8cd 9048 	str.w	r9, [sp, #72]	; 0x48
   83d44:	4413      	add	r3, r2
   83d46:	4699      	mov	r9, r3
   83d48:	e00f      	b.n	83d6a <_dtoa_r+0x8da>
   83d4a:	4632      	mov	r2, r6
   83d4c:	463b      	mov	r3, r7
   83d4e:	2000      	movs	r0, #0
   83d50:	4969      	ldr	r1, [pc, #420]	; (83ef8 <_dtoa_r+0xa68>)
   83d52:	f7fc fff3 	bl	80d3c <__aeabi_dsub>
   83d56:	4652      	mov	r2, sl
   83d58:	465b      	mov	r3, fp
   83d5a:	f7fd fe01 	bl	81960 <__aeabi_dcmplt>
   83d5e:	2800      	cmp	r0, #0
   83d60:	f040 8256 	bne.w	84210 <_dtoa_r+0xd80>
   83d64:	454d      	cmp	r5, r9
   83d66:	f000 80f9 	beq.w	83f5c <_dtoa_r+0xacc>
   83d6a:	4650      	mov	r0, sl
   83d6c:	4659      	mov	r1, fp
   83d6e:	2200      	movs	r2, #0
   83d70:	4b64      	ldr	r3, [pc, #400]	; (83f04 <_dtoa_r+0xa74>)
   83d72:	f7fd f997 	bl	810a4 <__aeabi_dmul>
   83d76:	2200      	movs	r2, #0
   83d78:	4b62      	ldr	r3, [pc, #392]	; (83f04 <_dtoa_r+0xa74>)
   83d7a:	4682      	mov	sl, r0
   83d7c:	468b      	mov	fp, r1
   83d7e:	4630      	mov	r0, r6
   83d80:	4639      	mov	r1, r7
   83d82:	f7fd f98f 	bl	810a4 <__aeabi_dmul>
   83d86:	460f      	mov	r7, r1
   83d88:	4606      	mov	r6, r0
   83d8a:	f7fd fb9d 	bl	814c8 <__aeabi_d2iz>
   83d8e:	4680      	mov	r8, r0
   83d90:	f7fd f922 	bl	80fd8 <__aeabi_i2d>
   83d94:	4602      	mov	r2, r0
   83d96:	460b      	mov	r3, r1
   83d98:	4630      	mov	r0, r6
   83d9a:	4639      	mov	r1, r7
   83d9c:	f7fc ffce 	bl	80d3c <__aeabi_dsub>
   83da0:	f108 0830 	add.w	r8, r8, #48	; 0x30
   83da4:	fa5f f888 	uxtb.w	r8, r8
   83da8:	f805 8b01 	strb.w	r8, [r5], #1
   83dac:	4652      	mov	r2, sl
   83dae:	465b      	mov	r3, fp
   83db0:	4606      	mov	r6, r0
   83db2:	460f      	mov	r7, r1
   83db4:	f7fd fdd4 	bl	81960 <__aeabi_dcmplt>
   83db8:	2800      	cmp	r0, #0
   83dba:	d0c6      	beq.n	83d4a <_dtoa_r+0x8ba>
   83dbc:	f8dd 9048 	ldr.w	r9, [sp, #72]	; 0x48
   83dc0:	9b15      	ldr	r3, [sp, #84]	; 0x54
   83dc2:	9302      	str	r3, [sp, #8]
   83dc4:	e523      	b.n	8380e <_dtoa_r+0x37e>
   83dc6:	2300      	movs	r3, #0
   83dc8:	930b      	str	r3, [sp, #44]	; 0x2c
   83dca:	9b25      	ldr	r3, [sp, #148]	; 0x94
   83dcc:	2b00      	cmp	r3, #0
   83dce:	f340 80dd 	ble.w	83f8c <_dtoa_r+0xafc>
   83dd2:	461f      	mov	r7, r3
   83dd4:	461e      	mov	r6, r3
   83dd6:	930f      	str	r3, [sp, #60]	; 0x3c
   83dd8:	9307      	str	r3, [sp, #28]
   83dda:	e6f6      	b.n	83bca <_dtoa_r+0x73a>
   83ddc:	2301      	movs	r3, #1
   83dde:	930b      	str	r3, [sp, #44]	; 0x2c
   83de0:	e7f3      	b.n	83dca <_dtoa_r+0x93a>
   83de2:	f1ba 0f00 	cmp.w	sl, #0
   83de6:	f47f ada7 	bne.w	83938 <_dtoa_r+0x4a8>
   83dea:	f3cb 0313 	ubfx	r3, fp, #0, #20
   83dee:	2b00      	cmp	r3, #0
   83df0:	f47f adbc 	bne.w	8396c <_dtoa_r+0x4dc>
   83df4:	f02b 4700 	bic.w	r7, fp, #2147483648	; 0x80000000
   83df8:	0d3f      	lsrs	r7, r7, #20
   83dfa:	053f      	lsls	r7, r7, #20
   83dfc:	2f00      	cmp	r7, #0
   83dfe:	f000 820d 	beq.w	8421c <_dtoa_r+0xd8c>
   83e02:	9b0a      	ldr	r3, [sp, #40]	; 0x28
   83e04:	3301      	adds	r3, #1
   83e06:	930a      	str	r3, [sp, #40]	; 0x28
   83e08:	9b08      	ldr	r3, [sp, #32]
   83e0a:	3301      	adds	r3, #1
   83e0c:	9308      	str	r3, [sp, #32]
   83e0e:	2301      	movs	r3, #1
   83e10:	930c      	str	r3, [sp, #48]	; 0x30
   83e12:	e5ad      	b.n	83970 <_dtoa_r+0x4e0>
   83e14:	9b07      	ldr	r3, [sp, #28]
   83e16:	2b00      	cmp	r3, #0
   83e18:	f73f ac48 	bgt.w	836ac <_dtoa_r+0x21c>
   83e1c:	f040 8222 	bne.w	84264 <_dtoa_r+0xdd4>
   83e20:	e9dd 0108 	ldrd	r0, r1, [sp, #32]
   83e24:	2200      	movs	r2, #0
   83e26:	4b38      	ldr	r3, [pc, #224]	; (83f08 <_dtoa_r+0xa78>)
   83e28:	f7fd f93c 	bl	810a4 <__aeabi_dmul>
   83e2c:	4652      	mov	r2, sl
   83e2e:	465b      	mov	r3, fp
   83e30:	f7fd fdaa 	bl	81988 <__aeabi_dcmpge>
   83e34:	f8dd 801c 	ldr.w	r8, [sp, #28]
   83e38:	4646      	mov	r6, r8
   83e3a:	2800      	cmp	r0, #0
   83e3c:	d041      	beq.n	83ec2 <_dtoa_r+0xa32>
   83e3e:	9b25      	ldr	r3, [sp, #148]	; 0x94
   83e40:	9d04      	ldr	r5, [sp, #16]
   83e42:	43db      	mvns	r3, r3
   83e44:	9302      	str	r3, [sp, #8]
   83e46:	4641      	mov	r1, r8
   83e48:	4620      	mov	r0, r4
   83e4a:	f001 fae7 	bl	8541c <_Bfree>
   83e4e:	2e00      	cmp	r6, #0
   83e50:	f43f acdd 	beq.w	8380e <_dtoa_r+0x37e>
   83e54:	e6a7      	b.n	83ba6 <_dtoa_r+0x716>
   83e56:	9a0c      	ldr	r2, [sp, #48]	; 0x30
   83e58:	4649      	mov	r1, r9
   83e5a:	4620      	mov	r0, r4
   83e5c:	f001 fc16 	bl	8568c <__pow5mult>
   83e60:	4681      	mov	r9, r0
   83e62:	e557      	b.n	83914 <_dtoa_r+0x484>
   83e64:	9a14      	ldr	r2, [sp, #80]	; 0x50
   83e66:	2a00      	cmp	r2, #0
   83e68:	f000 8188 	beq.w	8417c <_dtoa_r+0xcec>
   83e6c:	f203 4333 	addw	r3, r3, #1075	; 0x433
   83e70:	9f0c      	ldr	r7, [sp, #48]	; 0x30
   83e72:	9d0a      	ldr	r5, [sp, #40]	; 0x28
   83e74:	e4f2      	b.n	8385c <_dtoa_r+0x3cc>
   83e76:	f1ba 0f00 	cmp.w	sl, #0
   83e7a:	f47f ad77 	bne.w	8396c <_dtoa_r+0x4dc>
   83e7e:	e7b4      	b.n	83dea <_dtoa_r+0x95a>
   83e80:	f001 fad6 	bl	85430 <__multadd>
   83e84:	4647      	mov	r7, r8
   83e86:	4606      	mov	r6, r0
   83e88:	4683      	mov	fp, r0
   83e8a:	e5c0      	b.n	83a0e <_dtoa_r+0x57e>
   83e8c:	4601      	mov	r1, r0
   83e8e:	4620      	mov	r0, r4
   83e90:	9308      	str	r3, [sp, #32]
   83e92:	f001 fac3 	bl	8541c <_Bfree>
   83e96:	2201      	movs	r2, #1
   83e98:	9b08      	ldr	r3, [sp, #32]
   83e9a:	e5e2      	b.n	83a62 <_dtoa_r+0x5d2>
   83e9c:	9b24      	ldr	r3, [sp, #144]	; 0x90
   83e9e:	2b02      	cmp	r3, #2
   83ea0:	f77f ad98 	ble.w	839d4 <_dtoa_r+0x544>
   83ea4:	9b07      	ldr	r3, [sp, #28]
   83ea6:	2b00      	cmp	r3, #0
   83ea8:	d1c9      	bne.n	83e3e <_dtoa_r+0x9ae>
   83eaa:	4641      	mov	r1, r8
   83eac:	2205      	movs	r2, #5
   83eae:	4620      	mov	r0, r4
   83eb0:	f001 fabe 	bl	85430 <__multadd>
   83eb4:	4601      	mov	r1, r0
   83eb6:	4680      	mov	r8, r0
   83eb8:	4648      	mov	r0, r9
   83eba:	f001 fc87 	bl	857cc <__mcmp>
   83ebe:	2800      	cmp	r0, #0
   83ec0:	ddbd      	ble.n	83e3e <_dtoa_r+0x9ae>
   83ec2:	2331      	movs	r3, #49	; 0x31
   83ec4:	9a02      	ldr	r2, [sp, #8]
   83ec6:	9904      	ldr	r1, [sp, #16]
   83ec8:	3201      	adds	r2, #1
   83eca:	9202      	str	r2, [sp, #8]
   83ecc:	700b      	strb	r3, [r1, #0]
   83ece:	1c4d      	adds	r5, r1, #1
   83ed0:	e7b9      	b.n	83e46 <_dtoa_r+0x9b6>
   83ed2:	2331      	movs	r3, #49	; 0x31
   83ed4:	9a02      	ldr	r2, [sp, #8]
   83ed6:	3201      	adds	r2, #1
   83ed8:	9202      	str	r2, [sp, #8]
   83eda:	9a04      	ldr	r2, [sp, #16]
   83edc:	7013      	strb	r3, [r2, #0]
   83ede:	e652      	b.n	83b86 <_dtoa_r+0x6f6>
   83ee0:	2301      	movs	r3, #1
   83ee2:	930b      	str	r3, [sp, #44]	; 0x2c
   83ee4:	e666      	b.n	83bb4 <_dtoa_r+0x724>
   83ee6:	f8dd 9028 	ldr.w	r9, [sp, #40]	; 0x28
   83eea:	9c0b      	ldr	r4, [sp, #44]	; 0x2c
   83eec:	e48f      	b.n	8380e <_dtoa_r+0x37e>
   83eee:	bf00      	nop
   83ef0:	00086500 	.word	0x00086500
   83ef4:	000864d8 	.word	0x000864d8
   83ef8:	3ff00000 	.word	0x3ff00000
   83efc:	401c0000 	.word	0x401c0000
   83f00:	3fe00000 	.word	0x3fe00000
   83f04:	40240000 	.word	0x40240000
   83f08:	40140000 	.word	0x40140000
   83f0c:	4650      	mov	r0, sl
   83f0e:	f7fd f863 	bl	80fd8 <__aeabi_i2d>
   83f12:	463a      	mov	r2, r7
   83f14:	4643      	mov	r3, r8
   83f16:	f7fd f8c5 	bl	810a4 <__aeabi_dmul>
   83f1a:	2200      	movs	r2, #0
   83f1c:	4bc1      	ldr	r3, [pc, #772]	; (84224 <_dtoa_r+0xd94>)
   83f1e:	f7fc ff0f 	bl	80d40 <__adddf3>
   83f22:	4605      	mov	r5, r0
   83f24:	f1a1 7650 	sub.w	r6, r1, #54525952	; 0x3400000
   83f28:	4641      	mov	r1, r8
   83f2a:	2200      	movs	r2, #0
   83f2c:	4bbe      	ldr	r3, [pc, #760]	; (84228 <_dtoa_r+0xd98>)
   83f2e:	4638      	mov	r0, r7
   83f30:	f7fc ff04 	bl	80d3c <__aeabi_dsub>
   83f34:	462a      	mov	r2, r5
   83f36:	4633      	mov	r3, r6
   83f38:	4682      	mov	sl, r0
   83f3a:	468b      	mov	fp, r1
   83f3c:	f7fd fd2e 	bl	8199c <__aeabi_dcmpgt>
   83f40:	4680      	mov	r8, r0
   83f42:	2800      	cmp	r0, #0
   83f44:	f040 8110 	bne.w	84168 <_dtoa_r+0xcd8>
   83f48:	462a      	mov	r2, r5
   83f4a:	f106 4300 	add.w	r3, r6, #2147483648	; 0x80000000
   83f4e:	4650      	mov	r0, sl
   83f50:	4659      	mov	r1, fp
   83f52:	f7fd fd05 	bl	81960 <__aeabi_dcmplt>
   83f56:	b118      	cbz	r0, 83f60 <_dtoa_r+0xad0>
   83f58:	4646      	mov	r6, r8
   83f5a:	e770      	b.n	83e3e <_dtoa_r+0x9ae>
   83f5c:	f8dd 9048 	ldr.w	r9, [sp, #72]	; 0x48
   83f60:	e9dd ab10 	ldrd	sl, fp, [sp, #64]	; 0x40
   83f64:	f7ff bb8f 	b.w	83686 <_dtoa_r+0x1f6>
   83f68:	9804      	ldr	r0, [sp, #16]
   83f6a:	f7ff bac0 	b.w	834ee <_dtoa_r+0x5e>
   83f6e:	9b0c      	ldr	r3, [sp, #48]	; 0x30
   83f70:	9a0d      	ldr	r2, [sp, #52]	; 0x34
   83f72:	1afb      	subs	r3, r7, r3
   83f74:	441a      	add	r2, r3
   83f76:	970c      	str	r7, [sp, #48]	; 0x30
   83f78:	920d      	str	r2, [sp, #52]	; 0x34
   83f7a:	2700      	movs	r7, #0
   83f7c:	e468      	b.n	83850 <_dtoa_r+0x3c0>
   83f7e:	e9dd 2310 	ldrd	r2, r3, [sp, #64]	; 0x40
   83f82:	f04f 0a02 	mov.w	sl, #2
   83f86:	e9cd 2312 	strd	r2, r3, [sp, #72]	; 0x48
   83f8a:	e656      	b.n	83c3a <_dtoa_r+0x7aa>
   83f8c:	2100      	movs	r1, #0
   83f8e:	2301      	movs	r3, #1
   83f90:	4620      	mov	r0, r4
   83f92:	6461      	str	r1, [r4, #68]	; 0x44
   83f94:	9325      	str	r3, [sp, #148]	; 0x94
   83f96:	f001 fa1b 	bl	853d0 <_Balloc>
   83f9a:	9b25      	ldr	r3, [sp, #148]	; 0x94
   83f9c:	9004      	str	r0, [sp, #16]
   83f9e:	9307      	str	r3, [sp, #28]
   83fa0:	9b25      	ldr	r3, [sp, #148]	; 0x94
   83fa2:	6420      	str	r0, [r4, #64]	; 0x40
   83fa4:	930f      	str	r3, [sp, #60]	; 0x3c
   83fa6:	e627      	b.n	83bf8 <_dtoa_r+0x768>
   83fa8:	2a00      	cmp	r2, #0
   83faa:	46d0      	mov	r8, sl
   83fac:	f8cd b020 	str.w	fp, [sp, #32]
   83fb0:	469a      	mov	sl, r3
   83fb2:	dd11      	ble.n	83fd8 <_dtoa_r+0xb48>
   83fb4:	4649      	mov	r1, r9
   83fb6:	2201      	movs	r2, #1
   83fb8:	4620      	mov	r0, r4
   83fba:	f001 fbb7 	bl	8572c <__lshift>
   83fbe:	4641      	mov	r1, r8
   83fc0:	4681      	mov	r9, r0
   83fc2:	f001 fc03 	bl	857cc <__mcmp>
   83fc6:	2800      	cmp	r0, #0
   83fc8:	f340 8145 	ble.w	84256 <_dtoa_r+0xdc6>
   83fcc:	f1ba 0f39 	cmp.w	sl, #57	; 0x39
   83fd0:	f000 8105 	beq.w	841de <_dtoa_r+0xd4e>
   83fd4:	f105 0a31 	add.w	sl, r5, #49	; 0x31
   83fd8:	46b3      	mov	fp, r6
   83fda:	f887 a000 	strb.w	sl, [r7]
   83fde:	1c7d      	adds	r5, r7, #1
   83fe0:	9e08      	ldr	r6, [sp, #32]
   83fe2:	e5d0      	b.n	83b86 <_dtoa_r+0x6f6>
   83fe4:	d104      	bne.n	83ff0 <_dtoa_r+0xb60>
   83fe6:	f01a 0f01 	tst.w	sl, #1
   83fea:	d001      	beq.n	83ff0 <_dtoa_r+0xb60>
   83fec:	e5bb      	b.n	83b66 <_dtoa_r+0x6d6>
   83fee:	4615      	mov	r5, r2
   83ff0:	f815 3c01 	ldrb.w	r3, [r5, #-1]
   83ff4:	1e6a      	subs	r2, r5, #1
   83ff6:	2b30      	cmp	r3, #48	; 0x30
   83ff8:	d0f9      	beq.n	83fee <_dtoa_r+0xb5e>
   83ffa:	e5c4      	b.n	83b86 <_dtoa_r+0x6f6>
   83ffc:	2230      	movs	r2, #48	; 0x30
   83ffe:	9904      	ldr	r1, [sp, #16]
   84000:	700a      	strb	r2, [r1, #0]
   84002:	9a02      	ldr	r2, [sp, #8]
   84004:	f815 8c01 	ldrb.w	r8, [r5, #-1]
   84008:	3201      	adds	r2, #1
   8400a:	9202      	str	r2, [sp, #8]
   8400c:	f7ff bbfb 	b.w	83806 <_dtoa_r+0x376>
   84010:	f000 80bb 	beq.w	8418a <_dtoa_r+0xcfa>
   84014:	e9dd 0110 	ldrd	r0, r1, [sp, #64]	; 0x40
   84018:	9b02      	ldr	r3, [sp, #8]
   8401a:	f04f 0a02 	mov.w	sl, #2
   8401e:	425d      	negs	r5, r3
   84020:	4b82      	ldr	r3, [pc, #520]	; (8422c <_dtoa_r+0xd9c>)
   84022:	f005 020f 	and.w	r2, r5, #15
   84026:	eb03 03c2 	add.w	r3, r3, r2, lsl #3
   8402a:	e9d3 2300 	ldrd	r2, r3, [r3]
   8402e:	f7fd f839 	bl	810a4 <__aeabi_dmul>
   84032:	112d      	asrs	r5, r5, #4
   84034:	4607      	mov	r7, r0
   84036:	4688      	mov	r8, r1
   84038:	f43f ae1a 	beq.w	83c70 <_dtoa_r+0x7e0>
   8403c:	4e7c      	ldr	r6, [pc, #496]	; (84230 <_dtoa_r+0xda0>)
   8403e:	07eb      	lsls	r3, r5, #31
   84040:	d509      	bpl.n	84056 <_dtoa_r+0xbc6>
   84042:	e9d6 2300 	ldrd	r2, r3, [r6]
   84046:	4638      	mov	r0, r7
   84048:	4641      	mov	r1, r8
   8404a:	f7fd f82b 	bl	810a4 <__aeabi_dmul>
   8404e:	4607      	mov	r7, r0
   84050:	4688      	mov	r8, r1
   84052:	f10a 0a01 	add.w	sl, sl, #1
   84056:	106d      	asrs	r5, r5, #1
   84058:	f106 0608 	add.w	r6, r6, #8
   8405c:	d1ef      	bne.n	8403e <_dtoa_r+0xbae>
   8405e:	e607      	b.n	83c70 <_dtoa_r+0x7e0>
   84060:	6871      	ldr	r1, [r6, #4]
   84062:	4620      	mov	r0, r4
   84064:	f001 f9b4 	bl	853d0 <_Balloc>
   84068:	4605      	mov	r5, r0
   8406a:	6933      	ldr	r3, [r6, #16]
   8406c:	f106 010c 	add.w	r1, r6, #12
   84070:	3302      	adds	r3, #2
   84072:	009a      	lsls	r2, r3, #2
   84074:	300c      	adds	r0, #12
   84076:	f001 f8c5 	bl	85204 <memcpy>
   8407a:	4629      	mov	r1, r5
   8407c:	2201      	movs	r2, #1
   8407e:	4620      	mov	r0, r4
   84080:	f001 fb54 	bl	8572c <__lshift>
   84084:	9008      	str	r0, [sp, #32]
   84086:	e4b6      	b.n	839f6 <_dtoa_r+0x566>
   84088:	2b39      	cmp	r3, #57	; 0x39
   8408a:	f8cd b020 	str.w	fp, [sp, #32]
   8408e:	46d0      	mov	r8, sl
   84090:	f000 80a5 	beq.w	841de <_dtoa_r+0xd4e>
   84094:	f103 0a01 	add.w	sl, r3, #1
   84098:	46b3      	mov	fp, r6
   8409a:	f887 a000 	strb.w	sl, [r7]
   8409e:	1c7d      	adds	r5, r7, #1
   840a0:	9e08      	ldr	r6, [sp, #32]
   840a2:	e570      	b.n	83b86 <_dtoa_r+0x6f6>
   840a4:	465a      	mov	r2, fp
   840a6:	46d0      	mov	r8, sl
   840a8:	46b3      	mov	fp, r6
   840aa:	469a      	mov	sl, r3
   840ac:	4616      	mov	r6, r2
   840ae:	e54e      	b.n	83b4e <_dtoa_r+0x6be>
   840b0:	9812      	ldr	r0, [sp, #72]	; 0x48
   840b2:	495e      	ldr	r1, [pc, #376]	; (8422c <_dtoa_r+0xd9c>)
   840b4:	462a      	mov	r2, r5
   840b6:	eb01 01c0 	add.w	r1, r1, r0, lsl #3
   840ba:	4633      	mov	r3, r6
   840bc:	e951 0102 	ldrd	r0, r1, [r1, #-8]
   840c0:	f7fc fff0 	bl	810a4 <__aeabi_dmul>
   840c4:	e9cd 0116 	strd	r0, r1, [sp, #88]	; 0x58
   840c8:	4638      	mov	r0, r7
   840ca:	4641      	mov	r1, r8
   840cc:	f7fd f9fc 	bl	814c8 <__aeabi_d2iz>
   840d0:	4605      	mov	r5, r0
   840d2:	f7fc ff81 	bl	80fd8 <__aeabi_i2d>
   840d6:	4602      	mov	r2, r0
   840d8:	460b      	mov	r3, r1
   840da:	4638      	mov	r0, r7
   840dc:	4641      	mov	r1, r8
   840de:	f7fc fe2d 	bl	80d3c <__aeabi_dsub>
   840e2:	4606      	mov	r6, r0
   840e4:	9812      	ldr	r0, [sp, #72]	; 0x48
   840e6:	9a04      	ldr	r2, [sp, #16]
   840e8:	3530      	adds	r5, #48	; 0x30
   840ea:	2801      	cmp	r0, #1
   840ec:	7015      	strb	r5, [r2, #0]
   840ee:	460f      	mov	r7, r1
   840f0:	f102 0501 	add.w	r5, r2, #1
   840f4:	d026      	beq.n	84144 <_dtoa_r+0xcb4>
   840f6:	9b12      	ldr	r3, [sp, #72]	; 0x48
   840f8:	9a04      	ldr	r2, [sp, #16]
   840fa:	f8cd 9048 	str.w	r9, [sp, #72]	; 0x48
   840fe:	4413      	add	r3, r2
   84100:	f04f 0a00 	mov.w	sl, #0
   84104:	4699      	mov	r9, r3
   84106:	f8df b130 	ldr.w	fp, [pc, #304]	; 84238 <_dtoa_r+0xda8>
   8410a:	4652      	mov	r2, sl
   8410c:	465b      	mov	r3, fp
   8410e:	4630      	mov	r0, r6
   84110:	4639      	mov	r1, r7
   84112:	f7fc ffc7 	bl	810a4 <__aeabi_dmul>
   84116:	460f      	mov	r7, r1
   84118:	4606      	mov	r6, r0
   8411a:	f7fd f9d5 	bl	814c8 <__aeabi_d2iz>
   8411e:	4680      	mov	r8, r0
   84120:	f7fc ff5a 	bl	80fd8 <__aeabi_i2d>
   84124:	4602      	mov	r2, r0
   84126:	460b      	mov	r3, r1
   84128:	4630      	mov	r0, r6
   8412a:	4639      	mov	r1, r7
   8412c:	f7fc fe06 	bl	80d3c <__aeabi_dsub>
   84130:	f108 0830 	add.w	r8, r8, #48	; 0x30
   84134:	f805 8b01 	strb.w	r8, [r5], #1
   84138:	454d      	cmp	r5, r9
   8413a:	4606      	mov	r6, r0
   8413c:	460f      	mov	r7, r1
   8413e:	d1e4      	bne.n	8410a <_dtoa_r+0xc7a>
   84140:	f8dd 9048 	ldr.w	r9, [sp, #72]	; 0x48
   84144:	2200      	movs	r2, #0
   84146:	e9dd 0116 	ldrd	r0, r1, [sp, #88]	; 0x58
   8414a:	4b3a      	ldr	r3, [pc, #232]	; (84234 <_dtoa_r+0xda4>)
   8414c:	f7fc fdf8 	bl	80d40 <__adddf3>
   84150:	4632      	mov	r2, r6
   84152:	463b      	mov	r3, r7
   84154:	f7fd fc04 	bl	81960 <__aeabi_dcmplt>
   84158:	2800      	cmp	r0, #0
   8415a:	d046      	beq.n	841ea <_dtoa_r+0xd5a>
   8415c:	9b15      	ldr	r3, [sp, #84]	; 0x54
   8415e:	9302      	str	r3, [sp, #8]
   84160:	f815 8c01 	ldrb.w	r8, [r5, #-1]
   84164:	f7ff bb42 	b.w	837ec <_dtoa_r+0x35c>
   84168:	f04f 0800 	mov.w	r8, #0
   8416c:	4646      	mov	r6, r8
   8416e:	e6a8      	b.n	83ec2 <_dtoa_r+0xa32>
   84170:	9b0a      	ldr	r3, [sp, #40]	; 0x28
   84172:	9a07      	ldr	r2, [sp, #28]
   84174:	1a9d      	subs	r5, r3, r2
   84176:	2300      	movs	r3, #0
   84178:	f7ff bb70 	b.w	8385c <_dtoa_r+0x3cc>
   8417c:	9b18      	ldr	r3, [sp, #96]	; 0x60
   8417e:	9f0c      	ldr	r7, [sp, #48]	; 0x30
   84180:	f1c3 0336 	rsb	r3, r3, #54	; 0x36
   84184:	9d0a      	ldr	r5, [sp, #40]	; 0x28
   84186:	f7ff bb69 	b.w	8385c <_dtoa_r+0x3cc>
   8418a:	e9dd 7810 	ldrd	r7, r8, [sp, #64]	; 0x40
   8418e:	f04f 0a02 	mov.w	sl, #2
   84192:	e56d      	b.n	83c70 <_dtoa_r+0x7e0>
   84194:	9b07      	ldr	r3, [sp, #28]
   84196:	2b00      	cmp	r3, #0
   84198:	f43f aeb8 	beq.w	83f0c <_dtoa_r+0xa7c>
   8419c:	9b0f      	ldr	r3, [sp, #60]	; 0x3c
   8419e:	2b00      	cmp	r3, #0
   841a0:	f77f aede 	ble.w	83f60 <_dtoa_r+0xad0>
   841a4:	2200      	movs	r2, #0
   841a6:	4b24      	ldr	r3, [pc, #144]	; (84238 <_dtoa_r+0xda8>)
   841a8:	4638      	mov	r0, r7
   841aa:	4641      	mov	r1, r8
   841ac:	f7fc ff7a 	bl	810a4 <__aeabi_dmul>
   841b0:	4607      	mov	r7, r0
   841b2:	4688      	mov	r8, r1
   841b4:	f10a 0001 	add.w	r0, sl, #1
   841b8:	f7fc ff0e 	bl	80fd8 <__aeabi_i2d>
   841bc:	463a      	mov	r2, r7
   841be:	4643      	mov	r3, r8
   841c0:	f7fc ff70 	bl	810a4 <__aeabi_dmul>
   841c4:	2200      	movs	r2, #0
   841c6:	4b17      	ldr	r3, [pc, #92]	; (84224 <_dtoa_r+0xd94>)
   841c8:	f7fc fdba 	bl	80d40 <__adddf3>
   841cc:	9a02      	ldr	r2, [sp, #8]
   841ce:	9b0f      	ldr	r3, [sp, #60]	; 0x3c
   841d0:	3a01      	subs	r2, #1
   841d2:	4605      	mov	r5, r0
   841d4:	9215      	str	r2, [sp, #84]	; 0x54
   841d6:	f1a1 7650 	sub.w	r6, r1, #54525952	; 0x3400000
   841da:	9312      	str	r3, [sp, #72]	; 0x48
   841dc:	e569      	b.n	83cb2 <_dtoa_r+0x822>
   841de:	2239      	movs	r2, #57	; 0x39
   841e0:	46b3      	mov	fp, r6
   841e2:	703a      	strb	r2, [r7, #0]
   841e4:	9e08      	ldr	r6, [sp, #32]
   841e6:	1c7d      	adds	r5, r7, #1
   841e8:	e4bf      	b.n	83b6a <_dtoa_r+0x6da>
   841ea:	e9dd 2316 	ldrd	r2, r3, [sp, #88]	; 0x58
   841ee:	2000      	movs	r0, #0
   841f0:	4910      	ldr	r1, [pc, #64]	; (84234 <_dtoa_r+0xda4>)
   841f2:	f7fc fda3 	bl	80d3c <__aeabi_dsub>
   841f6:	4632      	mov	r2, r6
   841f8:	463b      	mov	r3, r7
   841fa:	f7fd fbcf 	bl	8199c <__aeabi_dcmpgt>
   841fe:	b908      	cbnz	r0, 84204 <_dtoa_r+0xd74>
   84200:	e6ae      	b.n	83f60 <_dtoa_r+0xad0>
   84202:	4615      	mov	r5, r2
   84204:	f815 3c01 	ldrb.w	r3, [r5, #-1]
   84208:	1e6a      	subs	r2, r5, #1
   8420a:	2b30      	cmp	r3, #48	; 0x30
   8420c:	d0f9      	beq.n	84202 <_dtoa_r+0xd72>
   8420e:	e5d7      	b.n	83dc0 <_dtoa_r+0x930>
   84210:	f8dd 9048 	ldr.w	r9, [sp, #72]	; 0x48
   84214:	9b15      	ldr	r3, [sp, #84]	; 0x54
   84216:	9302      	str	r3, [sp, #8]
   84218:	f7ff bae8 	b.w	837ec <_dtoa_r+0x35c>
   8421c:	970c      	str	r7, [sp, #48]	; 0x30
   8421e:	f7ff bba7 	b.w	83970 <_dtoa_r+0x4e0>
   84222:	bf00      	nop
   84224:	401c0000 	.word	0x401c0000
   84228:	40140000 	.word	0x40140000
   8422c:	00086500 	.word	0x00086500
   84230:	000864d8 	.word	0x000864d8
   84234:	3fe00000 	.word	0x3fe00000
   84238:	40240000 	.word	0x40240000
   8423c:	2b39      	cmp	r3, #57	; 0x39
   8423e:	f8cd b020 	str.w	fp, [sp, #32]
   84242:	46d0      	mov	r8, sl
   84244:	f8dd b01c 	ldr.w	fp, [sp, #28]
   84248:	469a      	mov	sl, r3
   8424a:	d0c8      	beq.n	841de <_dtoa_r+0xd4e>
   8424c:	f1bb 0f00 	cmp.w	fp, #0
   84250:	f73f aec0 	bgt.w	83fd4 <_dtoa_r+0xb44>
   84254:	e6c0      	b.n	83fd8 <_dtoa_r+0xb48>
   84256:	f47f aebf 	bne.w	83fd8 <_dtoa_r+0xb48>
   8425a:	f01a 0f01 	tst.w	sl, #1
   8425e:	f43f aebb 	beq.w	83fd8 <_dtoa_r+0xb48>
   84262:	e6b3      	b.n	83fcc <_dtoa_r+0xb3c>
   84264:	f04f 0800 	mov.w	r8, #0
   84268:	4646      	mov	r6, r8
   8426a:	e5e8      	b.n	83e3e <_dtoa_r+0x9ae>
   8426c:	4631      	mov	r1, r6
   8426e:	2300      	movs	r3, #0
   84270:	220a      	movs	r2, #10
   84272:	4620      	mov	r0, r4
   84274:	f001 f8dc 	bl	85430 <__multadd>
   84278:	9b0f      	ldr	r3, [sp, #60]	; 0x3c
   8427a:	4606      	mov	r6, r0
   8427c:	2b00      	cmp	r3, #0
   8427e:	dd07      	ble.n	84290 <_dtoa_r+0xe00>
   84280:	9307      	str	r3, [sp, #28]
   84282:	f7ff bbab 	b.w	839dc <_dtoa_r+0x54c>
   84286:	9b24      	ldr	r3, [sp, #144]	; 0x90
   84288:	2b02      	cmp	r3, #2
   8428a:	dc1f      	bgt.n	842cc <_dtoa_r+0xe3c>
   8428c:	9b0f      	ldr	r3, [sp, #60]	; 0x3c
   8428e:	e43c      	b.n	83b0a <_dtoa_r+0x67a>
   84290:	9b24      	ldr	r3, [sp, #144]	; 0x90
   84292:	2b02      	cmp	r3, #2
   84294:	dc1a      	bgt.n	842cc <_dtoa_r+0xe3c>
   84296:	9b0f      	ldr	r3, [sp, #60]	; 0x3c
   84298:	e7f2      	b.n	84280 <_dtoa_r+0xdf0>
   8429a:	f43f ab81 	beq.w	839a0 <_dtoa_r+0x510>
   8429e:	f1c0 003c 	rsb	r0, r0, #60	; 0x3c
   842a2:	e411      	b.n	83ac8 <_dtoa_r+0x638>
   842a4:	2500      	movs	r5, #0
   842a6:	4620      	mov	r0, r4
   842a8:	6465      	str	r5, [r4, #68]	; 0x44
   842aa:	4629      	mov	r1, r5
   842ac:	f001 f890 	bl	853d0 <_Balloc>
   842b0:	f04f 33ff 	mov.w	r3, #4294967295
   842b4:	9307      	str	r3, [sp, #28]
   842b6:	930f      	str	r3, [sp, #60]	; 0x3c
   842b8:	2301      	movs	r3, #1
   842ba:	9004      	str	r0, [sp, #16]
   842bc:	9525      	str	r5, [sp, #148]	; 0x94
   842be:	6420      	str	r0, [r4, #64]	; 0x40
   842c0:	930b      	str	r3, [sp, #44]	; 0x2c
   842c2:	f7ff b9e0 	b.w	83686 <_dtoa_r+0x1f6>
   842c6:	2501      	movs	r5, #1
   842c8:	f7ff b9a8 	b.w	8361c <_dtoa_r+0x18c>
   842cc:	9b0f      	ldr	r3, [sp, #60]	; 0x3c
   842ce:	9307      	str	r3, [sp, #28]
   842d0:	e5e8      	b.n	83ea4 <_dtoa_r+0xa14>
   842d2:	bf00      	nop

000842d4 <__sflush_r>:
   842d4:	f9b1 300c 	ldrsh.w	r3, [r1, #12]
   842d8:	e92d 41f0 	stmdb	sp!, {r4, r5, r6, r7, r8, lr}
   842dc:	b29a      	uxth	r2, r3
   842de:	460d      	mov	r5, r1
   842e0:	0711      	lsls	r1, r2, #28
   842e2:	4680      	mov	r8, r0
   842e4:	d43a      	bmi.n	8435c <__sflush_r+0x88>
   842e6:	686a      	ldr	r2, [r5, #4]
   842e8:	f443 6300 	orr.w	r3, r3, #2048	; 0x800
   842ec:	2a00      	cmp	r2, #0
   842ee:	81ab      	strh	r3, [r5, #12]
   842f0:	dd70      	ble.n	843d4 <__sflush_r+0x100>
   842f2:	6aac      	ldr	r4, [r5, #40]	; 0x28
   842f4:	2c00      	cmp	r4, #0
   842f6:	d04a      	beq.n	8438e <__sflush_r+0xba>
   842f8:	2200      	movs	r2, #0
   842fa:	b29b      	uxth	r3, r3
   842fc:	f8d8 6000 	ldr.w	r6, [r8]
   84300:	f8c8 2000 	str.w	r2, [r8]
   84304:	f413 5280 	ands.w	r2, r3, #4096	; 0x1000
   84308:	d068      	beq.n	843dc <__sflush_r+0x108>
   8430a:	6d2a      	ldr	r2, [r5, #80]	; 0x50
   8430c:	075f      	lsls	r7, r3, #29
   8430e:	d505      	bpl.n	8431c <__sflush_r+0x48>
   84310:	6869      	ldr	r1, [r5, #4]
   84312:	6b2b      	ldr	r3, [r5, #48]	; 0x30
   84314:	1a52      	subs	r2, r2, r1
   84316:	b10b      	cbz	r3, 8431c <__sflush_r+0x48>
   84318:	6beb      	ldr	r3, [r5, #60]	; 0x3c
   8431a:	1ad2      	subs	r2, r2, r3
   8431c:	2300      	movs	r3, #0
   8431e:	69e9      	ldr	r1, [r5, #28]
   84320:	4640      	mov	r0, r8
   84322:	47a0      	blx	r4
   84324:	1c44      	adds	r4, r0, #1
   84326:	d03d      	beq.n	843a4 <__sflush_r+0xd0>
   84328:	2100      	movs	r1, #0
   8432a:	f9b5 300c 	ldrsh.w	r3, [r5, #12]
   8432e:	692a      	ldr	r2, [r5, #16]
   84330:	f423 6300 	bic.w	r3, r3, #2048	; 0x800
   84334:	81ab      	strh	r3, [r5, #12]
   84336:	04db      	lsls	r3, r3, #19
   84338:	6069      	str	r1, [r5, #4]
   8433a:	602a      	str	r2, [r5, #0]
   8433c:	d448      	bmi.n	843d0 <__sflush_r+0xfc>
   8433e:	6b29      	ldr	r1, [r5, #48]	; 0x30
   84340:	f8c8 6000 	str.w	r6, [r8]
   84344:	b319      	cbz	r1, 8438e <__sflush_r+0xba>
   84346:	f105 0340 	add.w	r3, r5, #64	; 0x40
   8434a:	4299      	cmp	r1, r3
   8434c:	d002      	beq.n	84354 <__sflush_r+0x80>
   8434e:	4640      	mov	r0, r8
   84350:	f000 f95a 	bl	84608 <_free_r>
   84354:	2000      	movs	r0, #0
   84356:	6328      	str	r0, [r5, #48]	; 0x30
   84358:	e8bd 81f0 	ldmia.w	sp!, {r4, r5, r6, r7, r8, pc}
   8435c:	692e      	ldr	r6, [r5, #16]
   8435e:	b1b6      	cbz	r6, 8438e <__sflush_r+0xba>
   84360:	0791      	lsls	r1, r2, #30
   84362:	bf18      	it	ne
   84364:	2300      	movne	r3, #0
   84366:	682c      	ldr	r4, [r5, #0]
   84368:	bf08      	it	eq
   8436a:	696b      	ldreq	r3, [r5, #20]
   8436c:	602e      	str	r6, [r5, #0]
   8436e:	1ba4      	subs	r4, r4, r6
   84370:	60ab      	str	r3, [r5, #8]
   84372:	e00a      	b.n	8438a <__sflush_r+0xb6>
   84374:	4623      	mov	r3, r4
   84376:	4632      	mov	r2, r6
   84378:	6a6f      	ldr	r7, [r5, #36]	; 0x24
   8437a:	69e9      	ldr	r1, [r5, #28]
   8437c:	4640      	mov	r0, r8
   8437e:	47b8      	blx	r7
   84380:	2800      	cmp	r0, #0
   84382:	eba4 0400 	sub.w	r4, r4, r0
   84386:	4406      	add	r6, r0
   84388:	dd04      	ble.n	84394 <__sflush_r+0xc0>
   8438a:	2c00      	cmp	r4, #0
   8438c:	dcf2      	bgt.n	84374 <__sflush_r+0xa0>
   8438e:	2000      	movs	r0, #0
   84390:	e8bd 81f0 	ldmia.w	sp!, {r4, r5, r6, r7, r8, pc}
   84394:	89ab      	ldrh	r3, [r5, #12]
   84396:	f04f 30ff 	mov.w	r0, #4294967295
   8439a:	f043 0340 	orr.w	r3, r3, #64	; 0x40
   8439e:	81ab      	strh	r3, [r5, #12]
   843a0:	e8bd 81f0 	ldmia.w	sp!, {r4, r5, r6, r7, r8, pc}
   843a4:	f8d8 4000 	ldr.w	r4, [r8]
   843a8:	2c1d      	cmp	r4, #29
   843aa:	d8f3      	bhi.n	84394 <__sflush_r+0xc0>
   843ac:	4b16      	ldr	r3, [pc, #88]	; (84408 <__sflush_r+0x134>)
   843ae:	40e3      	lsrs	r3, r4
   843b0:	43db      	mvns	r3, r3
   843b2:	f013 0301 	ands.w	r3, r3, #1
   843b6:	d1ed      	bne.n	84394 <__sflush_r+0xc0>
   843b8:	f9b5 200c 	ldrsh.w	r2, [r5, #12]
   843bc:	6929      	ldr	r1, [r5, #16]
   843be:	f422 6200 	bic.w	r2, r2, #2048	; 0x800
   843c2:	81aa      	strh	r2, [r5, #12]
   843c4:	04d2      	lsls	r2, r2, #19
   843c6:	606b      	str	r3, [r5, #4]
   843c8:	6029      	str	r1, [r5, #0]
   843ca:	d5b8      	bpl.n	8433e <__sflush_r+0x6a>
   843cc:	2c00      	cmp	r4, #0
   843ce:	d1b6      	bne.n	8433e <__sflush_r+0x6a>
   843d0:	6528      	str	r0, [r5, #80]	; 0x50
   843d2:	e7b4      	b.n	8433e <__sflush_r+0x6a>
   843d4:	6bea      	ldr	r2, [r5, #60]	; 0x3c
   843d6:	2a00      	cmp	r2, #0
   843d8:	dc8b      	bgt.n	842f2 <__sflush_r+0x1e>
   843da:	e7d8      	b.n	8438e <__sflush_r+0xba>
   843dc:	2301      	movs	r3, #1
   843de:	69e9      	ldr	r1, [r5, #28]
   843e0:	4640      	mov	r0, r8
   843e2:	47a0      	blx	r4
   843e4:	1c43      	adds	r3, r0, #1
   843e6:	4602      	mov	r2, r0
   843e8:	d002      	beq.n	843f0 <__sflush_r+0x11c>
   843ea:	89ab      	ldrh	r3, [r5, #12]
   843ec:	6aac      	ldr	r4, [r5, #40]	; 0x28
   843ee:	e78d      	b.n	8430c <__sflush_r+0x38>
   843f0:	f8d8 3000 	ldr.w	r3, [r8]
   843f4:	2b00      	cmp	r3, #0
   843f6:	d0f8      	beq.n	843ea <__sflush_r+0x116>
   843f8:	2b1d      	cmp	r3, #29
   843fa:	d001      	beq.n	84400 <__sflush_r+0x12c>
   843fc:	2b16      	cmp	r3, #22
   843fe:	d1c9      	bne.n	84394 <__sflush_r+0xc0>
   84400:	f8c8 6000 	str.w	r6, [r8]
   84404:	e7c3      	b.n	8438e <__sflush_r+0xba>
   84406:	bf00      	nop
   84408:	20400001 	.word	0x20400001

0008440c <_fflush_r>:
   8440c:	b538      	push	{r3, r4, r5, lr}
   8440e:	460d      	mov	r5, r1
   84410:	4604      	mov	r4, r0
   84412:	b108      	cbz	r0, 84418 <_fflush_r+0xc>
   84414:	6b83      	ldr	r3, [r0, #56]	; 0x38
   84416:	b1bb      	cbz	r3, 84448 <_fflush_r+0x3c>
   84418:	f9b5 000c 	ldrsh.w	r0, [r5, #12]
   8441c:	b188      	cbz	r0, 84442 <_fflush_r+0x36>
   8441e:	6e6b      	ldr	r3, [r5, #100]	; 0x64
   84420:	07db      	lsls	r3, r3, #31
   84422:	d401      	bmi.n	84428 <_fflush_r+0x1c>
   84424:	0581      	lsls	r1, r0, #22
   84426:	d517      	bpl.n	84458 <_fflush_r+0x4c>
   84428:	4620      	mov	r0, r4
   8442a:	4629      	mov	r1, r5
   8442c:	f7ff ff52 	bl	842d4 <__sflush_r>
   84430:	6e6b      	ldr	r3, [r5, #100]	; 0x64
   84432:	4604      	mov	r4, r0
   84434:	07da      	lsls	r2, r3, #31
   84436:	d402      	bmi.n	8443e <_fflush_r+0x32>
   84438:	89ab      	ldrh	r3, [r5, #12]
   8443a:	059b      	lsls	r3, r3, #22
   8443c:	d507      	bpl.n	8444e <_fflush_r+0x42>
   8443e:	4620      	mov	r0, r4
   84440:	bd38      	pop	{r3, r4, r5, pc}
   84442:	4604      	mov	r4, r0
   84444:	4620      	mov	r0, r4
   84446:	bd38      	pop	{r3, r4, r5, pc}
   84448:	f000 f838 	bl	844bc <__sinit>
   8444c:	e7e4      	b.n	84418 <_fflush_r+0xc>
   8444e:	6da8      	ldr	r0, [r5, #88]	; 0x58
   84450:	f000 fb76 	bl	84b40 <__retarget_lock_release_recursive>
   84454:	4620      	mov	r0, r4
   84456:	bd38      	pop	{r3, r4, r5, pc}
   84458:	6da8      	ldr	r0, [r5, #88]	; 0x58
   8445a:	f000 fb6f 	bl	84b3c <__retarget_lock_acquire_recursive>
   8445e:	e7e3      	b.n	84428 <_fflush_r+0x1c>

00084460 <_cleanup_r>:
   84460:	4901      	ldr	r1, [pc, #4]	; (84468 <_cleanup_r+0x8>)
   84462:	f000 bb31 	b.w	84ac8 <_fwalk_reent>
   84466:	bf00      	nop
   84468:	00085fe9 	.word	0x00085fe9

0008446c <std.isra.0>:
   8446c:	2300      	movs	r3, #0
   8446e:	b510      	push	{r4, lr}
   84470:	4604      	mov	r4, r0
   84472:	8181      	strh	r1, [r0, #12]
   84474:	81c2      	strh	r2, [r0, #14]
   84476:	6003      	str	r3, [r0, #0]
   84478:	6043      	str	r3, [r0, #4]
   8447a:	6083      	str	r3, [r0, #8]
   8447c:	6643      	str	r3, [r0, #100]	; 0x64
   8447e:	6103      	str	r3, [r0, #16]
   84480:	6143      	str	r3, [r0, #20]
   84482:	6183      	str	r3, [r0, #24]
   84484:	4619      	mov	r1, r3
   84486:	2208      	movs	r2, #8
   84488:	305c      	adds	r0, #92	; 0x5c
   8448a:	f7fd fad9 	bl	81a40 <memset>
   8448e:	4807      	ldr	r0, [pc, #28]	; (844ac <std.isra.0+0x40>)
   84490:	4907      	ldr	r1, [pc, #28]	; (844b0 <std.isra.0+0x44>)
   84492:	4a08      	ldr	r2, [pc, #32]	; (844b4 <std.isra.0+0x48>)
   84494:	4b08      	ldr	r3, [pc, #32]	; (844b8 <std.isra.0+0x4c>)
   84496:	6220      	str	r0, [r4, #32]
   84498:	61e4      	str	r4, [r4, #28]
   8449a:	6261      	str	r1, [r4, #36]	; 0x24
   8449c:	62a2      	str	r2, [r4, #40]	; 0x28
   8449e:	62e3      	str	r3, [r4, #44]	; 0x2c
   844a0:	f104 0058 	add.w	r0, r4, #88	; 0x58
   844a4:	e8bd 4010 	ldmia.w	sp!, {r4, lr}
   844a8:	f000 bb44 	b.w	84b34 <__retarget_lock_init_recursive>
   844ac:	00085d59 	.word	0x00085d59
   844b0:	00085d7d 	.word	0x00085d7d
   844b4:	00085db9 	.word	0x00085db9
   844b8:	00085dd9 	.word	0x00085dd9

000844bc <__sinit>:
   844bc:	b510      	push	{r4, lr}
   844be:	4604      	mov	r4, r0
   844c0:	4814      	ldr	r0, [pc, #80]	; (84514 <__sinit+0x58>)
   844c2:	f000 fb3b 	bl	84b3c <__retarget_lock_acquire_recursive>
   844c6:	6ba2      	ldr	r2, [r4, #56]	; 0x38
   844c8:	b9fa      	cbnz	r2, 8450a <__sinit+0x4e>
   844ca:	2003      	movs	r0, #3
   844cc:	4912      	ldr	r1, [pc, #72]	; (84518 <__sinit+0x5c>)
   844ce:	f504 733b 	add.w	r3, r4, #748	; 0x2ec
   844d2:	f8c4 32e8 	str.w	r3, [r4, #744]	; 0x2e8
   844d6:	f8c4 22e0 	str.w	r2, [r4, #736]	; 0x2e0
   844da:	f8c4 02e4 	str.w	r0, [r4, #740]	; 0x2e4
   844de:	63e1      	str	r1, [r4, #60]	; 0x3c
   844e0:	6860      	ldr	r0, [r4, #4]
   844e2:	2104      	movs	r1, #4
   844e4:	f7ff ffc2 	bl	8446c <std.isra.0>
   844e8:	68a0      	ldr	r0, [r4, #8]
   844ea:	2201      	movs	r2, #1
   844ec:	2109      	movs	r1, #9
   844ee:	f7ff ffbd 	bl	8446c <std.isra.0>
   844f2:	68e0      	ldr	r0, [r4, #12]
   844f4:	2202      	movs	r2, #2
   844f6:	2112      	movs	r1, #18
   844f8:	f7ff ffb8 	bl	8446c <std.isra.0>
   844fc:	2301      	movs	r3, #1
   844fe:	4805      	ldr	r0, [pc, #20]	; (84514 <__sinit+0x58>)
   84500:	63a3      	str	r3, [r4, #56]	; 0x38
   84502:	e8bd 4010 	ldmia.w	sp!, {r4, lr}
   84506:	f000 bb1b 	b.w	84b40 <__retarget_lock_release_recursive>
   8450a:	4802      	ldr	r0, [pc, #8]	; (84514 <__sinit+0x58>)
   8450c:	e8bd 4010 	ldmia.w	sp!, {r4, lr}
   84510:	f000 bb16 	b.w	84b40 <__retarget_lock_release_recursive>
   84514:	20000e54 	.word	0x20000e54
   84518:	00084461 	.word	0x00084461

0008451c <__sfp_lock_acquire>:
   8451c:	4801      	ldr	r0, [pc, #4]	; (84524 <__sfp_lock_acquire+0x8>)
   8451e:	f000 bb0d 	b.w	84b3c <__retarget_lock_acquire_recursive>
   84522:	bf00      	nop
   84524:	20000e68 	.word	0x20000e68

00084528 <__sfp_lock_release>:
   84528:	4801      	ldr	r0, [pc, #4]	; (84530 <__sfp_lock_release+0x8>)
   8452a:	f000 bb09 	b.w	84b40 <__retarget_lock_release_recursive>
   8452e:	bf00      	nop
   84530:	20000e68 	.word	0x20000e68

00084534 <__libc_fini_array>:
   84534:	b538      	push	{r3, r4, r5, lr}
   84536:	4c0a      	ldr	r4, [pc, #40]	; (84560 <__libc_fini_array+0x2c>)
   84538:	4d0a      	ldr	r5, [pc, #40]	; (84564 <__libc_fini_array+0x30>)
   8453a:	1b64      	subs	r4, r4, r5
   8453c:	10a4      	asrs	r4, r4, #2
   8453e:	d00a      	beq.n	84556 <__libc_fini_array+0x22>
   84540:	f104 4380 	add.w	r3, r4, #1073741824	; 0x40000000
   84544:	3b01      	subs	r3, #1
   84546:	eb05 0583 	add.w	r5, r5, r3, lsl #2
   8454a:	3c01      	subs	r4, #1
   8454c:	f855 3904 	ldr.w	r3, [r5], #-4
   84550:	4798      	blx	r3
   84552:	2c00      	cmp	r4, #0
   84554:	d1f9      	bne.n	8454a <__libc_fini_array+0x16>
   84556:	e8bd 4038 	ldmia.w	sp!, {r3, r4, r5, lr}
   8455a:	f002 b8d1 	b.w	86700 <_fini>
   8455e:	bf00      	nop
   84560:	00086710 	.word	0x00086710
   84564:	0008670c 	.word	0x0008670c

00084568 <_malloc_trim_r>:
   84568:	b5f8      	push	{r3, r4, r5, r6, r7, lr}
   8456a:	460c      	mov	r4, r1
   8456c:	4f23      	ldr	r7, [pc, #140]	; (845fc <_malloc_trim_r+0x94>)
   8456e:	4606      	mov	r6, r0
   84570:	f000 ff22 	bl	853b8 <__malloc_lock>
   84574:	68bb      	ldr	r3, [r7, #8]
   84576:	f5c4 617e 	rsb	r1, r4, #4064	; 0xfe0
   8457a:	685d      	ldr	r5, [r3, #4]
   8457c:	310f      	adds	r1, #15
   8457e:	f025 0503 	bic.w	r5, r5, #3
   84582:	4429      	add	r1, r5
   84584:	f421 617f 	bic.w	r1, r1, #4080	; 0xff0
   84588:	f021 010f 	bic.w	r1, r1, #15
   8458c:	f5a1 5480 	sub.w	r4, r1, #4096	; 0x1000
   84590:	f5b4 5f80 	cmp.w	r4, #4096	; 0x1000
   84594:	db07      	blt.n	845a6 <_malloc_trim_r+0x3e>
   84596:	2100      	movs	r1, #0
   84598:	4630      	mov	r0, r6
   8459a:	f001 fbcb 	bl	85d34 <_sbrk_r>
   8459e:	68bb      	ldr	r3, [r7, #8]
   845a0:	442b      	add	r3, r5
   845a2:	4298      	cmp	r0, r3
   845a4:	d004      	beq.n	845b0 <_malloc_trim_r+0x48>
   845a6:	4630      	mov	r0, r6
   845a8:	f000 ff0c 	bl	853c4 <__malloc_unlock>
   845ac:	2000      	movs	r0, #0
   845ae:	bdf8      	pop	{r3, r4, r5, r6, r7, pc}
   845b0:	4261      	negs	r1, r4
   845b2:	4630      	mov	r0, r6
   845b4:	f001 fbbe 	bl	85d34 <_sbrk_r>
   845b8:	3001      	adds	r0, #1
   845ba:	d00d      	beq.n	845d8 <_malloc_trim_r+0x70>
   845bc:	4b10      	ldr	r3, [pc, #64]	; (84600 <_malloc_trim_r+0x98>)
   845be:	68ba      	ldr	r2, [r7, #8]
   845c0:	6819      	ldr	r1, [r3, #0]
   845c2:	1b2d      	subs	r5, r5, r4
   845c4:	f045 0501 	orr.w	r5, r5, #1
   845c8:	4630      	mov	r0, r6
   845ca:	1b09      	subs	r1, r1, r4
   845cc:	6055      	str	r5, [r2, #4]
   845ce:	6019      	str	r1, [r3, #0]
   845d0:	f000 fef8 	bl	853c4 <__malloc_unlock>
   845d4:	2001      	movs	r0, #1
   845d6:	bdf8      	pop	{r3, r4, r5, r6, r7, pc}
   845d8:	2100      	movs	r1, #0
   845da:	4630      	mov	r0, r6
   845dc:	f001 fbaa 	bl	85d34 <_sbrk_r>
   845e0:	68ba      	ldr	r2, [r7, #8]
   845e2:	1a83      	subs	r3, r0, r2
   845e4:	2b0f      	cmp	r3, #15
   845e6:	ddde      	ble.n	845a6 <_malloc_trim_r+0x3e>
   845e8:	4c06      	ldr	r4, [pc, #24]	; (84604 <_malloc_trim_r+0x9c>)
   845ea:	4905      	ldr	r1, [pc, #20]	; (84600 <_malloc_trim_r+0x98>)
   845ec:	6824      	ldr	r4, [r4, #0]
   845ee:	f043 0301 	orr.w	r3, r3, #1
   845f2:	1b00      	subs	r0, r0, r4
   845f4:	6053      	str	r3, [r2, #4]
   845f6:	6008      	str	r0, [r1, #0]
   845f8:	e7d5      	b.n	845a6 <_malloc_trim_r+0x3e>
   845fa:	bf00      	nop
   845fc:	2000043c 	.word	0x2000043c
   84600:	20000dfc 	.word	0x20000dfc
   84604:	20000844 	.word	0x20000844

00084608 <_free_r>:
   84608:	2900      	cmp	r1, #0
   8460a:	d044      	beq.n	84696 <_free_r+0x8e>
   8460c:	e92d 41f0 	stmdb	sp!, {r4, r5, r6, r7, r8, lr}
   84610:	460d      	mov	r5, r1
   84612:	4680      	mov	r8, r0
   84614:	f000 fed0 	bl	853b8 <__malloc_lock>
   84618:	f855 7c04 	ldr.w	r7, [r5, #-4]
   8461c:	4969      	ldr	r1, [pc, #420]	; (847c4 <_free_r+0x1bc>)
   8461e:	f1a5 0408 	sub.w	r4, r5, #8
   84622:	f027 0301 	bic.w	r3, r7, #1
   84626:	18e2      	adds	r2, r4, r3
   84628:	688e      	ldr	r6, [r1, #8]
   8462a:	6850      	ldr	r0, [r2, #4]
   8462c:	42b2      	cmp	r2, r6
   8462e:	f020 0003 	bic.w	r0, r0, #3
   84632:	d05e      	beq.n	846f2 <_free_r+0xea>
   84634:	07fe      	lsls	r6, r7, #31
   84636:	6050      	str	r0, [r2, #4]
   84638:	d40b      	bmi.n	84652 <_free_r+0x4a>
   8463a:	f855 7c08 	ldr.w	r7, [r5, #-8]
   8463e:	f101 0e08 	add.w	lr, r1, #8
   84642:	1be4      	subs	r4, r4, r7
   84644:	68a5      	ldr	r5, [r4, #8]
   84646:	443b      	add	r3, r7
   84648:	4575      	cmp	r5, lr
   8464a:	d06d      	beq.n	84728 <_free_r+0x120>
   8464c:	68e7      	ldr	r7, [r4, #12]
   8464e:	60ef      	str	r7, [r5, #12]
   84650:	60bd      	str	r5, [r7, #8]
   84652:	1815      	adds	r5, r2, r0
   84654:	686d      	ldr	r5, [r5, #4]
   84656:	07ed      	lsls	r5, r5, #31
   84658:	d53e      	bpl.n	846d8 <_free_r+0xd0>
   8465a:	f043 0201 	orr.w	r2, r3, #1
   8465e:	6062      	str	r2, [r4, #4]
   84660:	50e3      	str	r3, [r4, r3]
   84662:	f5b3 7f00 	cmp.w	r3, #512	; 0x200
   84666:	d217      	bcs.n	84698 <_free_r+0x90>
   84668:	2201      	movs	r2, #1
   8466a:	08db      	lsrs	r3, r3, #3
   8466c:	1098      	asrs	r0, r3, #2
   8466e:	684d      	ldr	r5, [r1, #4]
   84670:	4413      	add	r3, r2
   84672:	f851 7033 	ldr.w	r7, [r1, r3, lsl #3]
   84676:	4082      	lsls	r2, r0
   84678:	eb01 00c3 	add.w	r0, r1, r3, lsl #3
   8467c:	432a      	orrs	r2, r5
   8467e:	3808      	subs	r0, #8
   84680:	60e0      	str	r0, [r4, #12]
   84682:	60a7      	str	r7, [r4, #8]
   84684:	604a      	str	r2, [r1, #4]
   84686:	f841 4033 	str.w	r4, [r1, r3, lsl #3]
   8468a:	60fc      	str	r4, [r7, #12]
   8468c:	4640      	mov	r0, r8
   8468e:	e8bd 41f0 	ldmia.w	sp!, {r4, r5, r6, r7, r8, lr}
   84692:	f000 be97 	b.w	853c4 <__malloc_unlock>
   84696:	4770      	bx	lr
   84698:	0a5a      	lsrs	r2, r3, #9
   8469a:	2a04      	cmp	r2, #4
   8469c:	d852      	bhi.n	84744 <_free_r+0x13c>
   8469e:	099a      	lsrs	r2, r3, #6
   846a0:	f102 0739 	add.w	r7, r2, #57	; 0x39
   846a4:	00ff      	lsls	r7, r7, #3
   846a6:	f102 0538 	add.w	r5, r2, #56	; 0x38
   846aa:	19c8      	adds	r0, r1, r7
   846ac:	59ca      	ldr	r2, [r1, r7]
   846ae:	3808      	subs	r0, #8
   846b0:	4290      	cmp	r0, r2
   846b2:	d04f      	beq.n	84754 <_free_r+0x14c>
   846b4:	6851      	ldr	r1, [r2, #4]
   846b6:	f021 0103 	bic.w	r1, r1, #3
   846ba:	428b      	cmp	r3, r1
   846bc:	d232      	bcs.n	84724 <_free_r+0x11c>
   846be:	6892      	ldr	r2, [r2, #8]
   846c0:	4290      	cmp	r0, r2
   846c2:	d1f7      	bne.n	846b4 <_free_r+0xac>
   846c4:	68c3      	ldr	r3, [r0, #12]
   846c6:	60a0      	str	r0, [r4, #8]
   846c8:	60e3      	str	r3, [r4, #12]
   846ca:	609c      	str	r4, [r3, #8]
   846cc:	60c4      	str	r4, [r0, #12]
   846ce:	4640      	mov	r0, r8
   846d0:	e8bd 41f0 	ldmia.w	sp!, {r4, r5, r6, r7, r8, lr}
   846d4:	f000 be76 	b.w	853c4 <__malloc_unlock>
   846d8:	6895      	ldr	r5, [r2, #8]
   846da:	4f3b      	ldr	r7, [pc, #236]	; (847c8 <_free_r+0x1c0>)
   846dc:	4403      	add	r3, r0
   846de:	42bd      	cmp	r5, r7
   846e0:	d040      	beq.n	84764 <_free_r+0x15c>
   846e2:	68d0      	ldr	r0, [r2, #12]
   846e4:	f043 0201 	orr.w	r2, r3, #1
   846e8:	60e8      	str	r0, [r5, #12]
   846ea:	6085      	str	r5, [r0, #8]
   846ec:	6062      	str	r2, [r4, #4]
   846ee:	50e3      	str	r3, [r4, r3]
   846f0:	e7b7      	b.n	84662 <_free_r+0x5a>
   846f2:	07ff      	lsls	r7, r7, #31
   846f4:	4403      	add	r3, r0
   846f6:	d407      	bmi.n	84708 <_free_r+0x100>
   846f8:	f855 5c08 	ldr.w	r5, [r5, #-8]
   846fc:	1b64      	subs	r4, r4, r5
   846fe:	68e2      	ldr	r2, [r4, #12]
   84700:	68a0      	ldr	r0, [r4, #8]
   84702:	442b      	add	r3, r5
   84704:	60c2      	str	r2, [r0, #12]
   84706:	6090      	str	r0, [r2, #8]
   84708:	4a30      	ldr	r2, [pc, #192]	; (847cc <_free_r+0x1c4>)
   8470a:	f043 0001 	orr.w	r0, r3, #1
   8470e:	6812      	ldr	r2, [r2, #0]
   84710:	6060      	str	r0, [r4, #4]
   84712:	4293      	cmp	r3, r2
   84714:	608c      	str	r4, [r1, #8]
   84716:	d3b9      	bcc.n	8468c <_free_r+0x84>
   84718:	4b2d      	ldr	r3, [pc, #180]	; (847d0 <_free_r+0x1c8>)
   8471a:	4640      	mov	r0, r8
   8471c:	6819      	ldr	r1, [r3, #0]
   8471e:	f7ff ff23 	bl	84568 <_malloc_trim_r>
   84722:	e7b3      	b.n	8468c <_free_r+0x84>
   84724:	4610      	mov	r0, r2
   84726:	e7cd      	b.n	846c4 <_free_r+0xbc>
   84728:	1811      	adds	r1, r2, r0
   8472a:	6849      	ldr	r1, [r1, #4]
   8472c:	07c9      	lsls	r1, r1, #31
   8472e:	d444      	bmi.n	847ba <_free_r+0x1b2>
   84730:	6891      	ldr	r1, [r2, #8]
   84732:	4403      	add	r3, r0
   84734:	68d2      	ldr	r2, [r2, #12]
   84736:	f043 0001 	orr.w	r0, r3, #1
   8473a:	60ca      	str	r2, [r1, #12]
   8473c:	6091      	str	r1, [r2, #8]
   8473e:	6060      	str	r0, [r4, #4]
   84740:	50e3      	str	r3, [r4, r3]
   84742:	e7a3      	b.n	8468c <_free_r+0x84>
   84744:	2a14      	cmp	r2, #20
   84746:	d816      	bhi.n	84776 <_free_r+0x16e>
   84748:	f102 075c 	add.w	r7, r2, #92	; 0x5c
   8474c:	00ff      	lsls	r7, r7, #3
   8474e:	f102 055b 	add.w	r5, r2, #91	; 0x5b
   84752:	e7aa      	b.n	846aa <_free_r+0xa2>
   84754:	2301      	movs	r3, #1
   84756:	10aa      	asrs	r2, r5, #2
   84758:	684d      	ldr	r5, [r1, #4]
   8475a:	4093      	lsls	r3, r2
   8475c:	432b      	orrs	r3, r5
   8475e:	604b      	str	r3, [r1, #4]
   84760:	4603      	mov	r3, r0
   84762:	e7b0      	b.n	846c6 <_free_r+0xbe>
   84764:	f043 0201 	orr.w	r2, r3, #1
   84768:	614c      	str	r4, [r1, #20]
   8476a:	610c      	str	r4, [r1, #16]
   8476c:	60e5      	str	r5, [r4, #12]
   8476e:	60a5      	str	r5, [r4, #8]
   84770:	6062      	str	r2, [r4, #4]
   84772:	50e3      	str	r3, [r4, r3]
   84774:	e78a      	b.n	8468c <_free_r+0x84>
   84776:	2a54      	cmp	r2, #84	; 0x54
   84778:	d806      	bhi.n	84788 <_free_r+0x180>
   8477a:	0b1a      	lsrs	r2, r3, #12
   8477c:	f102 076f 	add.w	r7, r2, #111	; 0x6f
   84780:	00ff      	lsls	r7, r7, #3
   84782:	f102 056e 	add.w	r5, r2, #110	; 0x6e
   84786:	e790      	b.n	846aa <_free_r+0xa2>
   84788:	f5b2 7faa 	cmp.w	r2, #340	; 0x154
   8478c:	d806      	bhi.n	8479c <_free_r+0x194>
   8478e:	0bda      	lsrs	r2, r3, #15
   84790:	f102 0778 	add.w	r7, r2, #120	; 0x78
   84794:	00ff      	lsls	r7, r7, #3
   84796:	f102 0577 	add.w	r5, r2, #119	; 0x77
   8479a:	e786      	b.n	846aa <_free_r+0xa2>
   8479c:	f240 5054 	movw	r0, #1364	; 0x554
   847a0:	4282      	cmp	r2, r0
   847a2:	d806      	bhi.n	847b2 <_free_r+0x1aa>
   847a4:	0c9a      	lsrs	r2, r3, #18
   847a6:	f102 077d 	add.w	r7, r2, #125	; 0x7d
   847aa:	00ff      	lsls	r7, r7, #3
   847ac:	f102 057c 	add.w	r5, r2, #124	; 0x7c
   847b0:	e77b      	b.n	846aa <_free_r+0xa2>
   847b2:	f44f 777e 	mov.w	r7, #1016	; 0x3f8
   847b6:	257e      	movs	r5, #126	; 0x7e
   847b8:	e777      	b.n	846aa <_free_r+0xa2>
   847ba:	f043 0101 	orr.w	r1, r3, #1
   847be:	6061      	str	r1, [r4, #4]
   847c0:	6013      	str	r3, [r2, #0]
   847c2:	e763      	b.n	8468c <_free_r+0x84>
   847c4:	2000043c 	.word	0x2000043c
   847c8:	20000444 	.word	0x20000444
   847cc:	20000848 	.word	0x20000848
   847d0:	20000e2c 	.word	0x20000e2c

000847d4 <__sfvwrite_r>:
   847d4:	6893      	ldr	r3, [r2, #8]
   847d6:	2b00      	cmp	r3, #0
   847d8:	d071      	beq.n	848be <__sfvwrite_r+0xea>
   847da:	e92d 4ff0 	stmdb	sp!, {r4, r5, r6, r7, r8, r9, sl, fp, lr}
   847de:	898b      	ldrh	r3, [r1, #12]
   847e0:	b083      	sub	sp, #12
   847e2:	460c      	mov	r4, r1
   847e4:	0719      	lsls	r1, r3, #28
   847e6:	9000      	str	r0, [sp, #0]
   847e8:	4616      	mov	r6, r2
   847ea:	d525      	bpl.n	84838 <__sfvwrite_r+0x64>
   847ec:	6922      	ldr	r2, [r4, #16]
   847ee:	b31a      	cbz	r2, 84838 <__sfvwrite_r+0x64>
   847f0:	f013 0002 	ands.w	r0, r3, #2
   847f4:	6835      	ldr	r5, [r6, #0]
   847f6:	d02b      	beq.n	84850 <__sfvwrite_r+0x7c>
   847f8:	f04f 0900 	mov.w	r9, #0
   847fc:	46b0      	mov	r8, r6
   847fe:	464f      	mov	r7, r9
   84800:	f8df a2c0 	ldr.w	sl, [pc, #704]	; 84ac4 <__sfvwrite_r+0x2f0>
   84804:	2f00      	cmp	r7, #0
   84806:	d055      	beq.n	848b4 <__sfvwrite_r+0xe0>
   84808:	4557      	cmp	r7, sl
   8480a:	463b      	mov	r3, r7
   8480c:	464a      	mov	r2, r9
   8480e:	bf28      	it	cs
   84810:	4653      	movcs	r3, sl
   84812:	69e1      	ldr	r1, [r4, #28]
   84814:	9800      	ldr	r0, [sp, #0]
   84816:	6a66      	ldr	r6, [r4, #36]	; 0x24
   84818:	47b0      	blx	r6
   8481a:	2800      	cmp	r0, #0
   8481c:	dd56      	ble.n	848cc <__sfvwrite_r+0xf8>
   8481e:	f8d8 3008 	ldr.w	r3, [r8, #8]
   84822:	4481      	add	r9, r0
   84824:	1a1b      	subs	r3, r3, r0
   84826:	1a3f      	subs	r7, r7, r0
   84828:	f8c8 3008 	str.w	r3, [r8, #8]
   8482c:	2b00      	cmp	r3, #0
   8482e:	d1e9      	bne.n	84804 <__sfvwrite_r+0x30>
   84830:	2000      	movs	r0, #0
   84832:	b003      	add	sp, #12
   84834:	e8bd 8ff0 	ldmia.w	sp!, {r4, r5, r6, r7, r8, r9, sl, fp, pc}
   84838:	4621      	mov	r1, r4
   8483a:	9800      	ldr	r0, [sp, #0]
   8483c:	f7fe fd1e 	bl	8327c <__swsetup_r>
   84840:	2800      	cmp	r0, #0
   84842:	f040 8135 	bne.w	84ab0 <__sfvwrite_r+0x2dc>
   84846:	89a3      	ldrh	r3, [r4, #12]
   84848:	6835      	ldr	r5, [r6, #0]
   8484a:	f013 0002 	ands.w	r0, r3, #2
   8484e:	d1d3      	bne.n	847f8 <__sfvwrite_r+0x24>
   84850:	f013 0901 	ands.w	r9, r3, #1
   84854:	d144      	bne.n	848e0 <__sfvwrite_r+0x10c>
   84856:	464f      	mov	r7, r9
   84858:	9601      	str	r6, [sp, #4]
   8485a:	b337      	cbz	r7, 848aa <__sfvwrite_r+0xd6>
   8485c:	059a      	lsls	r2, r3, #22
   8485e:	f8d4 8008 	ldr.w	r8, [r4, #8]
   84862:	f140 8085 	bpl.w	84970 <__sfvwrite_r+0x19c>
   84866:	4547      	cmp	r7, r8
   84868:	46c3      	mov	fp, r8
   8486a:	f0c0 80ad 	bcc.w	849c8 <__sfvwrite_r+0x1f4>
   8486e:	f413 6f90 	tst.w	r3, #1152	; 0x480
   84872:	f040 80ae 	bne.w	849d2 <__sfvwrite_r+0x1fe>
   84876:	46ba      	mov	sl, r7
   84878:	6820      	ldr	r0, [r4, #0]
   8487a:	465a      	mov	r2, fp
   8487c:	4649      	mov	r1, r9
   8487e:	f000 fd37 	bl	852f0 <memmove>
   84882:	68a2      	ldr	r2, [r4, #8]
   84884:	6823      	ldr	r3, [r4, #0]
   84886:	eba2 0208 	sub.w	r2, r2, r8
   8488a:	445b      	add	r3, fp
   8488c:	60a2      	str	r2, [r4, #8]
   8488e:	6023      	str	r3, [r4, #0]
   84890:	9a01      	ldr	r2, [sp, #4]
   84892:	44d1      	add	r9, sl
   84894:	6893      	ldr	r3, [r2, #8]
   84896:	eba7 070a 	sub.w	r7, r7, sl
   8489a:	eba3 030a 	sub.w	r3, r3, sl
   8489e:	6093      	str	r3, [r2, #8]
   848a0:	2b00      	cmp	r3, #0
   848a2:	d0c5      	beq.n	84830 <__sfvwrite_r+0x5c>
   848a4:	89a3      	ldrh	r3, [r4, #12]
   848a6:	2f00      	cmp	r7, #0
   848a8:	d1d8      	bne.n	8485c <__sfvwrite_r+0x88>
   848aa:	f8d5 9000 	ldr.w	r9, [r5]
   848ae:	686f      	ldr	r7, [r5, #4]
   848b0:	3508      	adds	r5, #8
   848b2:	e7d2      	b.n	8485a <__sfvwrite_r+0x86>
   848b4:	f8d5 9000 	ldr.w	r9, [r5]
   848b8:	686f      	ldr	r7, [r5, #4]
   848ba:	3508      	adds	r5, #8
   848bc:	e7a2      	b.n	84804 <__sfvwrite_r+0x30>
   848be:	2000      	movs	r0, #0
   848c0:	4770      	bx	lr
   848c2:	4621      	mov	r1, r4
   848c4:	9800      	ldr	r0, [sp, #0]
   848c6:	f7ff fda1 	bl	8440c <_fflush_r>
   848ca:	b378      	cbz	r0, 8492c <__sfvwrite_r+0x158>
   848cc:	f9b4 300c 	ldrsh.w	r3, [r4, #12]
   848d0:	f04f 30ff 	mov.w	r0, #4294967295
   848d4:	f043 0340 	orr.w	r3, r3, #64	; 0x40
   848d8:	81a3      	strh	r3, [r4, #12]
   848da:	b003      	add	sp, #12
   848dc:	e8bd 8ff0 	ldmia.w	sp!, {r4, r5, r6, r7, r8, r9, sl, fp, pc}
   848e0:	4681      	mov	r9, r0
   848e2:	4633      	mov	r3, r6
   848e4:	464e      	mov	r6, r9
   848e6:	46a8      	mov	r8, r5
   848e8:	469a      	mov	sl, r3
   848ea:	464d      	mov	r5, r9
   848ec:	b356      	cbz	r6, 84944 <__sfvwrite_r+0x170>
   848ee:	2800      	cmp	r0, #0
   848f0:	d032      	beq.n	84958 <__sfvwrite_r+0x184>
   848f2:	45b1      	cmp	r9, r6
   848f4:	46cb      	mov	fp, r9
   848f6:	bf28      	it	cs
   848f8:	46b3      	movcs	fp, r6
   848fa:	6820      	ldr	r0, [r4, #0]
   848fc:	6923      	ldr	r3, [r4, #16]
   848fe:	465f      	mov	r7, fp
   84900:	4298      	cmp	r0, r3
   84902:	6962      	ldr	r2, [r4, #20]
   84904:	d904      	bls.n	84910 <__sfvwrite_r+0x13c>
   84906:	68a3      	ldr	r3, [r4, #8]
   84908:	4413      	add	r3, r2
   8490a:	459b      	cmp	fp, r3
   8490c:	f300 80a8 	bgt.w	84a60 <__sfvwrite_r+0x28c>
   84910:	4593      	cmp	fp, r2
   84912:	db4d      	blt.n	849b0 <__sfvwrite_r+0x1dc>
   84914:	4613      	mov	r3, r2
   84916:	6a67      	ldr	r7, [r4, #36]	; 0x24
   84918:	462a      	mov	r2, r5
   8491a:	69e1      	ldr	r1, [r4, #28]
   8491c:	9800      	ldr	r0, [sp, #0]
   8491e:	47b8      	blx	r7
   84920:	1e07      	subs	r7, r0, #0
   84922:	ddd3      	ble.n	848cc <__sfvwrite_r+0xf8>
   84924:	ebb9 0907 	subs.w	r9, r9, r7
   84928:	d0cb      	beq.n	848c2 <__sfvwrite_r+0xee>
   8492a:	2001      	movs	r0, #1
   8492c:	f8da 3008 	ldr.w	r3, [sl, #8]
   84930:	443d      	add	r5, r7
   84932:	1bdb      	subs	r3, r3, r7
   84934:	1bf6      	subs	r6, r6, r7
   84936:	f8ca 3008 	str.w	r3, [sl, #8]
   8493a:	2b00      	cmp	r3, #0
   8493c:	f43f af78 	beq.w	84830 <__sfvwrite_r+0x5c>
   84940:	2e00      	cmp	r6, #0
   84942:	d1d4      	bne.n	848ee <__sfvwrite_r+0x11a>
   84944:	f108 0308 	add.w	r3, r8, #8
   84948:	f853 6c04 	ldr.w	r6, [r3, #-4]
   8494c:	4698      	mov	r8, r3
   8494e:	f853 5c08 	ldr.w	r5, [r3, #-8]
   84952:	3308      	adds	r3, #8
   84954:	2e00      	cmp	r6, #0
   84956:	d0f7      	beq.n	84948 <__sfvwrite_r+0x174>
   84958:	4632      	mov	r2, r6
   8495a:	210a      	movs	r1, #10
   8495c:	4628      	mov	r0, r5
   8495e:	f000 fc0b 	bl	85178 <memchr>
   84962:	2800      	cmp	r0, #0
   84964:	f000 80a1 	beq.w	84aaa <__sfvwrite_r+0x2d6>
   84968:	3001      	adds	r0, #1
   8496a:	eba0 0905 	sub.w	r9, r0, r5
   8496e:	e7c0      	b.n	848f2 <__sfvwrite_r+0x11e>
   84970:	6820      	ldr	r0, [r4, #0]
   84972:	6923      	ldr	r3, [r4, #16]
   84974:	4298      	cmp	r0, r3
   84976:	d802      	bhi.n	8497e <__sfvwrite_r+0x1aa>
   84978:	6963      	ldr	r3, [r4, #20]
   8497a:	429f      	cmp	r7, r3
   8497c:	d25d      	bcs.n	84a3a <__sfvwrite_r+0x266>
   8497e:	45b8      	cmp	r8, r7
   84980:	bf28      	it	cs
   84982:	46b8      	movcs	r8, r7
   84984:	4649      	mov	r1, r9
   84986:	4642      	mov	r2, r8
   84988:	f000 fcb2 	bl	852f0 <memmove>
   8498c:	68a3      	ldr	r3, [r4, #8]
   8498e:	6822      	ldr	r2, [r4, #0]
   84990:	eba3 0308 	sub.w	r3, r3, r8
   84994:	4442      	add	r2, r8
   84996:	60a3      	str	r3, [r4, #8]
   84998:	6022      	str	r2, [r4, #0]
   8499a:	b10b      	cbz	r3, 849a0 <__sfvwrite_r+0x1cc>
   8499c:	46c2      	mov	sl, r8
   8499e:	e777      	b.n	84890 <__sfvwrite_r+0xbc>
   849a0:	4621      	mov	r1, r4
   849a2:	9800      	ldr	r0, [sp, #0]
   849a4:	f7ff fd32 	bl	8440c <_fflush_r>
   849a8:	2800      	cmp	r0, #0
   849aa:	d18f      	bne.n	848cc <__sfvwrite_r+0xf8>
   849ac:	46c2      	mov	sl, r8
   849ae:	e76f      	b.n	84890 <__sfvwrite_r+0xbc>
   849b0:	465a      	mov	r2, fp
   849b2:	4629      	mov	r1, r5
   849b4:	f000 fc9c 	bl	852f0 <memmove>
   849b8:	68a2      	ldr	r2, [r4, #8]
   849ba:	6823      	ldr	r3, [r4, #0]
   849bc:	eba2 020b 	sub.w	r2, r2, fp
   849c0:	445b      	add	r3, fp
   849c2:	60a2      	str	r2, [r4, #8]
   849c4:	6023      	str	r3, [r4, #0]
   849c6:	e7ad      	b.n	84924 <__sfvwrite_r+0x150>
   849c8:	46b8      	mov	r8, r7
   849ca:	46ba      	mov	sl, r7
   849cc:	46bb      	mov	fp, r7
   849ce:	6820      	ldr	r0, [r4, #0]
   849d0:	e753      	b.n	8487a <__sfvwrite_r+0xa6>
   849d2:	6962      	ldr	r2, [r4, #20]
   849d4:	6820      	ldr	r0, [r4, #0]
   849d6:	6921      	ldr	r1, [r4, #16]
   849d8:	eb02 0842 	add.w	r8, r2, r2, lsl #1
   849dc:	eba0 0a01 	sub.w	sl, r0, r1
   849e0:	eb08 78d8 	add.w	r8, r8, r8, lsr #31
   849e4:	f10a 0001 	add.w	r0, sl, #1
   849e8:	ea4f 0868 	mov.w	r8, r8, asr #1
   849ec:	4438      	add	r0, r7
   849ee:	4540      	cmp	r0, r8
   849f0:	4642      	mov	r2, r8
   849f2:	bf84      	itt	hi
   849f4:	4680      	movhi	r8, r0
   849f6:	4642      	movhi	r2, r8
   849f8:	055b      	lsls	r3, r3, #21
   849fa:	d544      	bpl.n	84a86 <__sfvwrite_r+0x2b2>
   849fc:	4611      	mov	r1, r2
   849fe:	9800      	ldr	r0, [sp, #0]
   84a00:	f000 f918 	bl	84c34 <_malloc_r>
   84a04:	4683      	mov	fp, r0
   84a06:	2800      	cmp	r0, #0
   84a08:	d055      	beq.n	84ab6 <__sfvwrite_r+0x2e2>
   84a0a:	4652      	mov	r2, sl
   84a0c:	6921      	ldr	r1, [r4, #16]
   84a0e:	f000 fbf9 	bl	85204 <memcpy>
   84a12:	89a3      	ldrh	r3, [r4, #12]
   84a14:	f423 6390 	bic.w	r3, r3, #1152	; 0x480
   84a18:	f043 0380 	orr.w	r3, r3, #128	; 0x80
   84a1c:	81a3      	strh	r3, [r4, #12]
   84a1e:	eb0b 000a 	add.w	r0, fp, sl
   84a22:	eba8 030a 	sub.w	r3, r8, sl
   84a26:	f8c4 b010 	str.w	fp, [r4, #16]
   84a2a:	f8c4 8014 	str.w	r8, [r4, #20]
   84a2e:	6020      	str	r0, [r4, #0]
   84a30:	60a3      	str	r3, [r4, #8]
   84a32:	46b8      	mov	r8, r7
   84a34:	46ba      	mov	sl, r7
   84a36:	46bb      	mov	fp, r7
   84a38:	e71f      	b.n	8487a <__sfvwrite_r+0xa6>
   84a3a:	f06f 4200 	mvn.w	r2, #2147483648	; 0x80000000
   84a3e:	42ba      	cmp	r2, r7
   84a40:	bf28      	it	cs
   84a42:	463a      	movcs	r2, r7
   84a44:	fb92 f2f3 	sdiv	r2, r2, r3
   84a48:	69e1      	ldr	r1, [r4, #28]
   84a4a:	fb03 f302 	mul.w	r3, r3, r2
   84a4e:	9800      	ldr	r0, [sp, #0]
   84a50:	464a      	mov	r2, r9
   84a52:	6a66      	ldr	r6, [r4, #36]	; 0x24
   84a54:	47b0      	blx	r6
   84a56:	f1b0 0a00 	subs.w	sl, r0, #0
   84a5a:	f73f af19 	bgt.w	84890 <__sfvwrite_r+0xbc>
   84a5e:	e735      	b.n	848cc <__sfvwrite_r+0xf8>
   84a60:	461a      	mov	r2, r3
   84a62:	4629      	mov	r1, r5
   84a64:	9301      	str	r3, [sp, #4]
   84a66:	f000 fc43 	bl	852f0 <memmove>
   84a6a:	6822      	ldr	r2, [r4, #0]
   84a6c:	9b01      	ldr	r3, [sp, #4]
   84a6e:	4621      	mov	r1, r4
   84a70:	441a      	add	r2, r3
   84a72:	6022      	str	r2, [r4, #0]
   84a74:	9800      	ldr	r0, [sp, #0]
   84a76:	f7ff fcc9 	bl	8440c <_fflush_r>
   84a7a:	9b01      	ldr	r3, [sp, #4]
   84a7c:	2800      	cmp	r0, #0
   84a7e:	f47f af25 	bne.w	848cc <__sfvwrite_r+0xf8>
   84a82:	461f      	mov	r7, r3
   84a84:	e74e      	b.n	84924 <__sfvwrite_r+0x150>
   84a86:	9800      	ldr	r0, [sp, #0]
   84a88:	f000 ff9e 	bl	859c8 <_realloc_r>
   84a8c:	4683      	mov	fp, r0
   84a8e:	2800      	cmp	r0, #0
   84a90:	d1c5      	bne.n	84a1e <__sfvwrite_r+0x24a>
   84a92:	9d00      	ldr	r5, [sp, #0]
   84a94:	6921      	ldr	r1, [r4, #16]
   84a96:	4628      	mov	r0, r5
   84a98:	f7ff fdb6 	bl	84608 <_free_r>
   84a9c:	220c      	movs	r2, #12
   84a9e:	f9b4 300c 	ldrsh.w	r3, [r4, #12]
   84aa2:	602a      	str	r2, [r5, #0]
   84aa4:	f023 0380 	bic.w	r3, r3, #128	; 0x80
   84aa8:	e712      	b.n	848d0 <__sfvwrite_r+0xfc>
   84aaa:	f106 0901 	add.w	r9, r6, #1
   84aae:	e720      	b.n	848f2 <__sfvwrite_r+0x11e>
   84ab0:	f04f 30ff 	mov.w	r0, #4294967295
   84ab4:	e6bd      	b.n	84832 <__sfvwrite_r+0x5e>
   84ab6:	220c      	movs	r2, #12
   84ab8:	9900      	ldr	r1, [sp, #0]
   84aba:	f9b4 300c 	ldrsh.w	r3, [r4, #12]
   84abe:	600a      	str	r2, [r1, #0]
   84ac0:	e706      	b.n	848d0 <__sfvwrite_r+0xfc>
   84ac2:	bf00      	nop
   84ac4:	7ffffc00 	.word	0x7ffffc00

00084ac8 <_fwalk_reent>:
   84ac8:	e92d 43f8 	stmdb	sp!, {r3, r4, r5, r6, r7, r8, r9, lr}
   84acc:	f510 7638 	adds.w	r6, r0, #736	; 0x2e0
   84ad0:	d01e      	beq.n	84b10 <_fwalk_reent+0x48>
   84ad2:	4688      	mov	r8, r1
   84ad4:	4607      	mov	r7, r0
   84ad6:	f04f 0900 	mov.w	r9, #0
   84ada:	6875      	ldr	r5, [r6, #4]
   84adc:	68b4      	ldr	r4, [r6, #8]
   84ade:	3d01      	subs	r5, #1
   84ae0:	d410      	bmi.n	84b04 <_fwalk_reent+0x3c>
   84ae2:	89a3      	ldrh	r3, [r4, #12]
   84ae4:	3d01      	subs	r5, #1
   84ae6:	2b01      	cmp	r3, #1
   84ae8:	d908      	bls.n	84afc <_fwalk_reent+0x34>
   84aea:	f9b4 300e 	ldrsh.w	r3, [r4, #14]
   84aee:	3301      	adds	r3, #1
   84af0:	d004      	beq.n	84afc <_fwalk_reent+0x34>
   84af2:	4621      	mov	r1, r4
   84af4:	4638      	mov	r0, r7
   84af6:	47c0      	blx	r8
   84af8:	ea49 0900 	orr.w	r9, r9, r0
   84afc:	1c6b      	adds	r3, r5, #1
   84afe:	f104 0468 	add.w	r4, r4, #104	; 0x68
   84b02:	d1ee      	bne.n	84ae2 <_fwalk_reent+0x1a>
   84b04:	6836      	ldr	r6, [r6, #0]
   84b06:	2e00      	cmp	r6, #0
   84b08:	d1e7      	bne.n	84ada <_fwalk_reent+0x12>
   84b0a:	4648      	mov	r0, r9
   84b0c:	e8bd 83f8 	ldmia.w	sp!, {r3, r4, r5, r6, r7, r8, r9, pc}
   84b10:	46b1      	mov	r9, r6
   84b12:	4648      	mov	r0, r9
   84b14:	e8bd 83f8 	ldmia.w	sp!, {r3, r4, r5, r6, r7, r8, r9, pc}

00084b18 <_localeconv_r>:
   84b18:	4a04      	ldr	r2, [pc, #16]	; (84b2c <_localeconv_r+0x14>)
   84b1a:	4b05      	ldr	r3, [pc, #20]	; (84b30 <_localeconv_r+0x18>)
   84b1c:	6812      	ldr	r2, [r2, #0]
   84b1e:	6b50      	ldr	r0, [r2, #52]	; 0x34
   84b20:	2800      	cmp	r0, #0
   84b22:	bf08      	it	eq
   84b24:	4618      	moveq	r0, r3
   84b26:	30f0      	adds	r0, #240	; 0xf0
   84b28:	4770      	bx	lr
   84b2a:	bf00      	nop
   84b2c:	2000000c 	.word	0x2000000c
   84b30:	2000084c 	.word	0x2000084c

00084b34 <__retarget_lock_init_recursive>:
   84b34:	4770      	bx	lr
   84b36:	bf00      	nop

00084b38 <__retarget_lock_close_recursive>:
   84b38:	4770      	bx	lr
   84b3a:	bf00      	nop

00084b3c <__retarget_lock_acquire_recursive>:
   84b3c:	4770      	bx	lr
   84b3e:	bf00      	nop

00084b40 <__retarget_lock_release_recursive>:
   84b40:	4770      	bx	lr
   84b42:	bf00      	nop

00084b44 <__swhatbuf_r>:
   84b44:	b570      	push	{r4, r5, r6, lr}
   84b46:	460c      	mov	r4, r1
   84b48:	f9b1 100e 	ldrsh.w	r1, [r1, #14]
   84b4c:	b090      	sub	sp, #64	; 0x40
   84b4e:	2900      	cmp	r1, #0
   84b50:	4615      	mov	r5, r2
   84b52:	461e      	mov	r6, r3
   84b54:	db14      	blt.n	84b80 <__swhatbuf_r+0x3c>
   84b56:	aa01      	add	r2, sp, #4
   84b58:	f001 fb28 	bl	861ac <_fstat_r>
   84b5c:	2800      	cmp	r0, #0
   84b5e:	db0f      	blt.n	84b80 <__swhatbuf_r+0x3c>
   84b60:	9a02      	ldr	r2, [sp, #8]
   84b62:	f44f 6380 	mov.w	r3, #1024	; 0x400
   84b66:	f402 4270 	and.w	r2, r2, #61440	; 0xf000
   84b6a:	f5a2 5200 	sub.w	r2, r2, #8192	; 0x2000
   84b6e:	fab2 f282 	clz	r2, r2
   84b72:	f44f 6000 	mov.w	r0, #2048	; 0x800
   84b76:	0952      	lsrs	r2, r2, #5
   84b78:	6032      	str	r2, [r6, #0]
   84b7a:	602b      	str	r3, [r5, #0]
   84b7c:	b010      	add	sp, #64	; 0x40
   84b7e:	bd70      	pop	{r4, r5, r6, pc}
   84b80:	2300      	movs	r3, #0
   84b82:	89a2      	ldrh	r2, [r4, #12]
   84b84:	6033      	str	r3, [r6, #0]
   84b86:	f012 0080 	ands.w	r0, r2, #128	; 0x80
   84b8a:	d004      	beq.n	84b96 <__swhatbuf_r+0x52>
   84b8c:	2240      	movs	r2, #64	; 0x40
   84b8e:	4618      	mov	r0, r3
   84b90:	602a      	str	r2, [r5, #0]
   84b92:	b010      	add	sp, #64	; 0x40
   84b94:	bd70      	pop	{r4, r5, r6, pc}
   84b96:	f44f 6380 	mov.w	r3, #1024	; 0x400
   84b9a:	602b      	str	r3, [r5, #0]
   84b9c:	b010      	add	sp, #64	; 0x40
   84b9e:	bd70      	pop	{r4, r5, r6, pc}

00084ba0 <__smakebuf_r>:
   84ba0:	898a      	ldrh	r2, [r1, #12]
   84ba2:	460b      	mov	r3, r1
   84ba4:	0792      	lsls	r2, r2, #30
   84ba6:	d506      	bpl.n	84bb6 <__smakebuf_r+0x16>
   84ba8:	2101      	movs	r1, #1
   84baa:	f103 0243 	add.w	r2, r3, #67	; 0x43
   84bae:	6159      	str	r1, [r3, #20]
   84bb0:	601a      	str	r2, [r3, #0]
   84bb2:	611a      	str	r2, [r3, #16]
   84bb4:	4770      	bx	lr
   84bb6:	b5f0      	push	{r4, r5, r6, r7, lr}
   84bb8:	b083      	sub	sp, #12
   84bba:	ab01      	add	r3, sp, #4
   84bbc:	466a      	mov	r2, sp
   84bbe:	460c      	mov	r4, r1
   84bc0:	4606      	mov	r6, r0
   84bc2:	f7ff ffbf 	bl	84b44 <__swhatbuf_r>
   84bc6:	9900      	ldr	r1, [sp, #0]
   84bc8:	4605      	mov	r5, r0
   84bca:	4630      	mov	r0, r6
   84bcc:	f000 f832 	bl	84c34 <_malloc_r>
   84bd0:	f9b4 300c 	ldrsh.w	r3, [r4, #12]
   84bd4:	b1d8      	cbz	r0, 84c0e <__smakebuf_r+0x6e>
   84bd6:	e89d 0006 	ldmia.w	sp, {r1, r2}
   84bda:	4f15      	ldr	r7, [pc, #84]	; (84c30 <__smakebuf_r+0x90>)
   84bdc:	f043 0380 	orr.w	r3, r3, #128	; 0x80
   84be0:	63f7      	str	r7, [r6, #60]	; 0x3c
   84be2:	81a3      	strh	r3, [r4, #12]
   84be4:	6020      	str	r0, [r4, #0]
   84be6:	6120      	str	r0, [r4, #16]
   84be8:	6161      	str	r1, [r4, #20]
   84bea:	b91a      	cbnz	r2, 84bf4 <__smakebuf_r+0x54>
   84bec:	432b      	orrs	r3, r5
   84bee:	81a3      	strh	r3, [r4, #12]
   84bf0:	b003      	add	sp, #12
   84bf2:	bdf0      	pop	{r4, r5, r6, r7, pc}
   84bf4:	4630      	mov	r0, r6
   84bf6:	f9b4 100e 	ldrsh.w	r1, [r4, #14]
   84bfa:	f001 faeb 	bl	861d4 <_isatty_r>
   84bfe:	b1a0      	cbz	r0, 84c2a <__smakebuf_r+0x8a>
   84c00:	89a3      	ldrh	r3, [r4, #12]
   84c02:	f023 0303 	bic.w	r3, r3, #3
   84c06:	f043 0301 	orr.w	r3, r3, #1
   84c0a:	b21b      	sxth	r3, r3
   84c0c:	e7ee      	b.n	84bec <__smakebuf_r+0x4c>
   84c0e:	059a      	lsls	r2, r3, #22
   84c10:	d4ee      	bmi.n	84bf0 <__smakebuf_r+0x50>
   84c12:	2101      	movs	r1, #1
   84c14:	f023 0303 	bic.w	r3, r3, #3
   84c18:	f104 0243 	add.w	r2, r4, #67	; 0x43
   84c1c:	f043 0302 	orr.w	r3, r3, #2
   84c20:	81a3      	strh	r3, [r4, #12]
   84c22:	6161      	str	r1, [r4, #20]
   84c24:	6022      	str	r2, [r4, #0]
   84c26:	6122      	str	r2, [r4, #16]
   84c28:	e7e2      	b.n	84bf0 <__smakebuf_r+0x50>
   84c2a:	f9b4 300c 	ldrsh.w	r3, [r4, #12]
   84c2e:	e7dd      	b.n	84bec <__smakebuf_r+0x4c>
   84c30:	00084461 	.word	0x00084461

00084c34 <_malloc_r>:
   84c34:	e92d 4ff0 	stmdb	sp!, {r4, r5, r6, r7, r8, r9, sl, fp, lr}
   84c38:	f101 060b 	add.w	r6, r1, #11
   84c3c:	2e16      	cmp	r6, #22
   84c3e:	b083      	sub	sp, #12
   84c40:	4605      	mov	r5, r0
   84c42:	f240 809e 	bls.w	84d82 <_malloc_r+0x14e>
   84c46:	f036 0607 	bics.w	r6, r6, #7
   84c4a:	f100 80bd 	bmi.w	84dc8 <_malloc_r+0x194>
   84c4e:	42b1      	cmp	r1, r6
   84c50:	f200 80ba 	bhi.w	84dc8 <_malloc_r+0x194>
   84c54:	f000 fbb0 	bl	853b8 <__malloc_lock>
   84c58:	f5b6 7ffc 	cmp.w	r6, #504	; 0x1f8
   84c5c:	f0c0 8285 	bcc.w	8516a <_malloc_r+0x536>
   84c60:	0a73      	lsrs	r3, r6, #9
   84c62:	f000 80b8 	beq.w	84dd6 <_malloc_r+0x1a2>
   84c66:	2b04      	cmp	r3, #4
   84c68:	f200 816c 	bhi.w	84f44 <_malloc_r+0x310>
   84c6c:	09b3      	lsrs	r3, r6, #6
   84c6e:	f103 0039 	add.w	r0, r3, #57	; 0x39
   84c72:	f103 0e38 	add.w	lr, r3, #56	; 0x38
   84c76:	00c1      	lsls	r1, r0, #3
   84c78:	4fb8      	ldr	r7, [pc, #736]	; (84f5c <_malloc_r+0x328>)
   84c7a:	4439      	add	r1, r7
   84c7c:	684c      	ldr	r4, [r1, #4]
   84c7e:	3908      	subs	r1, #8
   84c80:	42a1      	cmp	r1, r4
   84c82:	d106      	bne.n	84c92 <_malloc_r+0x5e>
   84c84:	e00c      	b.n	84ca0 <_malloc_r+0x6c>
   84c86:	2a00      	cmp	r2, #0
   84c88:	f280 80ab 	bge.w	84de2 <_malloc_r+0x1ae>
   84c8c:	68e4      	ldr	r4, [r4, #12]
   84c8e:	42a1      	cmp	r1, r4
   84c90:	d006      	beq.n	84ca0 <_malloc_r+0x6c>
   84c92:	6863      	ldr	r3, [r4, #4]
   84c94:	f023 0303 	bic.w	r3, r3, #3
   84c98:	1b9a      	subs	r2, r3, r6
   84c9a:	2a0f      	cmp	r2, #15
   84c9c:	ddf3      	ble.n	84c86 <_malloc_r+0x52>
   84c9e:	4670      	mov	r0, lr
   84ca0:	693c      	ldr	r4, [r7, #16]
   84ca2:	f8df e2cc 	ldr.w	lr, [pc, #716]	; 84f70 <_malloc_r+0x33c>
   84ca6:	4574      	cmp	r4, lr
   84ca8:	f000 819e 	beq.w	84fe8 <_malloc_r+0x3b4>
   84cac:	6863      	ldr	r3, [r4, #4]
   84cae:	f023 0303 	bic.w	r3, r3, #3
   84cb2:	1b9a      	subs	r2, r3, r6
   84cb4:	2a0f      	cmp	r2, #15
   84cb6:	f300 8183 	bgt.w	84fc0 <_malloc_r+0x38c>
   84cba:	2a00      	cmp	r2, #0
   84cbc:	f8c7 e014 	str.w	lr, [r7, #20]
   84cc0:	f8c7 e010 	str.w	lr, [r7, #16]
   84cc4:	f280 8091 	bge.w	84dea <_malloc_r+0x1b6>
   84cc8:	f5b3 7f00 	cmp.w	r3, #512	; 0x200
   84ccc:	f080 8154 	bcs.w	84f78 <_malloc_r+0x344>
   84cd0:	2201      	movs	r2, #1
   84cd2:	08db      	lsrs	r3, r3, #3
   84cd4:	6879      	ldr	r1, [r7, #4]
   84cd6:	ea4f 0ca3 	mov.w	ip, r3, asr #2
   84cda:	4413      	add	r3, r2
   84cdc:	f857 8033 	ldr.w	r8, [r7, r3, lsl #3]
   84ce0:	fa02 f20c 	lsl.w	r2, r2, ip
   84ce4:	eb07 0cc3 	add.w	ip, r7, r3, lsl #3
   84ce8:	430a      	orrs	r2, r1
   84cea:	f1ac 0108 	sub.w	r1, ip, #8
   84cee:	60e1      	str	r1, [r4, #12]
   84cf0:	f8c4 8008 	str.w	r8, [r4, #8]
   84cf4:	607a      	str	r2, [r7, #4]
   84cf6:	f847 4033 	str.w	r4, [r7, r3, lsl #3]
   84cfa:	f8c8 400c 	str.w	r4, [r8, #12]
   84cfe:	2401      	movs	r4, #1
   84d00:	1083      	asrs	r3, r0, #2
   84d02:	409c      	lsls	r4, r3
   84d04:	4294      	cmp	r4, r2
   84d06:	d87d      	bhi.n	84e04 <_malloc_r+0x1d0>
   84d08:	4214      	tst	r4, r2
   84d0a:	d106      	bne.n	84d1a <_malloc_r+0xe6>
   84d0c:	f020 0003 	bic.w	r0, r0, #3
   84d10:	0064      	lsls	r4, r4, #1
   84d12:	4214      	tst	r4, r2
   84d14:	f100 0004 	add.w	r0, r0, #4
   84d18:	d0fa      	beq.n	84d10 <_malloc_r+0xdc>
   84d1a:	eb07 09c0 	add.w	r9, r7, r0, lsl #3
   84d1e:	46cc      	mov	ip, r9
   84d20:	4680      	mov	r8, r0
   84d22:	f8dc 300c 	ldr.w	r3, [ip, #12]
   84d26:	459c      	cmp	ip, r3
   84d28:	d107      	bne.n	84d3a <_malloc_r+0x106>
   84d2a:	e15f      	b.n	84fec <_malloc_r+0x3b8>
   84d2c:	2a00      	cmp	r2, #0
   84d2e:	f280 816d 	bge.w	8500c <_malloc_r+0x3d8>
   84d32:	68db      	ldr	r3, [r3, #12]
   84d34:	459c      	cmp	ip, r3
   84d36:	f000 8159 	beq.w	84fec <_malloc_r+0x3b8>
   84d3a:	6859      	ldr	r1, [r3, #4]
   84d3c:	f021 0103 	bic.w	r1, r1, #3
   84d40:	1b8a      	subs	r2, r1, r6
   84d42:	2a0f      	cmp	r2, #15
   84d44:	ddf2      	ble.n	84d2c <_malloc_r+0xf8>
   84d46:	68dc      	ldr	r4, [r3, #12]
   84d48:	f8d3 c008 	ldr.w	ip, [r3, #8]
   84d4c:	f046 0801 	orr.w	r8, r6, #1
   84d50:	4628      	mov	r0, r5
   84d52:	441e      	add	r6, r3
   84d54:	f042 0501 	orr.w	r5, r2, #1
   84d58:	f8c3 8004 	str.w	r8, [r3, #4]
   84d5c:	f8cc 400c 	str.w	r4, [ip, #12]
   84d60:	f8c4 c008 	str.w	ip, [r4, #8]
   84d64:	617e      	str	r6, [r7, #20]
   84d66:	613e      	str	r6, [r7, #16]
   84d68:	f8c6 e00c 	str.w	lr, [r6, #12]
   84d6c:	f8c6 e008 	str.w	lr, [r6, #8]
   84d70:	6075      	str	r5, [r6, #4]
   84d72:	505a      	str	r2, [r3, r1]
   84d74:	9300      	str	r3, [sp, #0]
   84d76:	f000 fb25 	bl	853c4 <__malloc_unlock>
   84d7a:	9b00      	ldr	r3, [sp, #0]
   84d7c:	f103 0408 	add.w	r4, r3, #8
   84d80:	e01e      	b.n	84dc0 <_malloc_r+0x18c>
   84d82:	2910      	cmp	r1, #16
   84d84:	d820      	bhi.n	84dc8 <_malloc_r+0x194>
   84d86:	f000 fb17 	bl	853b8 <__malloc_lock>
   84d8a:	2610      	movs	r6, #16
   84d8c:	2318      	movs	r3, #24
   84d8e:	2002      	movs	r0, #2
   84d90:	4f72      	ldr	r7, [pc, #456]	; (84f5c <_malloc_r+0x328>)
   84d92:	443b      	add	r3, r7
   84d94:	685c      	ldr	r4, [r3, #4]
   84d96:	f1a3 0208 	sub.w	r2, r3, #8
   84d9a:	4294      	cmp	r4, r2
   84d9c:	f000 812f 	beq.w	84ffe <_malloc_r+0x3ca>
   84da0:	6863      	ldr	r3, [r4, #4]
   84da2:	68e1      	ldr	r1, [r4, #12]
   84da4:	f023 0303 	bic.w	r3, r3, #3
   84da8:	4423      	add	r3, r4
   84daa:	685a      	ldr	r2, [r3, #4]
   84dac:	68a6      	ldr	r6, [r4, #8]
   84dae:	f042 0201 	orr.w	r2, r2, #1
   84db2:	60f1      	str	r1, [r6, #12]
   84db4:	4628      	mov	r0, r5
   84db6:	608e      	str	r6, [r1, #8]
   84db8:	605a      	str	r2, [r3, #4]
   84dba:	f000 fb03 	bl	853c4 <__malloc_unlock>
   84dbe:	3408      	adds	r4, #8
   84dc0:	4620      	mov	r0, r4
   84dc2:	b003      	add	sp, #12
   84dc4:	e8bd 8ff0 	ldmia.w	sp!, {r4, r5, r6, r7, r8, r9, sl, fp, pc}
   84dc8:	2400      	movs	r4, #0
   84dca:	230c      	movs	r3, #12
   84dcc:	4620      	mov	r0, r4
   84dce:	602b      	str	r3, [r5, #0]
   84dd0:	b003      	add	sp, #12
   84dd2:	e8bd 8ff0 	ldmia.w	sp!, {r4, r5, r6, r7, r8, r9, sl, fp, pc}
   84dd6:	2040      	movs	r0, #64	; 0x40
   84dd8:	f44f 7100 	mov.w	r1, #512	; 0x200
   84ddc:	f04f 0e3f 	mov.w	lr, #63	; 0x3f
   84de0:	e74a      	b.n	84c78 <_malloc_r+0x44>
   84de2:	4423      	add	r3, r4
   84de4:	685a      	ldr	r2, [r3, #4]
   84de6:	68e1      	ldr	r1, [r4, #12]
   84de8:	e7e0      	b.n	84dac <_malloc_r+0x178>
   84dea:	4423      	add	r3, r4
   84dec:	685a      	ldr	r2, [r3, #4]
   84dee:	4628      	mov	r0, r5
   84df0:	f042 0201 	orr.w	r2, r2, #1
   84df4:	605a      	str	r2, [r3, #4]
   84df6:	3408      	adds	r4, #8
   84df8:	f000 fae4 	bl	853c4 <__malloc_unlock>
   84dfc:	4620      	mov	r0, r4
   84dfe:	b003      	add	sp, #12
   84e00:	e8bd 8ff0 	ldmia.w	sp!, {r4, r5, r6, r7, r8, r9, sl, fp, pc}
   84e04:	68bc      	ldr	r4, [r7, #8]
   84e06:	6863      	ldr	r3, [r4, #4]
   84e08:	f023 0803 	bic.w	r8, r3, #3
   84e0c:	45b0      	cmp	r8, r6
   84e0e:	d304      	bcc.n	84e1a <_malloc_r+0x1e6>
   84e10:	eba8 0306 	sub.w	r3, r8, r6
   84e14:	2b0f      	cmp	r3, #15
   84e16:	f300 8085 	bgt.w	84f24 <_malloc_r+0x2f0>
   84e1a:	f8df 9158 	ldr.w	r9, [pc, #344]	; 84f74 <_malloc_r+0x340>
   84e1e:	4b50      	ldr	r3, [pc, #320]	; (84f60 <_malloc_r+0x32c>)
   84e20:	f8d9 2000 	ldr.w	r2, [r9]
   84e24:	681b      	ldr	r3, [r3, #0]
   84e26:	3201      	adds	r2, #1
   84e28:	4433      	add	r3, r6
   84e2a:	eb04 0a08 	add.w	sl, r4, r8
   84e2e:	f000 8154 	beq.w	850da <_malloc_r+0x4a6>
   84e32:	f503 5380 	add.w	r3, r3, #4096	; 0x1000
   84e36:	330f      	adds	r3, #15
   84e38:	f423 6b7f 	bic.w	fp, r3, #4080	; 0xff0
   84e3c:	f02b 0b0f 	bic.w	fp, fp, #15
   84e40:	4659      	mov	r1, fp
   84e42:	4628      	mov	r0, r5
   84e44:	f000 ff76 	bl	85d34 <_sbrk_r>
   84e48:	1c41      	adds	r1, r0, #1
   84e4a:	4602      	mov	r2, r0
   84e4c:	f000 80fb 	beq.w	85046 <_malloc_r+0x412>
   84e50:	4582      	cmp	sl, r0
   84e52:	f200 80f6 	bhi.w	85042 <_malloc_r+0x40e>
   84e56:	4b43      	ldr	r3, [pc, #268]	; (84f64 <_malloc_r+0x330>)
   84e58:	6819      	ldr	r1, [r3, #0]
   84e5a:	4459      	add	r1, fp
   84e5c:	6019      	str	r1, [r3, #0]
   84e5e:	f000 814c 	beq.w	850fa <_malloc_r+0x4c6>
   84e62:	f8d9 0000 	ldr.w	r0, [r9]
   84e66:	3001      	adds	r0, #1
   84e68:	bf1b      	ittet	ne
   84e6a:	eba2 0a0a 	subne.w	sl, r2, sl
   84e6e:	4451      	addne	r1, sl
   84e70:	f8c9 2000 	streq.w	r2, [r9]
   84e74:	6019      	strne	r1, [r3, #0]
   84e76:	f012 0107 	ands.w	r1, r2, #7
   84e7a:	f000 8114 	beq.w	850a6 <_malloc_r+0x472>
   84e7e:	f1c1 0008 	rsb	r0, r1, #8
   84e82:	f5c1 5180 	rsb	r1, r1, #4096	; 0x1000
   84e86:	4402      	add	r2, r0
   84e88:	3108      	adds	r1, #8
   84e8a:	eb02 090b 	add.w	r9, r2, fp
   84e8e:	f3c9 090b 	ubfx	r9, r9, #0, #12
   84e92:	eba1 0909 	sub.w	r9, r1, r9
   84e96:	4649      	mov	r1, r9
   84e98:	4628      	mov	r0, r5
   84e9a:	9301      	str	r3, [sp, #4]
   84e9c:	9200      	str	r2, [sp, #0]
   84e9e:	f000 ff49 	bl	85d34 <_sbrk_r>
   84ea2:	1c43      	adds	r3, r0, #1
   84ea4:	e89d 000c 	ldmia.w	sp, {r2, r3}
   84ea8:	f000 8142 	beq.w	85130 <_malloc_r+0x4fc>
   84eac:	1a80      	subs	r0, r0, r2
   84eae:	4448      	add	r0, r9
   84eb0:	f040 0001 	orr.w	r0, r0, #1
   84eb4:	6819      	ldr	r1, [r3, #0]
   84eb6:	42bc      	cmp	r4, r7
   84eb8:	4449      	add	r1, r9
   84eba:	60ba      	str	r2, [r7, #8]
   84ebc:	6019      	str	r1, [r3, #0]
   84ebe:	6050      	str	r0, [r2, #4]
   84ec0:	d017      	beq.n	84ef2 <_malloc_r+0x2be>
   84ec2:	f1b8 0f0f 	cmp.w	r8, #15
   84ec6:	f240 80fa 	bls.w	850be <_malloc_r+0x48a>
   84eca:	f04f 0c05 	mov.w	ip, #5
   84ece:	6862      	ldr	r2, [r4, #4]
   84ed0:	f1a8 000c 	sub.w	r0, r8, #12
   84ed4:	f020 0007 	bic.w	r0, r0, #7
   84ed8:	f002 0201 	and.w	r2, r2, #1
   84edc:	eb04 0e00 	add.w	lr, r4, r0
   84ee0:	4302      	orrs	r2, r0
   84ee2:	280f      	cmp	r0, #15
   84ee4:	6062      	str	r2, [r4, #4]
   84ee6:	f8ce c004 	str.w	ip, [lr, #4]
   84eea:	f8ce c008 	str.w	ip, [lr, #8]
   84eee:	f200 8116 	bhi.w	8511e <_malloc_r+0x4ea>
   84ef2:	4b1d      	ldr	r3, [pc, #116]	; (84f68 <_malloc_r+0x334>)
   84ef4:	68bc      	ldr	r4, [r7, #8]
   84ef6:	681a      	ldr	r2, [r3, #0]
   84ef8:	4291      	cmp	r1, r2
   84efa:	bf88      	it	hi
   84efc:	6019      	strhi	r1, [r3, #0]
   84efe:	4b1b      	ldr	r3, [pc, #108]	; (84f6c <_malloc_r+0x338>)
   84f00:	681a      	ldr	r2, [r3, #0]
   84f02:	4291      	cmp	r1, r2
   84f04:	6862      	ldr	r2, [r4, #4]
   84f06:	bf88      	it	hi
   84f08:	6019      	strhi	r1, [r3, #0]
   84f0a:	f022 0203 	bic.w	r2, r2, #3
   84f0e:	4296      	cmp	r6, r2
   84f10:	eba2 0306 	sub.w	r3, r2, r6
   84f14:	d801      	bhi.n	84f1a <_malloc_r+0x2e6>
   84f16:	2b0f      	cmp	r3, #15
   84f18:	dc04      	bgt.n	84f24 <_malloc_r+0x2f0>
   84f1a:	4628      	mov	r0, r5
   84f1c:	f000 fa52 	bl	853c4 <__malloc_unlock>
   84f20:	2400      	movs	r4, #0
   84f22:	e74d      	b.n	84dc0 <_malloc_r+0x18c>
   84f24:	f046 0201 	orr.w	r2, r6, #1
   84f28:	f043 0301 	orr.w	r3, r3, #1
   84f2c:	4426      	add	r6, r4
   84f2e:	6062      	str	r2, [r4, #4]
   84f30:	4628      	mov	r0, r5
   84f32:	60be      	str	r6, [r7, #8]
   84f34:	3408      	adds	r4, #8
   84f36:	6073      	str	r3, [r6, #4]
   84f38:	f000 fa44 	bl	853c4 <__malloc_unlock>
   84f3c:	4620      	mov	r0, r4
   84f3e:	b003      	add	sp, #12
   84f40:	e8bd 8ff0 	ldmia.w	sp!, {r4, r5, r6, r7, r8, r9, sl, fp, pc}
   84f44:	2b14      	cmp	r3, #20
   84f46:	d970      	bls.n	8502a <_malloc_r+0x3f6>
   84f48:	2b54      	cmp	r3, #84	; 0x54
   84f4a:	f200 80a2 	bhi.w	85092 <_malloc_r+0x45e>
   84f4e:	0b33      	lsrs	r3, r6, #12
   84f50:	f103 006f 	add.w	r0, r3, #111	; 0x6f
   84f54:	f103 0e6e 	add.w	lr, r3, #110	; 0x6e
   84f58:	00c1      	lsls	r1, r0, #3
   84f5a:	e68d      	b.n	84c78 <_malloc_r+0x44>
   84f5c:	2000043c 	.word	0x2000043c
   84f60:	20000e2c 	.word	0x20000e2c
   84f64:	20000dfc 	.word	0x20000dfc
   84f68:	20000e24 	.word	0x20000e24
   84f6c:	20000e28 	.word	0x20000e28
   84f70:	20000444 	.word	0x20000444
   84f74:	20000844 	.word	0x20000844
   84f78:	0a5a      	lsrs	r2, r3, #9
   84f7a:	2a04      	cmp	r2, #4
   84f7c:	d95b      	bls.n	85036 <_malloc_r+0x402>
   84f7e:	2a14      	cmp	r2, #20
   84f80:	f200 80ae 	bhi.w	850e0 <_malloc_r+0x4ac>
   84f84:	f102 015c 	add.w	r1, r2, #92	; 0x5c
   84f88:	00c9      	lsls	r1, r1, #3
   84f8a:	325b      	adds	r2, #91	; 0x5b
   84f8c:	eb07 0c01 	add.w	ip, r7, r1
   84f90:	5879      	ldr	r1, [r7, r1]
   84f92:	f1ac 0c08 	sub.w	ip, ip, #8
   84f96:	458c      	cmp	ip, r1
   84f98:	f000 8088 	beq.w	850ac <_malloc_r+0x478>
   84f9c:	684a      	ldr	r2, [r1, #4]
   84f9e:	f022 0203 	bic.w	r2, r2, #3
   84fa2:	4293      	cmp	r3, r2
   84fa4:	d273      	bcs.n	8508e <_malloc_r+0x45a>
   84fa6:	6889      	ldr	r1, [r1, #8]
   84fa8:	458c      	cmp	ip, r1
   84faa:	d1f7      	bne.n	84f9c <_malloc_r+0x368>
   84fac:	f8dc 300c 	ldr.w	r3, [ip, #12]
   84fb0:	687a      	ldr	r2, [r7, #4]
   84fb2:	60e3      	str	r3, [r4, #12]
   84fb4:	f8c4 c008 	str.w	ip, [r4, #8]
   84fb8:	609c      	str	r4, [r3, #8]
   84fba:	f8cc 400c 	str.w	r4, [ip, #12]
   84fbe:	e69e      	b.n	84cfe <_malloc_r+0xca>
   84fc0:	f046 0c01 	orr.w	ip, r6, #1
   84fc4:	f042 0101 	orr.w	r1, r2, #1
   84fc8:	4426      	add	r6, r4
   84fca:	f8c4 c004 	str.w	ip, [r4, #4]
   84fce:	4628      	mov	r0, r5
   84fd0:	617e      	str	r6, [r7, #20]
   84fd2:	613e      	str	r6, [r7, #16]
   84fd4:	f8c6 e00c 	str.w	lr, [r6, #12]
   84fd8:	f8c6 e008 	str.w	lr, [r6, #8]
   84fdc:	6071      	str	r1, [r6, #4]
   84fde:	50e2      	str	r2, [r4, r3]
   84fe0:	f000 f9f0 	bl	853c4 <__malloc_unlock>
   84fe4:	3408      	adds	r4, #8
   84fe6:	e6eb      	b.n	84dc0 <_malloc_r+0x18c>
   84fe8:	687a      	ldr	r2, [r7, #4]
   84fea:	e688      	b.n	84cfe <_malloc_r+0xca>
   84fec:	f108 0801 	add.w	r8, r8, #1
   84ff0:	f018 0f03 	tst.w	r8, #3
   84ff4:	f10c 0c08 	add.w	ip, ip, #8
   84ff8:	f47f ae93 	bne.w	84d22 <_malloc_r+0xee>
   84ffc:	e02d      	b.n	8505a <_malloc_r+0x426>
   84ffe:	68dc      	ldr	r4, [r3, #12]
   85000:	42a3      	cmp	r3, r4
   85002:	bf08      	it	eq
   85004:	3002      	addeq	r0, #2
   85006:	f43f ae4b 	beq.w	84ca0 <_malloc_r+0x6c>
   8500a:	e6c9      	b.n	84da0 <_malloc_r+0x16c>
   8500c:	461c      	mov	r4, r3
   8500e:	4419      	add	r1, r3
   85010:	684a      	ldr	r2, [r1, #4]
   85012:	68db      	ldr	r3, [r3, #12]
   85014:	f854 6f08 	ldr.w	r6, [r4, #8]!
   85018:	f042 0201 	orr.w	r2, r2, #1
   8501c:	604a      	str	r2, [r1, #4]
   8501e:	4628      	mov	r0, r5
   85020:	60f3      	str	r3, [r6, #12]
   85022:	609e      	str	r6, [r3, #8]
   85024:	f000 f9ce 	bl	853c4 <__malloc_unlock>
   85028:	e6ca      	b.n	84dc0 <_malloc_r+0x18c>
   8502a:	f103 005c 	add.w	r0, r3, #92	; 0x5c
   8502e:	f103 0e5b 	add.w	lr, r3, #91	; 0x5b
   85032:	00c1      	lsls	r1, r0, #3
   85034:	e620      	b.n	84c78 <_malloc_r+0x44>
   85036:	099a      	lsrs	r2, r3, #6
   85038:	f102 0139 	add.w	r1, r2, #57	; 0x39
   8503c:	00c9      	lsls	r1, r1, #3
   8503e:	3238      	adds	r2, #56	; 0x38
   85040:	e7a4      	b.n	84f8c <_malloc_r+0x358>
   85042:	42bc      	cmp	r4, r7
   85044:	d054      	beq.n	850f0 <_malloc_r+0x4bc>
   85046:	68bc      	ldr	r4, [r7, #8]
   85048:	6862      	ldr	r2, [r4, #4]
   8504a:	f022 0203 	bic.w	r2, r2, #3
   8504e:	e75e      	b.n	84f0e <_malloc_r+0x2da>
   85050:	f859 3908 	ldr.w	r3, [r9], #-8
   85054:	4599      	cmp	r9, r3
   85056:	f040 8086 	bne.w	85166 <_malloc_r+0x532>
   8505a:	f010 0f03 	tst.w	r0, #3
   8505e:	f100 30ff 	add.w	r0, r0, #4294967295
   85062:	d1f5      	bne.n	85050 <_malloc_r+0x41c>
   85064:	687b      	ldr	r3, [r7, #4]
   85066:	ea23 0304 	bic.w	r3, r3, r4
   8506a:	607b      	str	r3, [r7, #4]
   8506c:	0064      	lsls	r4, r4, #1
   8506e:	429c      	cmp	r4, r3
   85070:	f63f aec8 	bhi.w	84e04 <_malloc_r+0x1d0>
   85074:	2c00      	cmp	r4, #0
   85076:	f43f aec5 	beq.w	84e04 <_malloc_r+0x1d0>
   8507a:	421c      	tst	r4, r3
   8507c:	4640      	mov	r0, r8
   8507e:	f47f ae4c 	bne.w	84d1a <_malloc_r+0xe6>
   85082:	0064      	lsls	r4, r4, #1
   85084:	421c      	tst	r4, r3
   85086:	f100 0004 	add.w	r0, r0, #4
   8508a:	d0fa      	beq.n	85082 <_malloc_r+0x44e>
   8508c:	e645      	b.n	84d1a <_malloc_r+0xe6>
   8508e:	468c      	mov	ip, r1
   85090:	e78c      	b.n	84fac <_malloc_r+0x378>
   85092:	f5b3 7faa 	cmp.w	r3, #340	; 0x154
   85096:	d815      	bhi.n	850c4 <_malloc_r+0x490>
   85098:	0bf3      	lsrs	r3, r6, #15
   8509a:	f103 0078 	add.w	r0, r3, #120	; 0x78
   8509e:	f103 0e77 	add.w	lr, r3, #119	; 0x77
   850a2:	00c1      	lsls	r1, r0, #3
   850a4:	e5e8      	b.n	84c78 <_malloc_r+0x44>
   850a6:	f44f 5180 	mov.w	r1, #4096	; 0x1000
   850aa:	e6ee      	b.n	84e8a <_malloc_r+0x256>
   850ac:	2101      	movs	r1, #1
   850ae:	687b      	ldr	r3, [r7, #4]
   850b0:	1092      	asrs	r2, r2, #2
   850b2:	fa01 f202 	lsl.w	r2, r1, r2
   850b6:	431a      	orrs	r2, r3
   850b8:	607a      	str	r2, [r7, #4]
   850ba:	4663      	mov	r3, ip
   850bc:	e779      	b.n	84fb2 <_malloc_r+0x37e>
   850be:	2301      	movs	r3, #1
   850c0:	6053      	str	r3, [r2, #4]
   850c2:	e72a      	b.n	84f1a <_malloc_r+0x2e6>
   850c4:	f240 5254 	movw	r2, #1364	; 0x554
   850c8:	4293      	cmp	r3, r2
   850ca:	d822      	bhi.n	85112 <_malloc_r+0x4de>
   850cc:	0cb3      	lsrs	r3, r6, #18
   850ce:	f103 007d 	add.w	r0, r3, #125	; 0x7d
   850d2:	f103 0e7c 	add.w	lr, r3, #124	; 0x7c
   850d6:	00c1      	lsls	r1, r0, #3
   850d8:	e5ce      	b.n	84c78 <_malloc_r+0x44>
   850da:	f103 0b10 	add.w	fp, r3, #16
   850de:	e6af      	b.n	84e40 <_malloc_r+0x20c>
   850e0:	2a54      	cmp	r2, #84	; 0x54
   850e2:	d829      	bhi.n	85138 <_malloc_r+0x504>
   850e4:	0b1a      	lsrs	r2, r3, #12
   850e6:	f102 016f 	add.w	r1, r2, #111	; 0x6f
   850ea:	00c9      	lsls	r1, r1, #3
   850ec:	326e      	adds	r2, #110	; 0x6e
   850ee:	e74d      	b.n	84f8c <_malloc_r+0x358>
   850f0:	4b20      	ldr	r3, [pc, #128]	; (85174 <_malloc_r+0x540>)
   850f2:	6819      	ldr	r1, [r3, #0]
   850f4:	4459      	add	r1, fp
   850f6:	6019      	str	r1, [r3, #0]
   850f8:	e6b3      	b.n	84e62 <_malloc_r+0x22e>
   850fa:	f3ca 000b 	ubfx	r0, sl, #0, #12
   850fe:	2800      	cmp	r0, #0
   85100:	f47f aeaf 	bne.w	84e62 <_malloc_r+0x22e>
   85104:	eb08 030b 	add.w	r3, r8, fp
   85108:	68ba      	ldr	r2, [r7, #8]
   8510a:	f043 0301 	orr.w	r3, r3, #1
   8510e:	6053      	str	r3, [r2, #4]
   85110:	e6ef      	b.n	84ef2 <_malloc_r+0x2be>
   85112:	207f      	movs	r0, #127	; 0x7f
   85114:	f44f 717e 	mov.w	r1, #1016	; 0x3f8
   85118:	f04f 0e7e 	mov.w	lr, #126	; 0x7e
   8511c:	e5ac      	b.n	84c78 <_malloc_r+0x44>
   8511e:	f104 0108 	add.w	r1, r4, #8
   85122:	4628      	mov	r0, r5
   85124:	9300      	str	r3, [sp, #0]
   85126:	f7ff fa6f 	bl	84608 <_free_r>
   8512a:	9b00      	ldr	r3, [sp, #0]
   8512c:	6819      	ldr	r1, [r3, #0]
   8512e:	e6e0      	b.n	84ef2 <_malloc_r+0x2be>
   85130:	2001      	movs	r0, #1
   85132:	f04f 0900 	mov.w	r9, #0
   85136:	e6bd      	b.n	84eb4 <_malloc_r+0x280>
   85138:	f5b2 7faa 	cmp.w	r2, #340	; 0x154
   8513c:	d805      	bhi.n	8514a <_malloc_r+0x516>
   8513e:	0bda      	lsrs	r2, r3, #15
   85140:	f102 0178 	add.w	r1, r2, #120	; 0x78
   85144:	00c9      	lsls	r1, r1, #3
   85146:	3277      	adds	r2, #119	; 0x77
   85148:	e720      	b.n	84f8c <_malloc_r+0x358>
   8514a:	f240 5154 	movw	r1, #1364	; 0x554
   8514e:	428a      	cmp	r2, r1
   85150:	d805      	bhi.n	8515e <_malloc_r+0x52a>
   85152:	0c9a      	lsrs	r2, r3, #18
   85154:	f102 017d 	add.w	r1, r2, #125	; 0x7d
   85158:	00c9      	lsls	r1, r1, #3
   8515a:	327c      	adds	r2, #124	; 0x7c
   8515c:	e716      	b.n	84f8c <_malloc_r+0x358>
   8515e:	f44f 717e 	mov.w	r1, #1016	; 0x3f8
   85162:	227e      	movs	r2, #126	; 0x7e
   85164:	e712      	b.n	84f8c <_malloc_r+0x358>
   85166:	687b      	ldr	r3, [r7, #4]
   85168:	e780      	b.n	8506c <_malloc_r+0x438>
   8516a:	08f0      	lsrs	r0, r6, #3
   8516c:	f106 0308 	add.w	r3, r6, #8
   85170:	e60e      	b.n	84d90 <_malloc_r+0x15c>
   85172:	bf00      	nop
   85174:	20000dfc 	.word	0x20000dfc

00085178 <memchr>:
   85178:	0783      	lsls	r3, r0, #30
   8517a:	b470      	push	{r4, r5, r6}
   8517c:	b2cd      	uxtb	r5, r1
   8517e:	d03d      	beq.n	851fc <memchr+0x84>
   85180:	1e54      	subs	r4, r2, #1
   85182:	b30a      	cbz	r2, 851c8 <memchr+0x50>
   85184:	7803      	ldrb	r3, [r0, #0]
   85186:	42ab      	cmp	r3, r5
   85188:	d01f      	beq.n	851ca <memchr+0x52>
   8518a:	1c43      	adds	r3, r0, #1
   8518c:	e005      	b.n	8519a <memchr+0x22>
   8518e:	f114 34ff 	adds.w	r4, r4, #4294967295
   85192:	d319      	bcc.n	851c8 <memchr+0x50>
   85194:	7802      	ldrb	r2, [r0, #0]
   85196:	42aa      	cmp	r2, r5
   85198:	d017      	beq.n	851ca <memchr+0x52>
   8519a:	f013 0f03 	tst.w	r3, #3
   8519e:	4618      	mov	r0, r3
   851a0:	f103 0301 	add.w	r3, r3, #1
   851a4:	d1f3      	bne.n	8518e <memchr+0x16>
   851a6:	2c03      	cmp	r4, #3
   851a8:	d811      	bhi.n	851ce <memchr+0x56>
   851aa:	b34c      	cbz	r4, 85200 <memchr+0x88>
   851ac:	7803      	ldrb	r3, [r0, #0]
   851ae:	42ab      	cmp	r3, r5
   851b0:	d00b      	beq.n	851ca <memchr+0x52>
   851b2:	4404      	add	r4, r0
   851b4:	1c43      	adds	r3, r0, #1
   851b6:	e002      	b.n	851be <memchr+0x46>
   851b8:	7802      	ldrb	r2, [r0, #0]
   851ba:	42aa      	cmp	r2, r5
   851bc:	d005      	beq.n	851ca <memchr+0x52>
   851be:	429c      	cmp	r4, r3
   851c0:	4618      	mov	r0, r3
   851c2:	f103 0301 	add.w	r3, r3, #1
   851c6:	d1f7      	bne.n	851b8 <memchr+0x40>
   851c8:	2000      	movs	r0, #0
   851ca:	bc70      	pop	{r4, r5, r6}
   851cc:	4770      	bx	lr
   851ce:	0209      	lsls	r1, r1, #8
   851d0:	b289      	uxth	r1, r1
   851d2:	4329      	orrs	r1, r5
   851d4:	ea41 4101 	orr.w	r1, r1, r1, lsl #16
   851d8:	6803      	ldr	r3, [r0, #0]
   851da:	4606      	mov	r6, r0
   851dc:	404b      	eors	r3, r1
   851de:	f1a3 3201 	sub.w	r2, r3, #16843009	; 0x1010101
   851e2:	ea22 0303 	bic.w	r3, r2, r3
   851e6:	f013 3f80 	tst.w	r3, #2155905152	; 0x80808080
   851ea:	f100 0004 	add.w	r0, r0, #4
   851ee:	d103      	bne.n	851f8 <memchr+0x80>
   851f0:	3c04      	subs	r4, #4
   851f2:	2c03      	cmp	r4, #3
   851f4:	d8f0      	bhi.n	851d8 <memchr+0x60>
   851f6:	e7d8      	b.n	851aa <memchr+0x32>
   851f8:	4630      	mov	r0, r6
   851fa:	e7d7      	b.n	851ac <memchr+0x34>
   851fc:	4614      	mov	r4, r2
   851fe:	e7d2      	b.n	851a6 <memchr+0x2e>
   85200:	4620      	mov	r0, r4
   85202:	e7e2      	b.n	851ca <memchr+0x52>

00085204 <memcpy>:
   85204:	4684      	mov	ip, r0
   85206:	ea41 0300 	orr.w	r3, r1, r0
   8520a:	f013 0303 	ands.w	r3, r3, #3
   8520e:	d149      	bne.n	852a4 <memcpy+0xa0>
   85210:	3a40      	subs	r2, #64	; 0x40
   85212:	d323      	bcc.n	8525c <memcpy+0x58>
   85214:	680b      	ldr	r3, [r1, #0]
   85216:	6003      	str	r3, [r0, #0]
   85218:	684b      	ldr	r3, [r1, #4]
   8521a:	6043      	str	r3, [r0, #4]
   8521c:	688b      	ldr	r3, [r1, #8]
   8521e:	6083      	str	r3, [r0, #8]
   85220:	68cb      	ldr	r3, [r1, #12]
   85222:	60c3      	str	r3, [r0, #12]
   85224:	690b      	ldr	r3, [r1, #16]
   85226:	6103      	str	r3, [r0, #16]
   85228:	694b      	ldr	r3, [r1, #20]
   8522a:	6143      	str	r3, [r0, #20]
   8522c:	698b      	ldr	r3, [r1, #24]
   8522e:	6183      	str	r3, [r0, #24]
   85230:	69cb      	ldr	r3, [r1, #28]
   85232:	61c3      	str	r3, [r0, #28]
   85234:	6a0b      	ldr	r3, [r1, #32]
   85236:	6203      	str	r3, [r0, #32]
   85238:	6a4b      	ldr	r3, [r1, #36]	; 0x24
   8523a:	6243      	str	r3, [r0, #36]	; 0x24
   8523c:	6a8b      	ldr	r3, [r1, #40]	; 0x28
   8523e:	6283      	str	r3, [r0, #40]	; 0x28
   85240:	6acb      	ldr	r3, [r1, #44]	; 0x2c
   85242:	62c3      	str	r3, [r0, #44]	; 0x2c
   85244:	6b0b      	ldr	r3, [r1, #48]	; 0x30
   85246:	6303      	str	r3, [r0, #48]	; 0x30
   85248:	6b4b      	ldr	r3, [r1, #52]	; 0x34
   8524a:	6343      	str	r3, [r0, #52]	; 0x34
   8524c:	6b8b      	ldr	r3, [r1, #56]	; 0x38
   8524e:	6383      	str	r3, [r0, #56]	; 0x38
   85250:	6bcb      	ldr	r3, [r1, #60]	; 0x3c
   85252:	63c3      	str	r3, [r0, #60]	; 0x3c
   85254:	3040      	adds	r0, #64	; 0x40
   85256:	3140      	adds	r1, #64	; 0x40
   85258:	3a40      	subs	r2, #64	; 0x40
   8525a:	d2db      	bcs.n	85214 <memcpy+0x10>
   8525c:	3230      	adds	r2, #48	; 0x30
   8525e:	d30b      	bcc.n	85278 <memcpy+0x74>
   85260:	680b      	ldr	r3, [r1, #0]
   85262:	6003      	str	r3, [r0, #0]
   85264:	684b      	ldr	r3, [r1, #4]
   85266:	6043      	str	r3, [r0, #4]
   85268:	688b      	ldr	r3, [r1, #8]
   8526a:	6083      	str	r3, [r0, #8]
   8526c:	68cb      	ldr	r3, [r1, #12]
   8526e:	60c3      	str	r3, [r0, #12]
   85270:	3010      	adds	r0, #16
   85272:	3110      	adds	r1, #16
   85274:	3a10      	subs	r2, #16
   85276:	d2f3      	bcs.n	85260 <memcpy+0x5c>
   85278:	320c      	adds	r2, #12
   8527a:	d305      	bcc.n	85288 <memcpy+0x84>
   8527c:	f851 3b04 	ldr.w	r3, [r1], #4
   85280:	f840 3b04 	str.w	r3, [r0], #4
   85284:	3a04      	subs	r2, #4
   85286:	d2f9      	bcs.n	8527c <memcpy+0x78>
   85288:	3204      	adds	r2, #4
   8528a:	d008      	beq.n	8529e <memcpy+0x9a>
   8528c:	07d2      	lsls	r2, r2, #31
   8528e:	bf1c      	itt	ne
   85290:	f811 3b01 	ldrbne.w	r3, [r1], #1
   85294:	f800 3b01 	strbne.w	r3, [r0], #1
   85298:	d301      	bcc.n	8529e <memcpy+0x9a>
   8529a:	880b      	ldrh	r3, [r1, #0]
   8529c:	8003      	strh	r3, [r0, #0]
   8529e:	4660      	mov	r0, ip
   852a0:	4770      	bx	lr
   852a2:	bf00      	nop
   852a4:	2a08      	cmp	r2, #8
   852a6:	d313      	bcc.n	852d0 <memcpy+0xcc>
   852a8:	078b      	lsls	r3, r1, #30
   852aa:	d0b1      	beq.n	85210 <memcpy+0xc>
   852ac:	f010 0303 	ands.w	r3, r0, #3
   852b0:	d0ae      	beq.n	85210 <memcpy+0xc>
   852b2:	f1c3 0304 	rsb	r3, r3, #4
   852b6:	1ad2      	subs	r2, r2, r3
   852b8:	07db      	lsls	r3, r3, #31
   852ba:	bf1c      	itt	ne
   852bc:	f811 3b01 	ldrbne.w	r3, [r1], #1
   852c0:	f800 3b01 	strbne.w	r3, [r0], #1
   852c4:	d3a4      	bcc.n	85210 <memcpy+0xc>
   852c6:	f831 3b02 	ldrh.w	r3, [r1], #2
   852ca:	f820 3b02 	strh.w	r3, [r0], #2
   852ce:	e79f      	b.n	85210 <memcpy+0xc>
   852d0:	3a04      	subs	r2, #4
   852d2:	d3d9      	bcc.n	85288 <memcpy+0x84>
   852d4:	3a01      	subs	r2, #1
   852d6:	f811 3b01 	ldrb.w	r3, [r1], #1
   852da:	f800 3b01 	strb.w	r3, [r0], #1
   852de:	d2f9      	bcs.n	852d4 <memcpy+0xd0>
   852e0:	780b      	ldrb	r3, [r1, #0]
   852e2:	7003      	strb	r3, [r0, #0]
   852e4:	784b      	ldrb	r3, [r1, #1]
   852e6:	7043      	strb	r3, [r0, #1]
   852e8:	788b      	ldrb	r3, [r1, #2]
   852ea:	7083      	strb	r3, [r0, #2]
   852ec:	4660      	mov	r0, ip
   852ee:	4770      	bx	lr

000852f0 <memmove>:
   852f0:	4288      	cmp	r0, r1
   852f2:	b5f0      	push	{r4, r5, r6, r7, lr}
   852f4:	d90d      	bls.n	85312 <memmove+0x22>
   852f6:	188b      	adds	r3, r1, r2
   852f8:	4298      	cmp	r0, r3
   852fa:	d20a      	bcs.n	85312 <memmove+0x22>
   852fc:	1884      	adds	r4, r0, r2
   852fe:	2a00      	cmp	r2, #0
   85300:	d051      	beq.n	853a6 <memmove+0xb6>
   85302:	4622      	mov	r2, r4
   85304:	f813 4d01 	ldrb.w	r4, [r3, #-1]!
   85308:	4299      	cmp	r1, r3
   8530a:	f802 4d01 	strb.w	r4, [r2, #-1]!
   8530e:	d1f9      	bne.n	85304 <memmove+0x14>
   85310:	bdf0      	pop	{r4, r5, r6, r7, pc}
   85312:	2a0f      	cmp	r2, #15
   85314:	d948      	bls.n	853a8 <memmove+0xb8>
   85316:	ea41 0300 	orr.w	r3, r1, r0
   8531a:	079b      	lsls	r3, r3, #30
   8531c:	d146      	bne.n	853ac <memmove+0xbc>
   8531e:	4615      	mov	r5, r2
   85320:	f100 0410 	add.w	r4, r0, #16
   85324:	f101 0310 	add.w	r3, r1, #16
   85328:	f853 6c10 	ldr.w	r6, [r3, #-16]
   8532c:	3d10      	subs	r5, #16
   8532e:	f844 6c10 	str.w	r6, [r4, #-16]
   85332:	f853 6c0c 	ldr.w	r6, [r3, #-12]
   85336:	2d0f      	cmp	r5, #15
   85338:	f844 6c0c 	str.w	r6, [r4, #-12]
   8533c:	f853 6c08 	ldr.w	r6, [r3, #-8]
   85340:	f104 0410 	add.w	r4, r4, #16
   85344:	f844 6c18 	str.w	r6, [r4, #-24]
   85348:	f853 6c04 	ldr.w	r6, [r3, #-4]
   8534c:	f103 0310 	add.w	r3, r3, #16
   85350:	f844 6c14 	str.w	r6, [r4, #-20]
   85354:	d8e8      	bhi.n	85328 <memmove+0x38>
   85356:	f1a2 0310 	sub.w	r3, r2, #16
   8535a:	f023 030f 	bic.w	r3, r3, #15
   8535e:	f002 0e0f 	and.w	lr, r2, #15
   85362:	3310      	adds	r3, #16
   85364:	f1be 0f03 	cmp.w	lr, #3
   85368:	4419      	add	r1, r3
   8536a:	4403      	add	r3, r0
   8536c:	d921      	bls.n	853b2 <memmove+0xc2>
   8536e:	460e      	mov	r6, r1
   85370:	4674      	mov	r4, lr
   85372:	1f1d      	subs	r5, r3, #4
   85374:	f856 7b04 	ldr.w	r7, [r6], #4
   85378:	3c04      	subs	r4, #4
   8537a:	2c03      	cmp	r4, #3
   8537c:	f845 7f04 	str.w	r7, [r5, #4]!
   85380:	d8f8      	bhi.n	85374 <memmove+0x84>
   85382:	f1ae 0404 	sub.w	r4, lr, #4
   85386:	f024 0403 	bic.w	r4, r4, #3
   8538a:	3404      	adds	r4, #4
   8538c:	4421      	add	r1, r4
   8538e:	4423      	add	r3, r4
   85390:	f002 0203 	and.w	r2, r2, #3
   85394:	b162      	cbz	r2, 853b0 <memmove+0xc0>
   85396:	3b01      	subs	r3, #1
   85398:	440a      	add	r2, r1
   8539a:	f811 4b01 	ldrb.w	r4, [r1], #1
   8539e:	428a      	cmp	r2, r1
   853a0:	f803 4f01 	strb.w	r4, [r3, #1]!
   853a4:	d1f9      	bne.n	8539a <memmove+0xaa>
   853a6:	bdf0      	pop	{r4, r5, r6, r7, pc}
   853a8:	4603      	mov	r3, r0
   853aa:	e7f3      	b.n	85394 <memmove+0xa4>
   853ac:	4603      	mov	r3, r0
   853ae:	e7f2      	b.n	85396 <memmove+0xa6>
   853b0:	bdf0      	pop	{r4, r5, r6, r7, pc}
   853b2:	4672      	mov	r2, lr
   853b4:	e7ee      	b.n	85394 <memmove+0xa4>
   853b6:	bf00      	nop

000853b8 <__malloc_lock>:
   853b8:	4801      	ldr	r0, [pc, #4]	; (853c0 <__malloc_lock+0x8>)
   853ba:	f7ff bbbf 	b.w	84b3c <__retarget_lock_acquire_recursive>
   853be:	bf00      	nop
   853c0:	20000e58 	.word	0x20000e58

000853c4 <__malloc_unlock>:
   853c4:	4801      	ldr	r0, [pc, #4]	; (853cc <__malloc_unlock+0x8>)
   853c6:	f7ff bbbb 	b.w	84b40 <__retarget_lock_release_recursive>
   853ca:	bf00      	nop
   853cc:	20000e58 	.word	0x20000e58

000853d0 <_Balloc>:
   853d0:	6cc3      	ldr	r3, [r0, #76]	; 0x4c
   853d2:	b570      	push	{r4, r5, r6, lr}
   853d4:	4605      	mov	r5, r0
   853d6:	460c      	mov	r4, r1
   853d8:	b14b      	cbz	r3, 853ee <_Balloc+0x1e>
   853da:	f853 0024 	ldr.w	r0, [r3, r4, lsl #2]
   853de:	b180      	cbz	r0, 85402 <_Balloc+0x32>
   853e0:	6802      	ldr	r2, [r0, #0]
   853e2:	f843 2024 	str.w	r2, [r3, r4, lsl #2]
   853e6:	2300      	movs	r3, #0
   853e8:	6103      	str	r3, [r0, #16]
   853ea:	60c3      	str	r3, [r0, #12]
   853ec:	bd70      	pop	{r4, r5, r6, pc}
   853ee:	2221      	movs	r2, #33	; 0x21
   853f0:	2104      	movs	r1, #4
   853f2:	f000 fdb7 	bl	85f64 <_calloc_r>
   853f6:	64e8      	str	r0, [r5, #76]	; 0x4c
   853f8:	4603      	mov	r3, r0
   853fa:	2800      	cmp	r0, #0
   853fc:	d1ed      	bne.n	853da <_Balloc+0xa>
   853fe:	2000      	movs	r0, #0
   85400:	bd70      	pop	{r4, r5, r6, pc}
   85402:	2101      	movs	r1, #1
   85404:	fa01 f604 	lsl.w	r6, r1, r4
   85408:	1d72      	adds	r2, r6, #5
   8540a:	4628      	mov	r0, r5
   8540c:	0092      	lsls	r2, r2, #2
   8540e:	f000 fda9 	bl	85f64 <_calloc_r>
   85412:	2800      	cmp	r0, #0
   85414:	d0f3      	beq.n	853fe <_Balloc+0x2e>
   85416:	6044      	str	r4, [r0, #4]
   85418:	6086      	str	r6, [r0, #8]
   8541a:	e7e4      	b.n	853e6 <_Balloc+0x16>

0008541c <_Bfree>:
   8541c:	b131      	cbz	r1, 8542c <_Bfree+0x10>
   8541e:	6cc3      	ldr	r3, [r0, #76]	; 0x4c
   85420:	684a      	ldr	r2, [r1, #4]
   85422:	f853 0022 	ldr.w	r0, [r3, r2, lsl #2]
   85426:	6008      	str	r0, [r1, #0]
   85428:	f843 1022 	str.w	r1, [r3, r2, lsl #2]
   8542c:	4770      	bx	lr
   8542e:	bf00      	nop

00085430 <__multadd>:
   85430:	b5f0      	push	{r4, r5, r6, r7, lr}
   85432:	460c      	mov	r4, r1
   85434:	4605      	mov	r5, r0
   85436:	f04f 0e00 	mov.w	lr, #0
   8543a:	690e      	ldr	r6, [r1, #16]
   8543c:	b083      	sub	sp, #12
   8543e:	f101 0714 	add.w	r7, r1, #20
   85442:	6838      	ldr	r0, [r7, #0]
   85444:	f10e 0e01 	add.w	lr, lr, #1
   85448:	b281      	uxth	r1, r0
   8544a:	fb02 3301 	mla	r3, r2, r1, r3
   8544e:	0c01      	lsrs	r1, r0, #16
   85450:	0c18      	lsrs	r0, r3, #16
   85452:	fb02 0101 	mla	r1, r2, r1, r0
   85456:	b29b      	uxth	r3, r3
   85458:	eb03 4301 	add.w	r3, r3, r1, lsl #16
   8545c:	4576      	cmp	r6, lr
   8545e:	f847 3b04 	str.w	r3, [r7], #4
   85462:	ea4f 4311 	mov.w	r3, r1, lsr #16
   85466:	dcec      	bgt.n	85442 <__multadd+0x12>
   85468:	b13b      	cbz	r3, 8547a <__multadd+0x4a>
   8546a:	68a2      	ldr	r2, [r4, #8]
   8546c:	4296      	cmp	r6, r2
   8546e:	da07      	bge.n	85480 <__multadd+0x50>
   85470:	eb04 0286 	add.w	r2, r4, r6, lsl #2
   85474:	3601      	adds	r6, #1
   85476:	6153      	str	r3, [r2, #20]
   85478:	6126      	str	r6, [r4, #16]
   8547a:	4620      	mov	r0, r4
   8547c:	b003      	add	sp, #12
   8547e:	bdf0      	pop	{r4, r5, r6, r7, pc}
   85480:	6861      	ldr	r1, [r4, #4]
   85482:	4628      	mov	r0, r5
   85484:	3101      	adds	r1, #1
   85486:	9301      	str	r3, [sp, #4]
   85488:	f7ff ffa2 	bl	853d0 <_Balloc>
   8548c:	4607      	mov	r7, r0
   8548e:	6922      	ldr	r2, [r4, #16]
   85490:	f104 010c 	add.w	r1, r4, #12
   85494:	3202      	adds	r2, #2
   85496:	0092      	lsls	r2, r2, #2
   85498:	300c      	adds	r0, #12
   8549a:	f7ff feb3 	bl	85204 <memcpy>
   8549e:	6cea      	ldr	r2, [r5, #76]	; 0x4c
   854a0:	6861      	ldr	r1, [r4, #4]
   854a2:	9b01      	ldr	r3, [sp, #4]
   854a4:	f852 0021 	ldr.w	r0, [r2, r1, lsl #2]
   854a8:	6020      	str	r0, [r4, #0]
   854aa:	f842 4021 	str.w	r4, [r2, r1, lsl #2]
   854ae:	463c      	mov	r4, r7
   854b0:	e7de      	b.n	85470 <__multadd+0x40>
   854b2:	bf00      	nop

000854b4 <__hi0bits>:
   854b4:	0c02      	lsrs	r2, r0, #16
   854b6:	0412      	lsls	r2, r2, #16
   854b8:	4603      	mov	r3, r0
   854ba:	b9b2      	cbnz	r2, 854ea <__hi0bits+0x36>
   854bc:	0403      	lsls	r3, r0, #16
   854be:	2010      	movs	r0, #16
   854c0:	f013 4f7f 	tst.w	r3, #4278190080	; 0xff000000
   854c4:	bf04      	itt	eq
   854c6:	021b      	lsleq	r3, r3, #8
   854c8:	3008      	addeq	r0, #8
   854ca:	f013 4f70 	tst.w	r3, #4026531840	; 0xf0000000
   854ce:	bf04      	itt	eq
   854d0:	011b      	lsleq	r3, r3, #4
   854d2:	3004      	addeq	r0, #4
   854d4:	f013 4f40 	tst.w	r3, #3221225472	; 0xc0000000
   854d8:	bf04      	itt	eq
   854da:	009b      	lsleq	r3, r3, #2
   854dc:	3002      	addeq	r0, #2
   854de:	2b00      	cmp	r3, #0
   854e0:	db02      	blt.n	854e8 <__hi0bits+0x34>
   854e2:	005b      	lsls	r3, r3, #1
   854e4:	d403      	bmi.n	854ee <__hi0bits+0x3a>
   854e6:	2020      	movs	r0, #32
   854e8:	4770      	bx	lr
   854ea:	2000      	movs	r0, #0
   854ec:	e7e8      	b.n	854c0 <__hi0bits+0xc>
   854ee:	3001      	adds	r0, #1
   854f0:	4770      	bx	lr
   854f2:	bf00      	nop

000854f4 <__lo0bits>:
   854f4:	6803      	ldr	r3, [r0, #0]
   854f6:	4601      	mov	r1, r0
   854f8:	f013 0207 	ands.w	r2, r3, #7
   854fc:	d007      	beq.n	8550e <__lo0bits+0x1a>
   854fe:	07da      	lsls	r2, r3, #31
   85500:	d421      	bmi.n	85546 <__lo0bits+0x52>
   85502:	0798      	lsls	r0, r3, #30
   85504:	d421      	bmi.n	8554a <__lo0bits+0x56>
   85506:	089b      	lsrs	r3, r3, #2
   85508:	600b      	str	r3, [r1, #0]
   8550a:	2002      	movs	r0, #2
   8550c:	4770      	bx	lr
   8550e:	b298      	uxth	r0, r3
   85510:	b198      	cbz	r0, 8553a <__lo0bits+0x46>
   85512:	4610      	mov	r0, r2
   85514:	f013 0fff 	tst.w	r3, #255	; 0xff
   85518:	bf04      	itt	eq
   8551a:	0a1b      	lsreq	r3, r3, #8
   8551c:	3008      	addeq	r0, #8
   8551e:	071a      	lsls	r2, r3, #28
   85520:	bf04      	itt	eq
   85522:	091b      	lsreq	r3, r3, #4
   85524:	3004      	addeq	r0, #4
   85526:	079a      	lsls	r2, r3, #30
   85528:	bf04      	itt	eq
   8552a:	089b      	lsreq	r3, r3, #2
   8552c:	3002      	addeq	r0, #2
   8552e:	07da      	lsls	r2, r3, #31
   85530:	d407      	bmi.n	85542 <__lo0bits+0x4e>
   85532:	085b      	lsrs	r3, r3, #1
   85534:	d104      	bne.n	85540 <__lo0bits+0x4c>
   85536:	2020      	movs	r0, #32
   85538:	4770      	bx	lr
   8553a:	0c1b      	lsrs	r3, r3, #16
   8553c:	2010      	movs	r0, #16
   8553e:	e7e9      	b.n	85514 <__lo0bits+0x20>
   85540:	3001      	adds	r0, #1
   85542:	600b      	str	r3, [r1, #0]
   85544:	4770      	bx	lr
   85546:	2000      	movs	r0, #0
   85548:	4770      	bx	lr
   8554a:	085b      	lsrs	r3, r3, #1
   8554c:	600b      	str	r3, [r1, #0]
   8554e:	2001      	movs	r0, #1
   85550:	4770      	bx	lr
   85552:	bf00      	nop

00085554 <__i2b>:
   85554:	b510      	push	{r4, lr}
   85556:	460c      	mov	r4, r1
   85558:	2101      	movs	r1, #1
   8555a:	f7ff ff39 	bl	853d0 <_Balloc>
   8555e:	2201      	movs	r2, #1
   85560:	6144      	str	r4, [r0, #20]
   85562:	6102      	str	r2, [r0, #16]
   85564:	bd10      	pop	{r4, pc}
   85566:	bf00      	nop

00085568 <__multiply>:
   85568:	e92d 4ff0 	stmdb	sp!, {r4, r5, r6, r7, r8, r9, sl, fp, lr}
   8556c:	690c      	ldr	r4, [r1, #16]
   8556e:	6915      	ldr	r5, [r2, #16]
   85570:	b083      	sub	sp, #12
   85572:	42ac      	cmp	r4, r5
   85574:	468b      	mov	fp, r1
   85576:	4616      	mov	r6, r2
   85578:	da04      	bge.n	85584 <__multiply+0x1c>
   8557a:	4622      	mov	r2, r4
   8557c:	46b3      	mov	fp, r6
   8557e:	462c      	mov	r4, r5
   85580:	460e      	mov	r6, r1
   85582:	4615      	mov	r5, r2
   85584:	f8db 3008 	ldr.w	r3, [fp, #8]
   85588:	eb04 0805 	add.w	r8, r4, r5
   8558c:	f8db 1004 	ldr.w	r1, [fp, #4]
   85590:	4598      	cmp	r8, r3
   85592:	bfc8      	it	gt
   85594:	3101      	addgt	r1, #1
   85596:	f7ff ff1b 	bl	853d0 <_Balloc>
   8559a:	f100 0914 	add.w	r9, r0, #20
   8559e:	eb09 0a88 	add.w	sl, r9, r8, lsl #2
   855a2:	45d1      	cmp	r9, sl
   855a4:	9000      	str	r0, [sp, #0]
   855a6:	d205      	bcs.n	855b4 <__multiply+0x4c>
   855a8:	464b      	mov	r3, r9
   855aa:	2100      	movs	r1, #0
   855ac:	f843 1b04 	str.w	r1, [r3], #4
   855b0:	459a      	cmp	sl, r3
   855b2:	d8fb      	bhi.n	855ac <__multiply+0x44>
   855b4:	f106 0c14 	add.w	ip, r6, #20
   855b8:	eb0c 0385 	add.w	r3, ip, r5, lsl #2
   855bc:	f10b 0b14 	add.w	fp, fp, #20
   855c0:	459c      	cmp	ip, r3
   855c2:	eb0b 0e84 	add.w	lr, fp, r4, lsl #2
   855c6:	d24b      	bcs.n	85660 <__multiply+0xf8>
   855c8:	f8cd a004 	str.w	sl, [sp, #4]
   855cc:	469a      	mov	sl, r3
   855ce:	f8dc 5000 	ldr.w	r5, [ip]
   855d2:	b2af      	uxth	r7, r5
   855d4:	b1e7      	cbz	r7, 85610 <__multiply+0xa8>
   855d6:	464d      	mov	r5, r9
   855d8:	465e      	mov	r6, fp
   855da:	2100      	movs	r1, #0
   855dc:	f856 2b04 	ldr.w	r2, [r6], #4
   855e0:	6828      	ldr	r0, [r5, #0]
   855e2:	b293      	uxth	r3, r2
   855e4:	b284      	uxth	r4, r0
   855e6:	0c12      	lsrs	r2, r2, #16
   855e8:	fb07 4303 	mla	r3, r7, r3, r4
   855ec:	0c00      	lsrs	r0, r0, #16
   855ee:	fb07 0202 	mla	r2, r7, r2, r0
   855f2:	440b      	add	r3, r1
   855f4:	eb02 4113 	add.w	r1, r2, r3, lsr #16
   855f8:	b29b      	uxth	r3, r3
   855fa:	ea43 4301 	orr.w	r3, r3, r1, lsl #16
   855fe:	45b6      	cmp	lr, r6
   85600:	f845 3b04 	str.w	r3, [r5], #4
   85604:	ea4f 4111 	mov.w	r1, r1, lsr #16
   85608:	d8e8      	bhi.n	855dc <__multiply+0x74>
   8560a:	6029      	str	r1, [r5, #0]
   8560c:	f8dc 5000 	ldr.w	r5, [ip]
   85610:	0c2d      	lsrs	r5, r5, #16
   85612:	d01d      	beq.n	85650 <__multiply+0xe8>
   85614:	f8d9 3000 	ldr.w	r3, [r9]
   85618:	4648      	mov	r0, r9
   8561a:	461c      	mov	r4, r3
   8561c:	4659      	mov	r1, fp
   8561e:	2200      	movs	r2, #0
   85620:	880e      	ldrh	r6, [r1, #0]
   85622:	0c24      	lsrs	r4, r4, #16
   85624:	fb05 4406 	mla	r4, r5, r6, r4
   85628:	b29b      	uxth	r3, r3
   8562a:	4422      	add	r2, r4
   8562c:	ea43 4302 	orr.w	r3, r3, r2, lsl #16
   85630:	f840 3b04 	str.w	r3, [r0], #4
   85634:	f851 3b04 	ldr.w	r3, [r1], #4
   85638:	6804      	ldr	r4, [r0, #0]
   8563a:	0c1b      	lsrs	r3, r3, #16
   8563c:	b2a6      	uxth	r6, r4
   8563e:	fb05 6303 	mla	r3, r5, r3, r6
   85642:	458e      	cmp	lr, r1
   85644:	eb03 4312 	add.w	r3, r3, r2, lsr #16
   85648:	ea4f 4213 	mov.w	r2, r3, lsr #16
   8564c:	d8e8      	bhi.n	85620 <__multiply+0xb8>
   8564e:	6003      	str	r3, [r0, #0]
   85650:	f10c 0c04 	add.w	ip, ip, #4
   85654:	45e2      	cmp	sl, ip
   85656:	f109 0904 	add.w	r9, r9, #4
   8565a:	d8b8      	bhi.n	855ce <__multiply+0x66>
   8565c:	f8dd a004 	ldr.w	sl, [sp, #4]
   85660:	f1b8 0f00 	cmp.w	r8, #0
   85664:	dd0b      	ble.n	8567e <__multiply+0x116>
   85666:	f85a 3c04 	ldr.w	r3, [sl, #-4]
   8566a:	f1aa 0a04 	sub.w	sl, sl, #4
   8566e:	b11b      	cbz	r3, 85678 <__multiply+0x110>
   85670:	e005      	b.n	8567e <__multiply+0x116>
   85672:	f85a 3d04 	ldr.w	r3, [sl, #-4]!
   85676:	b913      	cbnz	r3, 8567e <__multiply+0x116>
   85678:	f1b8 0801 	subs.w	r8, r8, #1
   8567c:	d1f9      	bne.n	85672 <__multiply+0x10a>
   8567e:	9800      	ldr	r0, [sp, #0]
   85680:	f8c0 8010 	str.w	r8, [r0, #16]
   85684:	b003      	add	sp, #12
   85686:	e8bd 8ff0 	ldmia.w	sp!, {r4, r5, r6, r7, r8, r9, sl, fp, pc}
   8568a:	bf00      	nop

0008568c <__pow5mult>:
   8568c:	f012 0303 	ands.w	r3, r2, #3
   85690:	e92d 41f0 	stmdb	sp!, {r4, r5, r6, r7, r8, lr}
   85694:	4614      	mov	r4, r2
   85696:	4607      	mov	r7, r0
   85698:	d12e      	bne.n	856f8 <__pow5mult+0x6c>
   8569a:	460d      	mov	r5, r1
   8569c:	10a4      	asrs	r4, r4, #2
   8569e:	d01c      	beq.n	856da <__pow5mult+0x4e>
   856a0:	6cbe      	ldr	r6, [r7, #72]	; 0x48
   856a2:	b396      	cbz	r6, 8570a <__pow5mult+0x7e>
   856a4:	07e3      	lsls	r3, r4, #31
   856a6:	f04f 0800 	mov.w	r8, #0
   856aa:	d406      	bmi.n	856ba <__pow5mult+0x2e>
   856ac:	1064      	asrs	r4, r4, #1
   856ae:	d014      	beq.n	856da <__pow5mult+0x4e>
   856b0:	6830      	ldr	r0, [r6, #0]
   856b2:	b1a8      	cbz	r0, 856e0 <__pow5mult+0x54>
   856b4:	4606      	mov	r6, r0
   856b6:	07e3      	lsls	r3, r4, #31
   856b8:	d5f8      	bpl.n	856ac <__pow5mult+0x20>
   856ba:	4632      	mov	r2, r6
   856bc:	4629      	mov	r1, r5
   856be:	4638      	mov	r0, r7
   856c0:	f7ff ff52 	bl	85568 <__multiply>
   856c4:	b1b5      	cbz	r5, 856f4 <__pow5mult+0x68>
   856c6:	686a      	ldr	r2, [r5, #4]
   856c8:	6cfb      	ldr	r3, [r7, #76]	; 0x4c
   856ca:	1064      	asrs	r4, r4, #1
   856cc:	f853 1022 	ldr.w	r1, [r3, r2, lsl #2]
   856d0:	6029      	str	r1, [r5, #0]
   856d2:	f843 5022 	str.w	r5, [r3, r2, lsl #2]
   856d6:	4605      	mov	r5, r0
   856d8:	d1ea      	bne.n	856b0 <__pow5mult+0x24>
   856da:	4628      	mov	r0, r5
   856dc:	e8bd 81f0 	ldmia.w	sp!, {r4, r5, r6, r7, r8, pc}
   856e0:	4632      	mov	r2, r6
   856e2:	4631      	mov	r1, r6
   856e4:	4638      	mov	r0, r7
   856e6:	f7ff ff3f 	bl	85568 <__multiply>
   856ea:	6030      	str	r0, [r6, #0]
   856ec:	f8c0 8000 	str.w	r8, [r0]
   856f0:	4606      	mov	r6, r0
   856f2:	e7e0      	b.n	856b6 <__pow5mult+0x2a>
   856f4:	4605      	mov	r5, r0
   856f6:	e7d9      	b.n	856ac <__pow5mult+0x20>
   856f8:	4a0b      	ldr	r2, [pc, #44]	; (85728 <__pow5mult+0x9c>)
   856fa:	3b01      	subs	r3, #1
   856fc:	f852 2023 	ldr.w	r2, [r2, r3, lsl #2]
   85700:	2300      	movs	r3, #0
   85702:	f7ff fe95 	bl	85430 <__multadd>
   85706:	4605      	mov	r5, r0
   85708:	e7c8      	b.n	8569c <__pow5mult+0x10>
   8570a:	2101      	movs	r1, #1
   8570c:	4638      	mov	r0, r7
   8570e:	f7ff fe5f 	bl	853d0 <_Balloc>
   85712:	f240 2171 	movw	r1, #625	; 0x271
   85716:	2201      	movs	r2, #1
   85718:	2300      	movs	r3, #0
   8571a:	6141      	str	r1, [r0, #20]
   8571c:	6102      	str	r2, [r0, #16]
   8571e:	4606      	mov	r6, r0
   85720:	64b8      	str	r0, [r7, #72]	; 0x48
   85722:	6003      	str	r3, [r0, #0]
   85724:	e7be      	b.n	856a4 <__pow5mult+0x18>
   85726:	bf00      	nop
   85728:	000865c8 	.word	0x000865c8

0008572c <__lshift>:
   8572c:	e92d 43f8 	stmdb	sp!, {r3, r4, r5, r6, r7, r8, r9, lr}
   85730:	690b      	ldr	r3, [r1, #16]
   85732:	1154      	asrs	r4, r2, #5
   85734:	eb04 0803 	add.w	r8, r4, r3
   85738:	688b      	ldr	r3, [r1, #8]
   8573a:	f108 0501 	add.w	r5, r8, #1
   8573e:	429d      	cmp	r5, r3
   85740:	460e      	mov	r6, r1
   85742:	4691      	mov	r9, r2
   85744:	4607      	mov	r7, r0
   85746:	6849      	ldr	r1, [r1, #4]
   85748:	dd04      	ble.n	85754 <__lshift+0x28>
   8574a:	005b      	lsls	r3, r3, #1
   8574c:	429d      	cmp	r5, r3
   8574e:	f101 0101 	add.w	r1, r1, #1
   85752:	dcfa      	bgt.n	8574a <__lshift+0x1e>
   85754:	4638      	mov	r0, r7
   85756:	f7ff fe3b 	bl	853d0 <_Balloc>
   8575a:	2c00      	cmp	r4, #0
   8575c:	f100 0314 	add.w	r3, r0, #20
   85760:	dd06      	ble.n	85770 <__lshift+0x44>
   85762:	2100      	movs	r1, #0
   85764:	eb03 0284 	add.w	r2, r3, r4, lsl #2
   85768:	f843 1b04 	str.w	r1, [r3], #4
   8576c:	429a      	cmp	r2, r3
   8576e:	d1fb      	bne.n	85768 <__lshift+0x3c>
   85770:	6934      	ldr	r4, [r6, #16]
   85772:	f106 0114 	add.w	r1, r6, #20
   85776:	f019 091f 	ands.w	r9, r9, #31
   8577a:	eb01 0e84 	add.w	lr, r1, r4, lsl #2
   8577e:	d01d      	beq.n	857bc <__lshift+0x90>
   85780:	2200      	movs	r2, #0
   85782:	f1c9 0c20 	rsb	ip, r9, #32
   85786:	680c      	ldr	r4, [r1, #0]
   85788:	fa04 f409 	lsl.w	r4, r4, r9
   8578c:	4314      	orrs	r4, r2
   8578e:	f843 4b04 	str.w	r4, [r3], #4
   85792:	f851 2b04 	ldr.w	r2, [r1], #4
   85796:	458e      	cmp	lr, r1
   85798:	fa22 f20c 	lsr.w	r2, r2, ip
   8579c:	d8f3      	bhi.n	85786 <__lshift+0x5a>
   8579e:	601a      	str	r2, [r3, #0]
   857a0:	b10a      	cbz	r2, 857a6 <__lshift+0x7a>
   857a2:	f108 0502 	add.w	r5, r8, #2
   857a6:	6cfb      	ldr	r3, [r7, #76]	; 0x4c
   857a8:	6872      	ldr	r2, [r6, #4]
   857aa:	3d01      	subs	r5, #1
   857ac:	f853 1022 	ldr.w	r1, [r3, r2, lsl #2]
   857b0:	6105      	str	r5, [r0, #16]
   857b2:	6031      	str	r1, [r6, #0]
   857b4:	f843 6022 	str.w	r6, [r3, r2, lsl #2]
   857b8:	e8bd 83f8 	ldmia.w	sp!, {r3, r4, r5, r6, r7, r8, r9, pc}
   857bc:	3b04      	subs	r3, #4
   857be:	f851 2b04 	ldr.w	r2, [r1], #4
   857c2:	458e      	cmp	lr, r1
   857c4:	f843 2f04 	str.w	r2, [r3, #4]!
   857c8:	d8f9      	bhi.n	857be <__lshift+0x92>
   857ca:	e7ec      	b.n	857a6 <__lshift+0x7a>

000857cc <__mcmp>:
   857cc:	b430      	push	{r4, r5}
   857ce:	690b      	ldr	r3, [r1, #16]
   857d0:	4605      	mov	r5, r0
   857d2:	6900      	ldr	r0, [r0, #16]
   857d4:	1ac0      	subs	r0, r0, r3
   857d6:	d10f      	bne.n	857f8 <__mcmp+0x2c>
   857d8:	009b      	lsls	r3, r3, #2
   857da:	3514      	adds	r5, #20
   857dc:	3114      	adds	r1, #20
   857de:	4419      	add	r1, r3
   857e0:	442b      	add	r3, r5
   857e2:	e001      	b.n	857e8 <__mcmp+0x1c>
   857e4:	429d      	cmp	r5, r3
   857e6:	d207      	bcs.n	857f8 <__mcmp+0x2c>
   857e8:	f853 4d04 	ldr.w	r4, [r3, #-4]!
   857ec:	f851 2d04 	ldr.w	r2, [r1, #-4]!
   857f0:	4294      	cmp	r4, r2
   857f2:	d0f7      	beq.n	857e4 <__mcmp+0x18>
   857f4:	d302      	bcc.n	857fc <__mcmp+0x30>
   857f6:	2001      	movs	r0, #1
   857f8:	bc30      	pop	{r4, r5}
   857fa:	4770      	bx	lr
   857fc:	f04f 30ff 	mov.w	r0, #4294967295
   85800:	e7fa      	b.n	857f8 <__mcmp+0x2c>
   85802:	bf00      	nop

00085804 <__mdiff>:
   85804:	e92d 4ff8 	stmdb	sp!, {r3, r4, r5, r6, r7, r8, r9, sl, fp, lr}
   85808:	690c      	ldr	r4, [r1, #16]
   8580a:	4689      	mov	r9, r1
   8580c:	6911      	ldr	r1, [r2, #16]
   8580e:	4692      	mov	sl, r2
   85810:	1a64      	subs	r4, r4, r1
   85812:	2c00      	cmp	r4, #0
   85814:	d117      	bne.n	85846 <__mdiff+0x42>
   85816:	0089      	lsls	r1, r1, #2
   85818:	f109 0714 	add.w	r7, r9, #20
   8581c:	f102 0614 	add.w	r6, r2, #20
   85820:	187b      	adds	r3, r7, r1
   85822:	4431      	add	r1, r6
   85824:	e001      	b.n	8582a <__mdiff+0x26>
   85826:	429f      	cmp	r7, r3
   85828:	d265      	bcs.n	858f6 <__mdiff+0xf2>
   8582a:	f853 5d04 	ldr.w	r5, [r3, #-4]!
   8582e:	f851 2d04 	ldr.w	r2, [r1, #-4]!
   85832:	4295      	cmp	r5, r2
   85834:	d0f7      	beq.n	85826 <__mdiff+0x22>
   85836:	d267      	bcs.n	85908 <__mdiff+0x104>
   85838:	464b      	mov	r3, r9
   8583a:	46bb      	mov	fp, r7
   8583c:	46d1      	mov	r9, sl
   8583e:	4637      	mov	r7, r6
   85840:	469a      	mov	sl, r3
   85842:	2401      	movs	r4, #1
   85844:	e005      	b.n	85852 <__mdiff+0x4e>
   85846:	db61      	blt.n	8590c <__mdiff+0x108>
   85848:	2400      	movs	r4, #0
   8584a:	f109 0714 	add.w	r7, r9, #20
   8584e:	f10a 0b14 	add.w	fp, sl, #20
   85852:	f8d9 1004 	ldr.w	r1, [r9, #4]
   85856:	f7ff fdbb 	bl	853d0 <_Balloc>
   8585a:	465d      	mov	r5, fp
   8585c:	f04f 0800 	mov.w	r8, #0
   85860:	f8d9 e010 	ldr.w	lr, [r9, #16]
   85864:	f8da 3010 	ldr.w	r3, [sl, #16]
   85868:	463e      	mov	r6, r7
   8586a:	60c4      	str	r4, [r0, #12]
   8586c:	eb0b 0c83 	add.w	ip, fp, r3, lsl #2
   85870:	eb07 078e 	add.w	r7, r7, lr, lsl #2
   85874:	f100 0414 	add.w	r4, r0, #20
   85878:	f856 9b04 	ldr.w	r9, [r6], #4
   8587c:	f855 2b04 	ldr.w	r2, [r5], #4
   85880:	fa1f f389 	uxth.w	r3, r9
   85884:	4443      	add	r3, r8
   85886:	fa1f f882 	uxth.w	r8, r2
   8588a:	0c12      	lsrs	r2, r2, #16
   8588c:	eba3 0308 	sub.w	r3, r3, r8
   85890:	ebc2 4219 	rsb	r2, r2, r9, lsr #16
   85894:	eb02 4223 	add.w	r2, r2, r3, asr #16
   85898:	b29b      	uxth	r3, r3
   8589a:	ea43 4302 	orr.w	r3, r3, r2, lsl #16
   8589e:	45ac      	cmp	ip, r5
   858a0:	f844 3b04 	str.w	r3, [r4], #4
   858a4:	ea4f 4822 	mov.w	r8, r2, asr #16
   858a8:	d8e6      	bhi.n	85878 <__mdiff+0x74>
   858aa:	42b7      	cmp	r7, r6
   858ac:	d917      	bls.n	858de <__mdiff+0xda>
   858ae:	46a4      	mov	ip, r4
   858b0:	4635      	mov	r5, r6
   858b2:	f855 3b04 	ldr.w	r3, [r5], #4
   858b6:	b299      	uxth	r1, r3
   858b8:	4441      	add	r1, r8
   858ba:	140a      	asrs	r2, r1, #16
   858bc:	eb02 4213 	add.w	r2, r2, r3, lsr #16
   858c0:	b289      	uxth	r1, r1
   858c2:	ea41 4302 	orr.w	r3, r1, r2, lsl #16
   858c6:	42af      	cmp	r7, r5
   858c8:	f84c 3b04 	str.w	r3, [ip], #4
   858cc:	ea4f 4822 	mov.w	r8, r2, asr #16
   858d0:	d8ef      	bhi.n	858b2 <__mdiff+0xae>
   858d2:	43f6      	mvns	r6, r6
   858d4:	4437      	add	r7, r6
   858d6:	f027 0703 	bic.w	r7, r7, #3
   858da:	3704      	adds	r7, #4
   858dc:	443c      	add	r4, r7
   858de:	3c04      	subs	r4, #4
   858e0:	b92b      	cbnz	r3, 858ee <__mdiff+0xea>
   858e2:	f854 3d04 	ldr.w	r3, [r4, #-4]!
   858e6:	f10e 3eff 	add.w	lr, lr, #4294967295
   858ea:	2b00      	cmp	r3, #0
   858ec:	d0f9      	beq.n	858e2 <__mdiff+0xde>
   858ee:	f8c0 e010 	str.w	lr, [r0, #16]
   858f2:	e8bd 8ff8 	ldmia.w	sp!, {r3, r4, r5, r6, r7, r8, r9, sl, fp, pc}
   858f6:	2100      	movs	r1, #0
   858f8:	f7ff fd6a 	bl	853d0 <_Balloc>
   858fc:	2201      	movs	r2, #1
   858fe:	2300      	movs	r3, #0
   85900:	6102      	str	r2, [r0, #16]
   85902:	6143      	str	r3, [r0, #20]
   85904:	e8bd 8ff8 	ldmia.w	sp!, {r3, r4, r5, r6, r7, r8, r9, sl, fp, pc}
   85908:	46b3      	mov	fp, r6
   8590a:	e7a2      	b.n	85852 <__mdiff+0x4e>
   8590c:	464b      	mov	r3, r9
   8590e:	f109 0b14 	add.w	fp, r9, #20
   85912:	f102 0714 	add.w	r7, r2, #20
   85916:	4691      	mov	r9, r2
   85918:	2401      	movs	r4, #1
   8591a:	469a      	mov	sl, r3
   8591c:	e799      	b.n	85852 <__mdiff+0x4e>
   8591e:	bf00      	nop

00085920 <__d2b>:
   85920:	b5f0      	push	{r4, r5, r6, r7, lr}
   85922:	2101      	movs	r1, #1
   85924:	b083      	sub	sp, #12
   85926:	461c      	mov	r4, r3
   85928:	f3c3 550a 	ubfx	r5, r3, #20, #11
   8592c:	4616      	mov	r6, r2
   8592e:	f7ff fd4f 	bl	853d0 <_Balloc>
   85932:	f3c4 0413 	ubfx	r4, r4, #0, #20
   85936:	4607      	mov	r7, r0
   85938:	b10d      	cbz	r5, 8593e <__d2b+0x1e>
   8593a:	f444 1480 	orr.w	r4, r4, #1048576	; 0x100000
   8593e:	9401      	str	r4, [sp, #4]
   85940:	b306      	cbz	r6, 85984 <__d2b+0x64>
   85942:	a802      	add	r0, sp, #8
   85944:	f840 6d08 	str.w	r6, [r0, #-8]!
   85948:	f7ff fdd4 	bl	854f4 <__lo0bits>
   8594c:	2800      	cmp	r0, #0
   8594e:	d130      	bne.n	859b2 <__d2b+0x92>
   85950:	e89d 000c 	ldmia.w	sp, {r2, r3}
   85954:	617a      	str	r2, [r7, #20]
   85956:	2b00      	cmp	r3, #0
   85958:	bf0c      	ite	eq
   8595a:	2101      	moveq	r1, #1
   8595c:	2102      	movne	r1, #2
   8595e:	61bb      	str	r3, [r7, #24]
   85960:	6139      	str	r1, [r7, #16]
   85962:	b9d5      	cbnz	r5, 8599a <__d2b+0x7a>
   85964:	9a08      	ldr	r2, [sp, #32]
   85966:	eb07 0381 	add.w	r3, r7, r1, lsl #2
   8596a:	f2a0 4032 	subw	r0, r0, #1074	; 0x432
   8596e:	6010      	str	r0, [r2, #0]
   85970:	6918      	ldr	r0, [r3, #16]
   85972:	f7ff fd9f 	bl	854b4 <__hi0bits>
   85976:	9b09      	ldr	r3, [sp, #36]	; 0x24
   85978:	ebc0 1041 	rsb	r0, r0, r1, lsl #5
   8597c:	6018      	str	r0, [r3, #0]
   8597e:	4638      	mov	r0, r7
   85980:	b003      	add	sp, #12
   85982:	bdf0      	pop	{r4, r5, r6, r7, pc}
   85984:	a801      	add	r0, sp, #4
   85986:	f7ff fdb5 	bl	854f4 <__lo0bits>
   8598a:	2201      	movs	r2, #1
   8598c:	9b01      	ldr	r3, [sp, #4]
   8598e:	4611      	mov	r1, r2
   85990:	3020      	adds	r0, #32
   85992:	613a      	str	r2, [r7, #16]
   85994:	617b      	str	r3, [r7, #20]
   85996:	2d00      	cmp	r5, #0
   85998:	d0e4      	beq.n	85964 <__d2b+0x44>
   8599a:	f2a5 4333 	subw	r3, r5, #1075	; 0x433
   8599e:	9a08      	ldr	r2, [sp, #32]
   859a0:	4403      	add	r3, r0
   859a2:	6013      	str	r3, [r2, #0]
   859a4:	9b09      	ldr	r3, [sp, #36]	; 0x24
   859a6:	f1c0 0035 	rsb	r0, r0, #53	; 0x35
   859aa:	6018      	str	r0, [r3, #0]
   859ac:	4638      	mov	r0, r7
   859ae:	b003      	add	sp, #12
   859b0:	bdf0      	pop	{r4, r5, r6, r7, pc}
   859b2:	9b01      	ldr	r3, [sp, #4]
   859b4:	f1c0 0220 	rsb	r2, r0, #32
   859b8:	9900      	ldr	r1, [sp, #0]
   859ba:	fa03 f202 	lsl.w	r2, r3, r2
   859be:	430a      	orrs	r2, r1
   859c0:	40c3      	lsrs	r3, r0
   859c2:	9301      	str	r3, [sp, #4]
   859c4:	617a      	str	r2, [r7, #20]
   859c6:	e7c6      	b.n	85956 <__d2b+0x36>

000859c8 <_realloc_r>:
   859c8:	2900      	cmp	r1, #0
   859ca:	f000 8094 	beq.w	85af6 <_realloc_r+0x12e>
   859ce:	e92d 4ff0 	stmdb	sp!, {r4, r5, r6, r7, r8, r9, sl, fp, lr}
   859d2:	460c      	mov	r4, r1
   859d4:	4615      	mov	r5, r2
   859d6:	b083      	sub	sp, #12
   859d8:	4680      	mov	r8, r0
   859da:	f105 060b 	add.w	r6, r5, #11
   859de:	f7ff fceb 	bl	853b8 <__malloc_lock>
   859e2:	f854 ec04 	ldr.w	lr, [r4, #-4]
   859e6:	2e16      	cmp	r6, #22
   859e8:	f02e 0703 	bic.w	r7, lr, #3
   859ec:	f1a4 0908 	sub.w	r9, r4, #8
   859f0:	d83c      	bhi.n	85a6c <_realloc_r+0xa4>
   859f2:	2210      	movs	r2, #16
   859f4:	4616      	mov	r6, r2
   859f6:	42b5      	cmp	r5, r6
   859f8:	d83d      	bhi.n	85a76 <_realloc_r+0xae>
   859fa:	4297      	cmp	r7, r2
   859fc:	da43      	bge.n	85a86 <_realloc_r+0xbe>
   859fe:	4bc6      	ldr	r3, [pc, #792]	; (85d18 <_realloc_r+0x350>)
   85a00:	eb09 0007 	add.w	r0, r9, r7
   85a04:	6899      	ldr	r1, [r3, #8]
   85a06:	4288      	cmp	r0, r1
   85a08:	f000 80c3 	beq.w	85b92 <_realloc_r+0x1ca>
   85a0c:	6843      	ldr	r3, [r0, #4]
   85a0e:	f023 0101 	bic.w	r1, r3, #1
   85a12:	4401      	add	r1, r0
   85a14:	6849      	ldr	r1, [r1, #4]
   85a16:	07c9      	lsls	r1, r1, #31
   85a18:	d54d      	bpl.n	85ab6 <_realloc_r+0xee>
   85a1a:	f01e 0f01 	tst.w	lr, #1
   85a1e:	f000 809b 	beq.w	85b58 <_realloc_r+0x190>
   85a22:	4629      	mov	r1, r5
   85a24:	4640      	mov	r0, r8
   85a26:	f7ff f905 	bl	84c34 <_malloc_r>
   85a2a:	4605      	mov	r5, r0
   85a2c:	2800      	cmp	r0, #0
   85a2e:	d03b      	beq.n	85aa8 <_realloc_r+0xe0>
   85a30:	f854 3c04 	ldr.w	r3, [r4, #-4]
   85a34:	f1a0 0208 	sub.w	r2, r0, #8
   85a38:	f023 0301 	bic.w	r3, r3, #1
   85a3c:	444b      	add	r3, r9
   85a3e:	429a      	cmp	r2, r3
   85a40:	f000 812b 	beq.w	85c9a <_realloc_r+0x2d2>
   85a44:	1f3a      	subs	r2, r7, #4
   85a46:	2a24      	cmp	r2, #36	; 0x24
   85a48:	f200 8118 	bhi.w	85c7c <_realloc_r+0x2b4>
   85a4c:	2a13      	cmp	r2, #19
   85a4e:	f200 80eb 	bhi.w	85c28 <_realloc_r+0x260>
   85a52:	4603      	mov	r3, r0
   85a54:	4622      	mov	r2, r4
   85a56:	6811      	ldr	r1, [r2, #0]
   85a58:	6019      	str	r1, [r3, #0]
   85a5a:	6851      	ldr	r1, [r2, #4]
   85a5c:	6059      	str	r1, [r3, #4]
   85a5e:	6892      	ldr	r2, [r2, #8]
   85a60:	609a      	str	r2, [r3, #8]
   85a62:	4621      	mov	r1, r4
   85a64:	4640      	mov	r0, r8
   85a66:	f7fe fdcf 	bl	84608 <_free_r>
   85a6a:	e01d      	b.n	85aa8 <_realloc_r+0xe0>
   85a6c:	f026 0607 	bic.w	r6, r6, #7
   85a70:	2e00      	cmp	r6, #0
   85a72:	4632      	mov	r2, r6
   85a74:	dabf      	bge.n	859f6 <_realloc_r+0x2e>
   85a76:	2500      	movs	r5, #0
   85a78:	230c      	movs	r3, #12
   85a7a:	4628      	mov	r0, r5
   85a7c:	f8c8 3000 	str.w	r3, [r8]
   85a80:	b003      	add	sp, #12
   85a82:	e8bd 8ff0 	ldmia.w	sp!, {r4, r5, r6, r7, r8, r9, sl, fp, pc}
   85a86:	4625      	mov	r5, r4
   85a88:	1bbb      	subs	r3, r7, r6
   85a8a:	2b0f      	cmp	r3, #15
   85a8c:	f8d9 2004 	ldr.w	r2, [r9, #4]
   85a90:	d81d      	bhi.n	85ace <_realloc_r+0x106>
   85a92:	f002 0201 	and.w	r2, r2, #1
   85a96:	433a      	orrs	r2, r7
   85a98:	eb09 0107 	add.w	r1, r9, r7
   85a9c:	f8c9 2004 	str.w	r2, [r9, #4]
   85aa0:	684b      	ldr	r3, [r1, #4]
   85aa2:	f043 0301 	orr.w	r3, r3, #1
   85aa6:	604b      	str	r3, [r1, #4]
   85aa8:	4640      	mov	r0, r8
   85aaa:	f7ff fc8b 	bl	853c4 <__malloc_unlock>
   85aae:	4628      	mov	r0, r5
   85ab0:	b003      	add	sp, #12
   85ab2:	e8bd 8ff0 	ldmia.w	sp!, {r4, r5, r6, r7, r8, r9, sl, fp, pc}
   85ab6:	f023 0303 	bic.w	r3, r3, #3
   85aba:	18f9      	adds	r1, r7, r3
   85abc:	4291      	cmp	r1, r2
   85abe:	db1d      	blt.n	85afc <_realloc_r+0x134>
   85ac0:	68c3      	ldr	r3, [r0, #12]
   85ac2:	6882      	ldr	r2, [r0, #8]
   85ac4:	4625      	mov	r5, r4
   85ac6:	60d3      	str	r3, [r2, #12]
   85ac8:	460f      	mov	r7, r1
   85aca:	609a      	str	r2, [r3, #8]
   85acc:	e7dc      	b.n	85a88 <_realloc_r+0xc0>
   85ace:	f002 0201 	and.w	r2, r2, #1
   85ad2:	eb09 0106 	add.w	r1, r9, r6
   85ad6:	f043 0301 	orr.w	r3, r3, #1
   85ada:	4332      	orrs	r2, r6
   85adc:	f8c9 2004 	str.w	r2, [r9, #4]
   85ae0:	444f      	add	r7, r9
   85ae2:	604b      	str	r3, [r1, #4]
   85ae4:	687b      	ldr	r3, [r7, #4]
   85ae6:	3108      	adds	r1, #8
   85ae8:	f043 0301 	orr.w	r3, r3, #1
   85aec:	607b      	str	r3, [r7, #4]
   85aee:	4640      	mov	r0, r8
   85af0:	f7fe fd8a 	bl	84608 <_free_r>
   85af4:	e7d8      	b.n	85aa8 <_realloc_r+0xe0>
   85af6:	4611      	mov	r1, r2
   85af8:	f7ff b89c 	b.w	84c34 <_malloc_r>
   85afc:	f01e 0f01 	tst.w	lr, #1
   85b00:	d18f      	bne.n	85a22 <_realloc_r+0x5a>
   85b02:	f854 1c08 	ldr.w	r1, [r4, #-8]
   85b06:	eba9 0a01 	sub.w	sl, r9, r1
   85b0a:	f8da 1004 	ldr.w	r1, [sl, #4]
   85b0e:	f021 0103 	bic.w	r1, r1, #3
   85b12:	440b      	add	r3, r1
   85b14:	443b      	add	r3, r7
   85b16:	4293      	cmp	r3, r2
   85b18:	db26      	blt.n	85b68 <_realloc_r+0x1a0>
   85b1a:	4655      	mov	r5, sl
   85b1c:	68c1      	ldr	r1, [r0, #12]
   85b1e:	6880      	ldr	r0, [r0, #8]
   85b20:	1f3a      	subs	r2, r7, #4
   85b22:	60c1      	str	r1, [r0, #12]
   85b24:	6088      	str	r0, [r1, #8]
   85b26:	f855 0f08 	ldr.w	r0, [r5, #8]!
   85b2a:	f8da 100c 	ldr.w	r1, [sl, #12]
   85b2e:	2a24      	cmp	r2, #36	; 0x24
   85b30:	60c1      	str	r1, [r0, #12]
   85b32:	6088      	str	r0, [r1, #8]
   85b34:	d826      	bhi.n	85b84 <_realloc_r+0x1bc>
   85b36:	2a13      	cmp	r2, #19
   85b38:	f240 8081 	bls.w	85c3e <_realloc_r+0x276>
   85b3c:	6821      	ldr	r1, [r4, #0]
   85b3e:	2a1b      	cmp	r2, #27
   85b40:	f8ca 1008 	str.w	r1, [sl, #8]
   85b44:	6861      	ldr	r1, [r4, #4]
   85b46:	f8ca 100c 	str.w	r1, [sl, #12]
   85b4a:	f200 80ad 	bhi.w	85ca8 <_realloc_r+0x2e0>
   85b4e:	f104 0008 	add.w	r0, r4, #8
   85b52:	f10a 0210 	add.w	r2, sl, #16
   85b56:	e074      	b.n	85c42 <_realloc_r+0x27a>
   85b58:	f854 3c08 	ldr.w	r3, [r4, #-8]
   85b5c:	eba9 0a03 	sub.w	sl, r9, r3
   85b60:	f8da 1004 	ldr.w	r1, [sl, #4]
   85b64:	f021 0103 	bic.w	r1, r1, #3
   85b68:	187b      	adds	r3, r7, r1
   85b6a:	4293      	cmp	r3, r2
   85b6c:	f6ff af59 	blt.w	85a22 <_realloc_r+0x5a>
   85b70:	4655      	mov	r5, sl
   85b72:	f8da 100c 	ldr.w	r1, [sl, #12]
   85b76:	f855 0f08 	ldr.w	r0, [r5, #8]!
   85b7a:	1f3a      	subs	r2, r7, #4
   85b7c:	2a24      	cmp	r2, #36	; 0x24
   85b7e:	60c1      	str	r1, [r0, #12]
   85b80:	6088      	str	r0, [r1, #8]
   85b82:	d9d8      	bls.n	85b36 <_realloc_r+0x16e>
   85b84:	4621      	mov	r1, r4
   85b86:	4628      	mov	r0, r5
   85b88:	461f      	mov	r7, r3
   85b8a:	46d1      	mov	r9, sl
   85b8c:	f7ff fbb0 	bl	852f0 <memmove>
   85b90:	e77a      	b.n	85a88 <_realloc_r+0xc0>
   85b92:	6841      	ldr	r1, [r0, #4]
   85b94:	f106 0010 	add.w	r0, r6, #16
   85b98:	f021 0b03 	bic.w	fp, r1, #3
   85b9c:	44bb      	add	fp, r7
   85b9e:	4583      	cmp	fp, r0
   85ba0:	da58      	bge.n	85c54 <_realloc_r+0x28c>
   85ba2:	f01e 0f01 	tst.w	lr, #1
   85ba6:	f47f af3c 	bne.w	85a22 <_realloc_r+0x5a>
   85baa:	f854 1c08 	ldr.w	r1, [r4, #-8]
   85bae:	eba9 0a01 	sub.w	sl, r9, r1
   85bb2:	f8da 1004 	ldr.w	r1, [sl, #4]
   85bb6:	f021 0103 	bic.w	r1, r1, #3
   85bba:	448b      	add	fp, r1
   85bbc:	4558      	cmp	r0, fp
   85bbe:	dcd3      	bgt.n	85b68 <_realloc_r+0x1a0>
   85bc0:	4655      	mov	r5, sl
   85bc2:	f8da 100c 	ldr.w	r1, [sl, #12]
   85bc6:	f855 0f08 	ldr.w	r0, [r5, #8]!
   85bca:	1f3a      	subs	r2, r7, #4
   85bcc:	2a24      	cmp	r2, #36	; 0x24
   85bce:	60c1      	str	r1, [r0, #12]
   85bd0:	6088      	str	r0, [r1, #8]
   85bd2:	f200 808d 	bhi.w	85cf0 <_realloc_r+0x328>
   85bd6:	2a13      	cmp	r2, #19
   85bd8:	f240 8087 	bls.w	85cea <_realloc_r+0x322>
   85bdc:	6821      	ldr	r1, [r4, #0]
   85bde:	2a1b      	cmp	r2, #27
   85be0:	f8ca 1008 	str.w	r1, [sl, #8]
   85be4:	6861      	ldr	r1, [r4, #4]
   85be6:	f8ca 100c 	str.w	r1, [sl, #12]
   85bea:	f200 8088 	bhi.w	85cfe <_realloc_r+0x336>
   85bee:	f104 0108 	add.w	r1, r4, #8
   85bf2:	f10a 0210 	add.w	r2, sl, #16
   85bf6:	6808      	ldr	r0, [r1, #0]
   85bf8:	6010      	str	r0, [r2, #0]
   85bfa:	6848      	ldr	r0, [r1, #4]
   85bfc:	6050      	str	r0, [r2, #4]
   85bfe:	6889      	ldr	r1, [r1, #8]
   85c00:	6091      	str	r1, [r2, #8]
   85c02:	ebab 0206 	sub.w	r2, fp, r6
   85c06:	eb0a 0106 	add.w	r1, sl, r6
   85c0a:	f042 0201 	orr.w	r2, r2, #1
   85c0e:	6099      	str	r1, [r3, #8]
   85c10:	604a      	str	r2, [r1, #4]
   85c12:	f8da 3004 	ldr.w	r3, [sl, #4]
   85c16:	4640      	mov	r0, r8
   85c18:	f003 0301 	and.w	r3, r3, #1
   85c1c:	431e      	orrs	r6, r3
   85c1e:	f8ca 6004 	str.w	r6, [sl, #4]
   85c22:	f7ff fbcf 	bl	853c4 <__malloc_unlock>
   85c26:	e742      	b.n	85aae <_realloc_r+0xe6>
   85c28:	6823      	ldr	r3, [r4, #0]
   85c2a:	2a1b      	cmp	r2, #27
   85c2c:	6003      	str	r3, [r0, #0]
   85c2e:	6863      	ldr	r3, [r4, #4]
   85c30:	6043      	str	r3, [r0, #4]
   85c32:	d827      	bhi.n	85c84 <_realloc_r+0x2bc>
   85c34:	f100 0308 	add.w	r3, r0, #8
   85c38:	f104 0208 	add.w	r2, r4, #8
   85c3c:	e70b      	b.n	85a56 <_realloc_r+0x8e>
   85c3e:	4620      	mov	r0, r4
   85c40:	462a      	mov	r2, r5
   85c42:	6801      	ldr	r1, [r0, #0]
   85c44:	461f      	mov	r7, r3
   85c46:	6011      	str	r1, [r2, #0]
   85c48:	6841      	ldr	r1, [r0, #4]
   85c4a:	46d1      	mov	r9, sl
   85c4c:	6051      	str	r1, [r2, #4]
   85c4e:	6883      	ldr	r3, [r0, #8]
   85c50:	6093      	str	r3, [r2, #8]
   85c52:	e719      	b.n	85a88 <_realloc_r+0xc0>
   85c54:	ebab 0b06 	sub.w	fp, fp, r6
   85c58:	eb09 0106 	add.w	r1, r9, r6
   85c5c:	f04b 0201 	orr.w	r2, fp, #1
   85c60:	6099      	str	r1, [r3, #8]
   85c62:	604a      	str	r2, [r1, #4]
   85c64:	f854 3c04 	ldr.w	r3, [r4, #-4]
   85c68:	4640      	mov	r0, r8
   85c6a:	f003 0301 	and.w	r3, r3, #1
   85c6e:	431e      	orrs	r6, r3
   85c70:	f844 6c04 	str.w	r6, [r4, #-4]
   85c74:	f7ff fba6 	bl	853c4 <__malloc_unlock>
   85c78:	4625      	mov	r5, r4
   85c7a:	e718      	b.n	85aae <_realloc_r+0xe6>
   85c7c:	4621      	mov	r1, r4
   85c7e:	f7ff fb37 	bl	852f0 <memmove>
   85c82:	e6ee      	b.n	85a62 <_realloc_r+0x9a>
   85c84:	68a3      	ldr	r3, [r4, #8]
   85c86:	2a24      	cmp	r2, #36	; 0x24
   85c88:	6083      	str	r3, [r0, #8]
   85c8a:	68e3      	ldr	r3, [r4, #12]
   85c8c:	60c3      	str	r3, [r0, #12]
   85c8e:	d018      	beq.n	85cc2 <_realloc_r+0x2fa>
   85c90:	f100 0310 	add.w	r3, r0, #16
   85c94:	f104 0210 	add.w	r2, r4, #16
   85c98:	e6dd      	b.n	85a56 <_realloc_r+0x8e>
   85c9a:	f850 3c04 	ldr.w	r3, [r0, #-4]
   85c9e:	4625      	mov	r5, r4
   85ca0:	f023 0303 	bic.w	r3, r3, #3
   85ca4:	441f      	add	r7, r3
   85ca6:	e6ef      	b.n	85a88 <_realloc_r+0xc0>
   85ca8:	68a1      	ldr	r1, [r4, #8]
   85caa:	2a24      	cmp	r2, #36	; 0x24
   85cac:	f8ca 1010 	str.w	r1, [sl, #16]
   85cb0:	68e1      	ldr	r1, [r4, #12]
   85cb2:	f8ca 1014 	str.w	r1, [sl, #20]
   85cb6:	d00d      	beq.n	85cd4 <_realloc_r+0x30c>
   85cb8:	f104 0010 	add.w	r0, r4, #16
   85cbc:	f10a 0218 	add.w	r2, sl, #24
   85cc0:	e7bf      	b.n	85c42 <_realloc_r+0x27a>
   85cc2:	6922      	ldr	r2, [r4, #16]
   85cc4:	f100 0318 	add.w	r3, r0, #24
   85cc8:	6102      	str	r2, [r0, #16]
   85cca:	6961      	ldr	r1, [r4, #20]
   85ccc:	f104 0218 	add.w	r2, r4, #24
   85cd0:	6141      	str	r1, [r0, #20]
   85cd2:	e6c0      	b.n	85a56 <_realloc_r+0x8e>
   85cd4:	6922      	ldr	r2, [r4, #16]
   85cd6:	f104 0018 	add.w	r0, r4, #24
   85cda:	f8ca 2018 	str.w	r2, [sl, #24]
   85cde:	6961      	ldr	r1, [r4, #20]
   85ce0:	f10a 0220 	add.w	r2, sl, #32
   85ce4:	f8ca 101c 	str.w	r1, [sl, #28]
   85ce8:	e7ab      	b.n	85c42 <_realloc_r+0x27a>
   85cea:	4621      	mov	r1, r4
   85cec:	462a      	mov	r2, r5
   85cee:	e782      	b.n	85bf6 <_realloc_r+0x22e>
   85cf0:	4621      	mov	r1, r4
   85cf2:	4628      	mov	r0, r5
   85cf4:	9301      	str	r3, [sp, #4]
   85cf6:	f7ff fafb 	bl	852f0 <memmove>
   85cfa:	9b01      	ldr	r3, [sp, #4]
   85cfc:	e781      	b.n	85c02 <_realloc_r+0x23a>
   85cfe:	68a1      	ldr	r1, [r4, #8]
   85d00:	2a24      	cmp	r2, #36	; 0x24
   85d02:	f8ca 1010 	str.w	r1, [sl, #16]
   85d06:	68e1      	ldr	r1, [r4, #12]
   85d08:	f8ca 1014 	str.w	r1, [sl, #20]
   85d0c:	d006      	beq.n	85d1c <_realloc_r+0x354>
   85d0e:	f104 0110 	add.w	r1, r4, #16
   85d12:	f10a 0218 	add.w	r2, sl, #24
   85d16:	e76e      	b.n	85bf6 <_realloc_r+0x22e>
   85d18:	2000043c 	.word	0x2000043c
   85d1c:	6922      	ldr	r2, [r4, #16]
   85d1e:	f104 0118 	add.w	r1, r4, #24
   85d22:	f8ca 2018 	str.w	r2, [sl, #24]
   85d26:	6960      	ldr	r0, [r4, #20]
   85d28:	f10a 0220 	add.w	r2, sl, #32
   85d2c:	f8ca 001c 	str.w	r0, [sl, #28]
   85d30:	e761      	b.n	85bf6 <_realloc_r+0x22e>
   85d32:	bf00      	nop

00085d34 <_sbrk_r>:
   85d34:	b538      	push	{r3, r4, r5, lr}
   85d36:	2300      	movs	r3, #0
   85d38:	4c06      	ldr	r4, [pc, #24]	; (85d54 <_sbrk_r+0x20>)
   85d3a:	4605      	mov	r5, r0
   85d3c:	4608      	mov	r0, r1
   85d3e:	6023      	str	r3, [r4, #0]
   85d40:	f7fa ff0c 	bl	80b5c <_sbrk>
   85d44:	1c43      	adds	r3, r0, #1
   85d46:	d000      	beq.n	85d4a <_sbrk_r+0x16>
   85d48:	bd38      	pop	{r3, r4, r5, pc}
   85d4a:	6823      	ldr	r3, [r4, #0]
   85d4c:	2b00      	cmp	r3, #0
   85d4e:	d0fb      	beq.n	85d48 <_sbrk_r+0x14>
   85d50:	602b      	str	r3, [r5, #0]
   85d52:	bd38      	pop	{r3, r4, r5, pc}
   85d54:	20000e6c 	.word	0x20000e6c

00085d58 <__sread>:
   85d58:	b510      	push	{r4, lr}
   85d5a:	460c      	mov	r4, r1
   85d5c:	f9b1 100e 	ldrsh.w	r1, [r1, #14]
   85d60:	f000 fa84 	bl	8626c <_read_r>
   85d64:	2800      	cmp	r0, #0
   85d66:	db03      	blt.n	85d70 <__sread+0x18>
   85d68:	6d23      	ldr	r3, [r4, #80]	; 0x50
   85d6a:	4403      	add	r3, r0
   85d6c:	6523      	str	r3, [r4, #80]	; 0x50
   85d6e:	bd10      	pop	{r4, pc}
   85d70:	89a3      	ldrh	r3, [r4, #12]
   85d72:	f423 5380 	bic.w	r3, r3, #4096	; 0x1000
   85d76:	81a3      	strh	r3, [r4, #12]
   85d78:	bd10      	pop	{r4, pc}
   85d7a:	bf00      	nop

00085d7c <__swrite>:
   85d7c:	e92d 41f0 	stmdb	sp!, {r4, r5, r6, r7, r8, lr}
   85d80:	460c      	mov	r4, r1
   85d82:	f9b1 100c 	ldrsh.w	r1, [r1, #12]
   85d86:	461f      	mov	r7, r3
   85d88:	05cb      	lsls	r3, r1, #23
   85d8a:	4616      	mov	r6, r2
   85d8c:	4605      	mov	r5, r0
   85d8e:	d507      	bpl.n	85da0 <__swrite+0x24>
   85d90:	f9b4 100e 	ldrsh.w	r1, [r4, #14]
   85d94:	2302      	movs	r3, #2
   85d96:	2200      	movs	r2, #0
   85d98:	f000 fa3c 	bl	86214 <_lseek_r>
   85d9c:	f9b4 100c 	ldrsh.w	r1, [r4, #12]
   85da0:	f421 5180 	bic.w	r1, r1, #4096	; 0x1000
   85da4:	81a1      	strh	r1, [r4, #12]
   85da6:	463b      	mov	r3, r7
   85da8:	4632      	mov	r2, r6
   85daa:	f9b4 100e 	ldrsh.w	r1, [r4, #14]
   85dae:	4628      	mov	r0, r5
   85db0:	e8bd 41f0 	ldmia.w	sp!, {r4, r5, r6, r7, r8, lr}
   85db4:	f000 b85e 	b.w	85e74 <_write_r>

00085db8 <__sseek>:
   85db8:	b510      	push	{r4, lr}
   85dba:	460c      	mov	r4, r1
   85dbc:	f9b1 100e 	ldrsh.w	r1, [r1, #14]
   85dc0:	f000 fa28 	bl	86214 <_lseek_r>
   85dc4:	89a3      	ldrh	r3, [r4, #12]
   85dc6:	1c42      	adds	r2, r0, #1
   85dc8:	bf0e      	itee	eq
   85dca:	f423 5380 	biceq.w	r3, r3, #4096	; 0x1000
   85dce:	f443 5380 	orrne.w	r3, r3, #4096	; 0x1000
   85dd2:	6520      	strne	r0, [r4, #80]	; 0x50
   85dd4:	81a3      	strh	r3, [r4, #12]
   85dd6:	bd10      	pop	{r4, pc}

00085dd8 <__sclose>:
   85dd8:	f9b1 100e 	ldrsh.w	r1, [r1, #14]
   85ddc:	f000 b8f2 	b.w	85fc4 <_close_r>

00085de0 <__sprint_r.part.0>:
   85de0:	e92d 4ff8 	stmdb	sp!, {r3, r4, r5, r6, r7, r8, r9, sl, fp, lr}
   85de4:	6e4b      	ldr	r3, [r1, #100]	; 0x64
   85de6:	4693      	mov	fp, r2
   85de8:	049c      	lsls	r4, r3, #18
   85dea:	d52f      	bpl.n	85e4c <__sprint_r.part.0+0x6c>
   85dec:	6893      	ldr	r3, [r2, #8]
   85dee:	6812      	ldr	r2, [r2, #0]
   85df0:	b353      	cbz	r3, 85e48 <__sprint_r.part.0+0x68>
   85df2:	460e      	mov	r6, r1
   85df4:	4607      	mov	r7, r0
   85df6:	f102 0908 	add.w	r9, r2, #8
   85dfa:	e919 0420 	ldmdb	r9, {r5, sl}
   85dfe:	ea5f 089a 	movs.w	r8, sl, lsr #2
   85e02:	d017      	beq.n	85e34 <__sprint_r.part.0+0x54>
   85e04:	2400      	movs	r4, #0
   85e06:	3d04      	subs	r5, #4
   85e08:	e001      	b.n	85e0e <__sprint_r.part.0+0x2e>
   85e0a:	45a0      	cmp	r8, r4
   85e0c:	d010      	beq.n	85e30 <__sprint_r.part.0+0x50>
   85e0e:	4632      	mov	r2, r6
   85e10:	f855 1f04 	ldr.w	r1, [r5, #4]!
   85e14:	4638      	mov	r0, r7
   85e16:	f000 f995 	bl	86144 <_fputwc_r>
   85e1a:	1c43      	adds	r3, r0, #1
   85e1c:	f104 0401 	add.w	r4, r4, #1
   85e20:	d1f3      	bne.n	85e0a <__sprint_r.part.0+0x2a>
   85e22:	2300      	movs	r3, #0
   85e24:	f8cb 3008 	str.w	r3, [fp, #8]
   85e28:	f8cb 3004 	str.w	r3, [fp, #4]
   85e2c:	e8bd 8ff8 	ldmia.w	sp!, {r3, r4, r5, r6, r7, r8, r9, sl, fp, pc}
   85e30:	f8db 3008 	ldr.w	r3, [fp, #8]
   85e34:	f02a 0a03 	bic.w	sl, sl, #3
   85e38:	eba3 030a 	sub.w	r3, r3, sl
   85e3c:	f8cb 3008 	str.w	r3, [fp, #8]
   85e40:	f109 0908 	add.w	r9, r9, #8
   85e44:	2b00      	cmp	r3, #0
   85e46:	d1d8      	bne.n	85dfa <__sprint_r.part.0+0x1a>
   85e48:	2000      	movs	r0, #0
   85e4a:	e7ea      	b.n	85e22 <__sprint_r.part.0+0x42>
   85e4c:	f7fe fcc2 	bl	847d4 <__sfvwrite_r>
   85e50:	2300      	movs	r3, #0
   85e52:	f8cb 3008 	str.w	r3, [fp, #8]
   85e56:	f8cb 3004 	str.w	r3, [fp, #4]
   85e5a:	e8bd 8ff8 	ldmia.w	sp!, {r3, r4, r5, r6, r7, r8, r9, sl, fp, pc}
   85e5e:	bf00      	nop

00085e60 <__sprint_r>:
   85e60:	6893      	ldr	r3, [r2, #8]
   85e62:	b10b      	cbz	r3, 85e68 <__sprint_r+0x8>
   85e64:	f7ff bfbc 	b.w	85de0 <__sprint_r.part.0>
   85e68:	b410      	push	{r4}
   85e6a:	4618      	mov	r0, r3
   85e6c:	6053      	str	r3, [r2, #4]
   85e6e:	bc10      	pop	{r4}
   85e70:	4770      	bx	lr
   85e72:	bf00      	nop

00085e74 <_write_r>:
   85e74:	b5f8      	push	{r3, r4, r5, r6, r7, lr}
   85e76:	460e      	mov	r6, r1
   85e78:	2500      	movs	r5, #0
   85e7a:	4c08      	ldr	r4, [pc, #32]	; (85e9c <_write_r+0x28>)
   85e7c:	4611      	mov	r1, r2
   85e7e:	4607      	mov	r7, r0
   85e80:	461a      	mov	r2, r3
   85e82:	4630      	mov	r0, r6
   85e84:	6025      	str	r5, [r4, #0]
   85e86:	f7fa fe8b 	bl	80ba0 <_write>
   85e8a:	1c43      	adds	r3, r0, #1
   85e8c:	d000      	beq.n	85e90 <_write_r+0x1c>
   85e8e:	bdf8      	pop	{r3, r4, r5, r6, r7, pc}
   85e90:	6823      	ldr	r3, [r4, #0]
   85e92:	2b00      	cmp	r3, #0
   85e94:	d0fb      	beq.n	85e8e <_write_r+0x1a>
   85e96:	603b      	str	r3, [r7, #0]
   85e98:	bdf8      	pop	{r3, r4, r5, r6, r7, pc}
   85e9a:	bf00      	nop
   85e9c:	20000e6c 	.word	0x20000e6c

00085ea0 <__register_exitproc>:
   85ea0:	e92d 43f8 	stmdb	sp!, {r3, r4, r5, r6, r7, r8, r9, lr}
   85ea4:	4d2c      	ldr	r5, [pc, #176]	; (85f58 <__register_exitproc+0xb8>)
   85ea6:	4606      	mov	r6, r0
   85ea8:	6828      	ldr	r0, [r5, #0]
   85eaa:	4698      	mov	r8, r3
   85eac:	460f      	mov	r7, r1
   85eae:	4691      	mov	r9, r2
   85eb0:	f7fe fe44 	bl	84b3c <__retarget_lock_acquire_recursive>
   85eb4:	4b29      	ldr	r3, [pc, #164]	; (85f5c <__register_exitproc+0xbc>)
   85eb6:	681c      	ldr	r4, [r3, #0]
   85eb8:	f8d4 3148 	ldr.w	r3, [r4, #328]	; 0x148
   85ebc:	2b00      	cmp	r3, #0
   85ebe:	d03e      	beq.n	85f3e <__register_exitproc+0x9e>
   85ec0:	685a      	ldr	r2, [r3, #4]
   85ec2:	2a1f      	cmp	r2, #31
   85ec4:	dc1c      	bgt.n	85f00 <__register_exitproc+0x60>
   85ec6:	f102 0e01 	add.w	lr, r2, #1
   85eca:	b176      	cbz	r6, 85eea <__register_exitproc+0x4a>
   85ecc:	2101      	movs	r1, #1
   85ece:	eb03 0482 	add.w	r4, r3, r2, lsl #2
   85ed2:	f8c4 9088 	str.w	r9, [r4, #136]	; 0x88
   85ed6:	f8d3 0188 	ldr.w	r0, [r3, #392]	; 0x188
   85eda:	4091      	lsls	r1, r2
   85edc:	4308      	orrs	r0, r1
   85ede:	2e02      	cmp	r6, #2
   85ee0:	f8c3 0188 	str.w	r0, [r3, #392]	; 0x188
   85ee4:	f8c4 8108 	str.w	r8, [r4, #264]	; 0x108
   85ee8:	d023      	beq.n	85f32 <__register_exitproc+0x92>
   85eea:	3202      	adds	r2, #2
   85eec:	f8c3 e004 	str.w	lr, [r3, #4]
   85ef0:	6828      	ldr	r0, [r5, #0]
   85ef2:	f843 7022 	str.w	r7, [r3, r2, lsl #2]
   85ef6:	f7fe fe23 	bl	84b40 <__retarget_lock_release_recursive>
   85efa:	2000      	movs	r0, #0
   85efc:	e8bd 83f8 	ldmia.w	sp!, {r3, r4, r5, r6, r7, r8, r9, pc}
   85f00:	4b17      	ldr	r3, [pc, #92]	; (85f60 <__register_exitproc+0xc0>)
   85f02:	b30b      	cbz	r3, 85f48 <__register_exitproc+0xa8>
   85f04:	f44f 70c8 	mov.w	r0, #400	; 0x190
   85f08:	f3af 8000 	nop.w
   85f0c:	4603      	mov	r3, r0
   85f0e:	b1d8      	cbz	r0, 85f48 <__register_exitproc+0xa8>
   85f10:	2000      	movs	r0, #0
   85f12:	f8d4 1148 	ldr.w	r1, [r4, #328]	; 0x148
   85f16:	f04f 0e01 	mov.w	lr, #1
   85f1a:	6058      	str	r0, [r3, #4]
   85f1c:	6019      	str	r1, [r3, #0]
   85f1e:	4602      	mov	r2, r0
   85f20:	f8c4 3148 	str.w	r3, [r4, #328]	; 0x148
   85f24:	f8c3 0188 	str.w	r0, [r3, #392]	; 0x188
   85f28:	f8c3 018c 	str.w	r0, [r3, #396]	; 0x18c
   85f2c:	2e00      	cmp	r6, #0
   85f2e:	d0dc      	beq.n	85eea <__register_exitproc+0x4a>
   85f30:	e7cc      	b.n	85ecc <__register_exitproc+0x2c>
   85f32:	f8d3 018c 	ldr.w	r0, [r3, #396]	; 0x18c
   85f36:	4301      	orrs	r1, r0
   85f38:	f8c3 118c 	str.w	r1, [r3, #396]	; 0x18c
   85f3c:	e7d5      	b.n	85eea <__register_exitproc+0x4a>
   85f3e:	f504 73a6 	add.w	r3, r4, #332	; 0x14c
   85f42:	f8c4 3148 	str.w	r3, [r4, #328]	; 0x148
   85f46:	e7bb      	b.n	85ec0 <__register_exitproc+0x20>
   85f48:	6828      	ldr	r0, [r5, #0]
   85f4a:	f7fe fdf9 	bl	84b40 <__retarget_lock_release_recursive>
   85f4e:	f04f 30ff 	mov.w	r0, #4294967295
   85f52:	e8bd 83f8 	ldmia.w	sp!, {r3, r4, r5, r6, r7, r8, r9, pc}
   85f56:	bf00      	nop
   85f58:	20000438 	.word	0x20000438
   85f5c:	0008645c 	.word	0x0008645c
   85f60:	00000000 	.word	0x00000000

00085f64 <_calloc_r>:
   85f64:	b510      	push	{r4, lr}
   85f66:	fb02 f101 	mul.w	r1, r2, r1
   85f6a:	f7fe fe63 	bl	84c34 <_malloc_r>
   85f6e:	4604      	mov	r4, r0
   85f70:	b1d8      	cbz	r0, 85faa <_calloc_r+0x46>
   85f72:	f850 2c04 	ldr.w	r2, [r0, #-4]
   85f76:	f022 0203 	bic.w	r2, r2, #3
   85f7a:	3a04      	subs	r2, #4
   85f7c:	2a24      	cmp	r2, #36	; 0x24
   85f7e:	d818      	bhi.n	85fb2 <_calloc_r+0x4e>
   85f80:	2a13      	cmp	r2, #19
   85f82:	d914      	bls.n	85fae <_calloc_r+0x4a>
   85f84:	2300      	movs	r3, #0
   85f86:	2a1b      	cmp	r2, #27
   85f88:	6003      	str	r3, [r0, #0]
   85f8a:	6043      	str	r3, [r0, #4]
   85f8c:	d916      	bls.n	85fbc <_calloc_r+0x58>
   85f8e:	2a24      	cmp	r2, #36	; 0x24
   85f90:	6083      	str	r3, [r0, #8]
   85f92:	60c3      	str	r3, [r0, #12]
   85f94:	bf11      	iteee	ne
   85f96:	f100 0210 	addne.w	r2, r0, #16
   85f9a:	6103      	streq	r3, [r0, #16]
   85f9c:	6143      	streq	r3, [r0, #20]
   85f9e:	f100 0218 	addeq.w	r2, r0, #24
   85fa2:	2300      	movs	r3, #0
   85fa4:	6013      	str	r3, [r2, #0]
   85fa6:	6053      	str	r3, [r2, #4]
   85fa8:	6093      	str	r3, [r2, #8]
   85faa:	4620      	mov	r0, r4
   85fac:	bd10      	pop	{r4, pc}
   85fae:	4602      	mov	r2, r0
   85fb0:	e7f7      	b.n	85fa2 <_calloc_r+0x3e>
   85fb2:	2100      	movs	r1, #0
   85fb4:	f7fb fd44 	bl	81a40 <memset>
   85fb8:	4620      	mov	r0, r4
   85fba:	bd10      	pop	{r4, pc}
   85fbc:	f100 0208 	add.w	r2, r0, #8
   85fc0:	e7ef      	b.n	85fa2 <_calloc_r+0x3e>
   85fc2:	bf00      	nop

00085fc4 <_close_r>:
   85fc4:	b538      	push	{r3, r4, r5, lr}
   85fc6:	2300      	movs	r3, #0
   85fc8:	4c06      	ldr	r4, [pc, #24]	; (85fe4 <_close_r+0x20>)
   85fca:	4605      	mov	r5, r0
   85fcc:	4608      	mov	r0, r1
   85fce:	6023      	str	r3, [r4, #0]
   85fd0:	f7fa fdda 	bl	80b88 <_close>
   85fd4:	1c43      	adds	r3, r0, #1
   85fd6:	d000      	beq.n	85fda <_close_r+0x16>
   85fd8:	bd38      	pop	{r3, r4, r5, pc}
   85fda:	6823      	ldr	r3, [r4, #0]
   85fdc:	2b00      	cmp	r3, #0
   85fde:	d0fb      	beq.n	85fd8 <_close_r+0x14>
   85fe0:	602b      	str	r3, [r5, #0]
   85fe2:	bd38      	pop	{r3, r4, r5, pc}
   85fe4:	20000e6c 	.word	0x20000e6c

00085fe8 <_fclose_r>:
   85fe8:	b570      	push	{r4, r5, r6, lr}
   85fea:	b159      	cbz	r1, 86004 <_fclose_r+0x1c>
   85fec:	4605      	mov	r5, r0
   85fee:	460c      	mov	r4, r1
   85ff0:	b110      	cbz	r0, 85ff8 <_fclose_r+0x10>
   85ff2:	6b83      	ldr	r3, [r0, #56]	; 0x38
   85ff4:	2b00      	cmp	r3, #0
   85ff6:	d03c      	beq.n	86072 <_fclose_r+0x8a>
   85ff8:	6e63      	ldr	r3, [r4, #100]	; 0x64
   85ffa:	07d8      	lsls	r0, r3, #31
   85ffc:	d505      	bpl.n	8600a <_fclose_r+0x22>
   85ffe:	f9b4 300c 	ldrsh.w	r3, [r4, #12]
   86002:	b92b      	cbnz	r3, 86010 <_fclose_r+0x28>
   86004:	2600      	movs	r6, #0
   86006:	4630      	mov	r0, r6
   86008:	bd70      	pop	{r4, r5, r6, pc}
   8600a:	89a3      	ldrh	r3, [r4, #12]
   8600c:	0599      	lsls	r1, r3, #22
   8600e:	d53c      	bpl.n	8608a <_fclose_r+0xa2>
   86010:	4621      	mov	r1, r4
   86012:	4628      	mov	r0, r5
   86014:	f7fe f95e 	bl	842d4 <__sflush_r>
   86018:	6ae3      	ldr	r3, [r4, #44]	; 0x2c
   8601a:	4606      	mov	r6, r0
   8601c:	b133      	cbz	r3, 8602c <_fclose_r+0x44>
   8601e:	69e1      	ldr	r1, [r4, #28]
   86020:	4628      	mov	r0, r5
   86022:	4798      	blx	r3
   86024:	2800      	cmp	r0, #0
   86026:	bfb8      	it	lt
   86028:	f04f 36ff 	movlt.w	r6, #4294967295
   8602c:	89a3      	ldrh	r3, [r4, #12]
   8602e:	061a      	lsls	r2, r3, #24
   86030:	d422      	bmi.n	86078 <_fclose_r+0x90>
   86032:	6b21      	ldr	r1, [r4, #48]	; 0x30
   86034:	b141      	cbz	r1, 86048 <_fclose_r+0x60>
   86036:	f104 0340 	add.w	r3, r4, #64	; 0x40
   8603a:	4299      	cmp	r1, r3
   8603c:	d002      	beq.n	86044 <_fclose_r+0x5c>
   8603e:	4628      	mov	r0, r5
   86040:	f7fe fae2 	bl	84608 <_free_r>
   86044:	2300      	movs	r3, #0
   86046:	6323      	str	r3, [r4, #48]	; 0x30
   86048:	6c61      	ldr	r1, [r4, #68]	; 0x44
   8604a:	b121      	cbz	r1, 86056 <_fclose_r+0x6e>
   8604c:	4628      	mov	r0, r5
   8604e:	f7fe fadb 	bl	84608 <_free_r>
   86052:	2300      	movs	r3, #0
   86054:	6463      	str	r3, [r4, #68]	; 0x44
   86056:	f7fe fa61 	bl	8451c <__sfp_lock_acquire>
   8605a:	2200      	movs	r2, #0
   8605c:	6e63      	ldr	r3, [r4, #100]	; 0x64
   8605e:	81a2      	strh	r2, [r4, #12]
   86060:	07db      	lsls	r3, r3, #31
   86062:	d50e      	bpl.n	86082 <_fclose_r+0x9a>
   86064:	6da0      	ldr	r0, [r4, #88]	; 0x58
   86066:	f7fe fd67 	bl	84b38 <__retarget_lock_close_recursive>
   8606a:	f7fe fa5d 	bl	84528 <__sfp_lock_release>
   8606e:	4630      	mov	r0, r6
   86070:	bd70      	pop	{r4, r5, r6, pc}
   86072:	f7fe fa23 	bl	844bc <__sinit>
   86076:	e7bf      	b.n	85ff8 <_fclose_r+0x10>
   86078:	6921      	ldr	r1, [r4, #16]
   8607a:	4628      	mov	r0, r5
   8607c:	f7fe fac4 	bl	84608 <_free_r>
   86080:	e7d7      	b.n	86032 <_fclose_r+0x4a>
   86082:	6da0      	ldr	r0, [r4, #88]	; 0x58
   86084:	f7fe fd5c 	bl	84b40 <__retarget_lock_release_recursive>
   86088:	e7ec      	b.n	86064 <_fclose_r+0x7c>
   8608a:	6da0      	ldr	r0, [r4, #88]	; 0x58
   8608c:	f7fe fd56 	bl	84b3c <__retarget_lock_acquire_recursive>
   86090:	f9b4 300c 	ldrsh.w	r3, [r4, #12]
   86094:	2b00      	cmp	r3, #0
   86096:	d1bb      	bne.n	86010 <_fclose_r+0x28>
   86098:	6e66      	ldr	r6, [r4, #100]	; 0x64
   8609a:	f016 0601 	ands.w	r6, r6, #1
   8609e:	d1b1      	bne.n	86004 <_fclose_r+0x1c>
   860a0:	6da0      	ldr	r0, [r4, #88]	; 0x58
   860a2:	f7fe fd4d 	bl	84b40 <__retarget_lock_release_recursive>
   860a6:	4630      	mov	r0, r6
   860a8:	bd70      	pop	{r4, r5, r6, pc}
   860aa:	bf00      	nop

000860ac <__fputwc>:
   860ac:	e92d 43f0 	stmdb	sp!, {r4, r5, r6, r7, r8, r9, lr}
   860b0:	b083      	sub	sp, #12
   860b2:	4607      	mov	r7, r0
   860b4:	4688      	mov	r8, r1
   860b6:	4614      	mov	r4, r2
   860b8:	f000 f89e 	bl	861f8 <__locale_mb_cur_max>
   860bc:	2801      	cmp	r0, #1
   860be:	d033      	beq.n	86128 <__fputwc+0x7c>
   860c0:	4642      	mov	r2, r8
   860c2:	f104 035c 	add.w	r3, r4, #92	; 0x5c
   860c6:	a901      	add	r1, sp, #4
   860c8:	4638      	mov	r0, r7
   860ca:	f000 f93d 	bl	86348 <_wcrtomb_r>
   860ce:	1c42      	adds	r2, r0, #1
   860d0:	4606      	mov	r6, r0
   860d2:	d022      	beq.n	8611a <__fputwc+0x6e>
   860d4:	b390      	cbz	r0, 8613c <__fputwc+0x90>
   860d6:	f89d 1004 	ldrb.w	r1, [sp, #4]
   860da:	2500      	movs	r5, #0
   860dc:	f10d 0904 	add.w	r9, sp, #4
   860e0:	e008      	b.n	860f4 <__fputwc+0x48>
   860e2:	6823      	ldr	r3, [r4, #0]
   860e4:	1c5a      	adds	r2, r3, #1
   860e6:	6022      	str	r2, [r4, #0]
   860e8:	7019      	strb	r1, [r3, #0]
   860ea:	3501      	adds	r5, #1
   860ec:	42b5      	cmp	r5, r6
   860ee:	d225      	bcs.n	8613c <__fputwc+0x90>
   860f0:	f815 1009 	ldrb.w	r1, [r5, r9]
   860f4:	68a3      	ldr	r3, [r4, #8]
   860f6:	3b01      	subs	r3, #1
   860f8:	2b00      	cmp	r3, #0
   860fa:	60a3      	str	r3, [r4, #8]
   860fc:	daf1      	bge.n	860e2 <__fputwc+0x36>
   860fe:	69a2      	ldr	r2, [r4, #24]
   86100:	4293      	cmp	r3, r2
   86102:	db01      	blt.n	86108 <__fputwc+0x5c>
   86104:	290a      	cmp	r1, #10
   86106:	d1ec      	bne.n	860e2 <__fputwc+0x36>
   86108:	4622      	mov	r2, r4
   8610a:	4638      	mov	r0, r7
   8610c:	f000 f8c4 	bl	86298 <__swbuf_r>
   86110:	1c43      	adds	r3, r0, #1
   86112:	d1ea      	bne.n	860ea <__fputwc+0x3e>
   86114:	b003      	add	sp, #12
   86116:	e8bd 83f0 	ldmia.w	sp!, {r4, r5, r6, r7, r8, r9, pc}
   8611a:	89a3      	ldrh	r3, [r4, #12]
   8611c:	f043 0340 	orr.w	r3, r3, #64	; 0x40
   86120:	81a3      	strh	r3, [r4, #12]
   86122:	b003      	add	sp, #12
   86124:	e8bd 83f0 	ldmia.w	sp!, {r4, r5, r6, r7, r8, r9, pc}
   86128:	f108 33ff 	add.w	r3, r8, #4294967295
   8612c:	2bfe      	cmp	r3, #254	; 0xfe
   8612e:	d8c7      	bhi.n	860c0 <__fputwc+0x14>
   86130:	fa5f f188 	uxtb.w	r1, r8
   86134:	4606      	mov	r6, r0
   86136:	f88d 1004 	strb.w	r1, [sp, #4]
   8613a:	e7ce      	b.n	860da <__fputwc+0x2e>
   8613c:	4640      	mov	r0, r8
   8613e:	b003      	add	sp, #12
   86140:	e8bd 83f0 	ldmia.w	sp!, {r4, r5, r6, r7, r8, r9, pc}

00086144 <_fputwc_r>:
   86144:	b530      	push	{r4, r5, lr}
   86146:	6e53      	ldr	r3, [r2, #100]	; 0x64
   86148:	4614      	mov	r4, r2
   8614a:	f013 0f01 	tst.w	r3, #1
   8614e:	f9b2 300c 	ldrsh.w	r3, [r2, #12]
   86152:	b083      	sub	sp, #12
   86154:	4605      	mov	r5, r0
   86156:	b29a      	uxth	r2, r3
   86158:	d101      	bne.n	8615e <_fputwc_r+0x1a>
   8615a:	0590      	lsls	r0, r2, #22
   8615c:	d51c      	bpl.n	86198 <_fputwc_r+0x54>
   8615e:	0490      	lsls	r0, r2, #18
   86160:	d406      	bmi.n	86170 <_fputwc_r+0x2c>
   86162:	6e62      	ldr	r2, [r4, #100]	; 0x64
   86164:	f443 5300 	orr.w	r3, r3, #8192	; 0x2000
   86168:	f442 5200 	orr.w	r2, r2, #8192	; 0x2000
   8616c:	81a3      	strh	r3, [r4, #12]
   8616e:	6662      	str	r2, [r4, #100]	; 0x64
   86170:	4628      	mov	r0, r5
   86172:	4622      	mov	r2, r4
   86174:	f7ff ff9a 	bl	860ac <__fputwc>
   86178:	6e63      	ldr	r3, [r4, #100]	; 0x64
   8617a:	4605      	mov	r5, r0
   8617c:	07da      	lsls	r2, r3, #31
   8617e:	d402      	bmi.n	86186 <_fputwc_r+0x42>
   86180:	89a3      	ldrh	r3, [r4, #12]
   86182:	059b      	lsls	r3, r3, #22
   86184:	d502      	bpl.n	8618c <_fputwc_r+0x48>
   86186:	4628      	mov	r0, r5
   86188:	b003      	add	sp, #12
   8618a:	bd30      	pop	{r4, r5, pc}
   8618c:	6da0      	ldr	r0, [r4, #88]	; 0x58
   8618e:	f7fe fcd7 	bl	84b40 <__retarget_lock_release_recursive>
   86192:	4628      	mov	r0, r5
   86194:	b003      	add	sp, #12
   86196:	bd30      	pop	{r4, r5, pc}
   86198:	6da0      	ldr	r0, [r4, #88]	; 0x58
   8619a:	9101      	str	r1, [sp, #4]
   8619c:	f7fe fcce 	bl	84b3c <__retarget_lock_acquire_recursive>
   861a0:	f9b4 300c 	ldrsh.w	r3, [r4, #12]
   861a4:	9901      	ldr	r1, [sp, #4]
   861a6:	b29a      	uxth	r2, r3
   861a8:	e7d9      	b.n	8615e <_fputwc_r+0x1a>
   861aa:	bf00      	nop

000861ac <_fstat_r>:
   861ac:	b570      	push	{r4, r5, r6, lr}
   861ae:	460d      	mov	r5, r1
   861b0:	2300      	movs	r3, #0
   861b2:	4c07      	ldr	r4, [pc, #28]	; (861d0 <_fstat_r+0x24>)
   861b4:	4606      	mov	r6, r0
   861b6:	4611      	mov	r1, r2
   861b8:	4628      	mov	r0, r5
   861ba:	6023      	str	r3, [r4, #0]
   861bc:	f7fa fce7 	bl	80b8e <_fstat>
   861c0:	1c43      	adds	r3, r0, #1
   861c2:	d000      	beq.n	861c6 <_fstat_r+0x1a>
   861c4:	bd70      	pop	{r4, r5, r6, pc}
   861c6:	6823      	ldr	r3, [r4, #0]
   861c8:	2b00      	cmp	r3, #0
   861ca:	d0fb      	beq.n	861c4 <_fstat_r+0x18>
   861cc:	6033      	str	r3, [r6, #0]
   861ce:	bd70      	pop	{r4, r5, r6, pc}
   861d0:	20000e6c 	.word	0x20000e6c

000861d4 <_isatty_r>:
   861d4:	b538      	push	{r3, r4, r5, lr}
   861d6:	2300      	movs	r3, #0
   861d8:	4c06      	ldr	r4, [pc, #24]	; (861f4 <_isatty_r+0x20>)
   861da:	4605      	mov	r5, r0
   861dc:	4608      	mov	r0, r1
   861de:	6023      	str	r3, [r4, #0]
   861e0:	f7fa fcda 	bl	80b98 <_isatty>
   861e4:	1c43      	adds	r3, r0, #1
   861e6:	d000      	beq.n	861ea <_isatty_r+0x16>
   861e8:	bd38      	pop	{r3, r4, r5, pc}
   861ea:	6823      	ldr	r3, [r4, #0]
   861ec:	2b00      	cmp	r3, #0
   861ee:	d0fb      	beq.n	861e8 <_isatty_r+0x14>
   861f0:	602b      	str	r3, [r5, #0]
   861f2:	bd38      	pop	{r3, r4, r5, pc}
   861f4:	20000e6c 	.word	0x20000e6c

000861f8 <__locale_mb_cur_max>:
   861f8:	4b04      	ldr	r3, [pc, #16]	; (8620c <__locale_mb_cur_max+0x14>)
   861fa:	4a05      	ldr	r2, [pc, #20]	; (86210 <__locale_mb_cur_max+0x18>)
   861fc:	681b      	ldr	r3, [r3, #0]
   861fe:	6b5b      	ldr	r3, [r3, #52]	; 0x34
   86200:	2b00      	cmp	r3, #0
   86202:	bf08      	it	eq
   86204:	4613      	moveq	r3, r2
   86206:	f893 0128 	ldrb.w	r0, [r3, #296]	; 0x128
   8620a:	4770      	bx	lr
   8620c:	2000000c 	.word	0x2000000c
   86210:	2000084c 	.word	0x2000084c

00086214 <_lseek_r>:
   86214:	b5f8      	push	{r3, r4, r5, r6, r7, lr}
   86216:	460e      	mov	r6, r1
   86218:	2500      	movs	r5, #0
   8621a:	4c08      	ldr	r4, [pc, #32]	; (8623c <_lseek_r+0x28>)
   8621c:	4611      	mov	r1, r2
   8621e:	4607      	mov	r7, r0
   86220:	461a      	mov	r2, r3
   86222:	4630      	mov	r0, r6
   86224:	6025      	str	r5, [r4, #0]
   86226:	f7fa fcb9 	bl	80b9c <_lseek>
   8622a:	1c43      	adds	r3, r0, #1
   8622c:	d000      	beq.n	86230 <_lseek_r+0x1c>
   8622e:	bdf8      	pop	{r3, r4, r5, r6, r7, pc}
   86230:	6823      	ldr	r3, [r4, #0]
   86232:	2b00      	cmp	r3, #0
   86234:	d0fb      	beq.n	8622e <_lseek_r+0x1a>
   86236:	603b      	str	r3, [r7, #0]
   86238:	bdf8      	pop	{r3, r4, r5, r6, r7, pc}
   8623a:	bf00      	nop
   8623c:	20000e6c 	.word	0x20000e6c

00086240 <__ascii_mbtowc>:
   86240:	b082      	sub	sp, #8
   86242:	b149      	cbz	r1, 86258 <__ascii_mbtowc+0x18>
   86244:	b15a      	cbz	r2, 8625e <__ascii_mbtowc+0x1e>
   86246:	b16b      	cbz	r3, 86264 <__ascii_mbtowc+0x24>
   86248:	7813      	ldrb	r3, [r2, #0]
   8624a:	600b      	str	r3, [r1, #0]
   8624c:	7812      	ldrb	r2, [r2, #0]
   8624e:	1c10      	adds	r0, r2, #0
   86250:	bf18      	it	ne
   86252:	2001      	movne	r0, #1
   86254:	b002      	add	sp, #8
   86256:	4770      	bx	lr
   86258:	a901      	add	r1, sp, #4
   8625a:	2a00      	cmp	r2, #0
   8625c:	d1f3      	bne.n	86246 <__ascii_mbtowc+0x6>
   8625e:	4610      	mov	r0, r2
   86260:	b002      	add	sp, #8
   86262:	4770      	bx	lr
   86264:	f06f 0001 	mvn.w	r0, #1
   86268:	e7f4      	b.n	86254 <__ascii_mbtowc+0x14>
   8626a:	bf00      	nop

0008626c <_read_r>:
   8626c:	b5f8      	push	{r3, r4, r5, r6, r7, lr}
   8626e:	460e      	mov	r6, r1
   86270:	2500      	movs	r5, #0
   86272:	4c08      	ldr	r4, [pc, #32]	; (86294 <_read_r+0x28>)
   86274:	4611      	mov	r1, r2
   86276:	4607      	mov	r7, r0
   86278:	461a      	mov	r2, r3
   8627a:	4630      	mov	r0, r6
   8627c:	6025      	str	r5, [r4, #0]
   8627e:	f7fa fca3 	bl	80bc8 <_read>
   86282:	1c43      	adds	r3, r0, #1
   86284:	d000      	beq.n	86288 <_read_r+0x1c>
   86286:	bdf8      	pop	{r3, r4, r5, r6, r7, pc}
   86288:	6823      	ldr	r3, [r4, #0]
   8628a:	2b00      	cmp	r3, #0
   8628c:	d0fb      	beq.n	86286 <_read_r+0x1a>
   8628e:	603b      	str	r3, [r7, #0]
   86290:	bdf8      	pop	{r3, r4, r5, r6, r7, pc}
   86292:	bf00      	nop
   86294:	20000e6c 	.word	0x20000e6c

00086298 <__swbuf_r>:
   86298:	b5f8      	push	{r3, r4, r5, r6, r7, lr}
   8629a:	460d      	mov	r5, r1
   8629c:	4614      	mov	r4, r2
   8629e:	4606      	mov	r6, r0
   862a0:	b110      	cbz	r0, 862a8 <__swbuf_r+0x10>
   862a2:	6b83      	ldr	r3, [r0, #56]	; 0x38
   862a4:	2b00      	cmp	r3, #0
   862a6:	d04b      	beq.n	86340 <__swbuf_r+0xa8>
   862a8:	f9b4 200c 	ldrsh.w	r2, [r4, #12]
   862ac:	69a3      	ldr	r3, [r4, #24]
   862ae:	b291      	uxth	r1, r2
   862b0:	0708      	lsls	r0, r1, #28
   862b2:	60a3      	str	r3, [r4, #8]
   862b4:	d539      	bpl.n	8632a <__swbuf_r+0x92>
   862b6:	6923      	ldr	r3, [r4, #16]
   862b8:	2b00      	cmp	r3, #0
   862ba:	d036      	beq.n	8632a <__swbuf_r+0x92>
   862bc:	b2ed      	uxtb	r5, r5
   862be:	0489      	lsls	r1, r1, #18
   862c0:	462f      	mov	r7, r5
   862c2:	d515      	bpl.n	862f0 <__swbuf_r+0x58>
   862c4:	6822      	ldr	r2, [r4, #0]
   862c6:	6961      	ldr	r1, [r4, #20]
   862c8:	1ad3      	subs	r3, r2, r3
   862ca:	428b      	cmp	r3, r1
   862cc:	da1c      	bge.n	86308 <__swbuf_r+0x70>
   862ce:	3301      	adds	r3, #1
   862d0:	68a1      	ldr	r1, [r4, #8]
   862d2:	1c50      	adds	r0, r2, #1
   862d4:	3901      	subs	r1, #1
   862d6:	60a1      	str	r1, [r4, #8]
   862d8:	6020      	str	r0, [r4, #0]
   862da:	7015      	strb	r5, [r2, #0]
   862dc:	6962      	ldr	r2, [r4, #20]
   862de:	429a      	cmp	r2, r3
   862e0:	d01a      	beq.n	86318 <__swbuf_r+0x80>
   862e2:	89a3      	ldrh	r3, [r4, #12]
   862e4:	07db      	lsls	r3, r3, #31
   862e6:	d501      	bpl.n	862ec <__swbuf_r+0x54>
   862e8:	2d0a      	cmp	r5, #10
   862ea:	d015      	beq.n	86318 <__swbuf_r+0x80>
   862ec:	4638      	mov	r0, r7
   862ee:	bdf8      	pop	{r3, r4, r5, r6, r7, pc}
   862f0:	6e61      	ldr	r1, [r4, #100]	; 0x64
   862f2:	f442 5200 	orr.w	r2, r2, #8192	; 0x2000
   862f6:	f421 5100 	bic.w	r1, r1, #8192	; 0x2000
   862fa:	81a2      	strh	r2, [r4, #12]
   862fc:	6822      	ldr	r2, [r4, #0]
   862fe:	6661      	str	r1, [r4, #100]	; 0x64
   86300:	6961      	ldr	r1, [r4, #20]
   86302:	1ad3      	subs	r3, r2, r3
   86304:	428b      	cmp	r3, r1
   86306:	dbe2      	blt.n	862ce <__swbuf_r+0x36>
   86308:	4621      	mov	r1, r4
   8630a:	4630      	mov	r0, r6
   8630c:	f7fe f87e 	bl	8440c <_fflush_r>
   86310:	b940      	cbnz	r0, 86324 <__swbuf_r+0x8c>
   86312:	2301      	movs	r3, #1
   86314:	6822      	ldr	r2, [r4, #0]
   86316:	e7db      	b.n	862d0 <__swbuf_r+0x38>
   86318:	4621      	mov	r1, r4
   8631a:	4630      	mov	r0, r6
   8631c:	f7fe f876 	bl	8440c <_fflush_r>
   86320:	2800      	cmp	r0, #0
   86322:	d0e3      	beq.n	862ec <__swbuf_r+0x54>
   86324:	f04f 37ff 	mov.w	r7, #4294967295
   86328:	e7e0      	b.n	862ec <__swbuf_r+0x54>
   8632a:	4621      	mov	r1, r4
   8632c:	4630      	mov	r0, r6
   8632e:	f7fc ffa5 	bl	8327c <__swsetup_r>
   86332:	2800      	cmp	r0, #0
   86334:	d1f6      	bne.n	86324 <__swbuf_r+0x8c>
   86336:	f9b4 200c 	ldrsh.w	r2, [r4, #12]
   8633a:	6923      	ldr	r3, [r4, #16]
   8633c:	b291      	uxth	r1, r2
   8633e:	e7bd      	b.n	862bc <__swbuf_r+0x24>
   86340:	f7fe f8bc 	bl	844bc <__sinit>
   86344:	e7b0      	b.n	862a8 <__swbuf_r+0x10>
   86346:	bf00      	nop

00086348 <_wcrtomb_r>:
   86348:	b5f0      	push	{r4, r5, r6, r7, lr}
   8634a:	4606      	mov	r6, r0
   8634c:	b085      	sub	sp, #20
   8634e:	461f      	mov	r7, r3
   86350:	b189      	cbz	r1, 86376 <_wcrtomb_r+0x2e>
   86352:	4c10      	ldr	r4, [pc, #64]	; (86394 <_wcrtomb_r+0x4c>)
   86354:	4d10      	ldr	r5, [pc, #64]	; (86398 <_wcrtomb_r+0x50>)
   86356:	6824      	ldr	r4, [r4, #0]
   86358:	6b64      	ldr	r4, [r4, #52]	; 0x34
   8635a:	2c00      	cmp	r4, #0
   8635c:	bf08      	it	eq
   8635e:	462c      	moveq	r4, r5
   86360:	f8d4 40e0 	ldr.w	r4, [r4, #224]	; 0xe0
   86364:	47a0      	blx	r4
   86366:	1c43      	adds	r3, r0, #1
   86368:	d103      	bne.n	86372 <_wcrtomb_r+0x2a>
   8636a:	2200      	movs	r2, #0
   8636c:	238a      	movs	r3, #138	; 0x8a
   8636e:	603a      	str	r2, [r7, #0]
   86370:	6033      	str	r3, [r6, #0]
   86372:	b005      	add	sp, #20
   86374:	bdf0      	pop	{r4, r5, r6, r7, pc}
   86376:	460c      	mov	r4, r1
   86378:	4a06      	ldr	r2, [pc, #24]	; (86394 <_wcrtomb_r+0x4c>)
   8637a:	4d07      	ldr	r5, [pc, #28]	; (86398 <_wcrtomb_r+0x50>)
   8637c:	6811      	ldr	r1, [r2, #0]
   8637e:	4622      	mov	r2, r4
   86380:	6b4c      	ldr	r4, [r1, #52]	; 0x34
   86382:	a901      	add	r1, sp, #4
   86384:	2c00      	cmp	r4, #0
   86386:	bf08      	it	eq
   86388:	462c      	moveq	r4, r5
   8638a:	f8d4 40e0 	ldr.w	r4, [r4, #224]	; 0xe0
   8638e:	47a0      	blx	r4
   86390:	e7e9      	b.n	86366 <_wcrtomb_r+0x1e>
   86392:	bf00      	nop
   86394:	2000000c 	.word	0x2000000c
   86398:	2000084c 	.word	0x2000084c

0008639c <__ascii_wctomb>:
   8639c:	b119      	cbz	r1, 863a6 <__ascii_wctomb+0xa>
   8639e:	2aff      	cmp	r2, #255	; 0xff
   863a0:	d803      	bhi.n	863aa <__ascii_wctomb+0xe>
   863a2:	700a      	strb	r2, [r1, #0]
   863a4:	2101      	movs	r1, #1
   863a6:	4608      	mov	r0, r1
   863a8:	4770      	bx	lr
   863aa:	238a      	movs	r3, #138	; 0x8a
   863ac:	f04f 31ff 	mov.w	r1, #4294967295
   863b0:	6003      	str	r3, [r0, #0]
   863b2:	e7f8      	b.n	863a6 <__ascii_wctomb+0xa>

000863b4 <__aeabi_dcmpun>:
   863b4:	ea4f 0c41 	mov.w	ip, r1, lsl #1
   863b8:	ea7f 5c6c 	mvns.w	ip, ip, asr #21
   863bc:	d102      	bne.n	863c4 <__aeabi_dcmpun+0x10>
   863be:	ea50 3c01 	orrs.w	ip, r0, r1, lsl #12
   863c2:	d10a      	bne.n	863da <__aeabi_dcmpun+0x26>
   863c4:	ea4f 0c43 	mov.w	ip, r3, lsl #1
   863c8:	ea7f 5c6c 	mvns.w	ip, ip, asr #21
   863cc:	d102      	bne.n	863d4 <__aeabi_dcmpun+0x20>
   863ce:	ea52 3c03 	orrs.w	ip, r2, r3, lsl #12
   863d2:	d102      	bne.n	863da <__aeabi_dcmpun+0x26>
   863d4:	f04f 0000 	mov.w	r0, #0
   863d8:	4770      	bx	lr
   863da:	f04f 0001 	mov.w	r0, #1
   863de:	4770      	bx	lr
   863e0:	61430d0a 	.word	0x61430d0a
   863e4:	67734d6e 	.word	0x67734d6e
   863e8:	3a646928 	.word	0x3a646928
   863ec:	202c6425 	.word	0x202c6425
   863f0:	676e656c 	.word	0x676e656c
   863f4:	253a6874 	.word	0x253a6874
   863f8:	64202c64 	.word	0x64202c64
   863fc:	3a617461 	.word	0x3a617461
   86400:	0000007b 	.word	0x0000007b
   86404:	00006425 	.word	0x00006425
   86408:	6425202c 	.word	0x6425202c
   8640c:	00000000 	.word	0x00000000
   86410:	0000297d 	.word	0x0000297d
   86414:	304e4143 	.word	0x304e4143
   86418:	73656d20 	.word	0x73656d20
   8641c:	65676173 	.word	0x65676173
   86420:	72726120 	.word	0x72726120
   86424:	64657669 	.word	0x64657669
   86428:	206e6920 	.word	0x206e6920
   8642c:	2d6e6f6e 	.word	0x2d6e6f6e
   86430:	64657375 	.word	0x64657375
   86434:	69616d20 	.word	0x69616d20
   86438:	786f626c 	.word	0x786f626c
   8643c:	00000d0a 	.word	0x00000d0a
   86440:	54524155 	.word	0x54524155
   86444:	63657220 	.word	0x63657220
   86448:	65766965 	.word	0x65766965
   8644c:	66756220 	.word	0x66756220
   86450:	20726566 	.word	0x20726566
   86454:	6c6c7566 	.word	0x6c6c7566
   86458:	00000000 	.word	0x00000000

0008645c <_global_impure_ptr>:
   8645c:	20000010 0000000a 00464e49 00666e69     ... ....INF.inf.
   8646c:	004e414e 006e616e 33323130 37363534     NAN.nan.01234567
   8647c:	42413938 46454443 00000000 33323130     89ABCDEF....0123
   8648c:	37363534 62613938 66656463 00000000     456789abcdef....
   8649c:	6c756e28 0000296c 00000030              (null)..0...

000864a8 <blanks.7238>:
   864a8:	20202020 20202020 20202020 20202020                     

000864b8 <zeroes.7239>:
   864b8:	30303030 30303030 30303030 30303030     0000000000000000
   864c8:	69666e49 7974696e 00000000 004e614e     Infinity....NaN.

000864d8 <__mprec_bigtens>:
   864d8:	37e08000 4341c379 b5056e17 4693b8b5     ...7y.AC.n.....F
   864e8:	e93ff9f5 4d384f03 f9301d32 5a827748     ..?..O8M2.0.Hw.Z
   864f8:	7f73bf3c 75154fdd                       <.s..O.u

00086500 <__mprec_tens>:
   86500:	00000000 3ff00000 00000000 40240000     .......?......$@
   86510:	00000000 40590000 00000000 408f4000     ......Y@.....@.@
   86520:	00000000 40c38800 00000000 40f86a00     .......@.....j.@
   86530:	00000000 412e8480 00000000 416312d0     .......A......cA
   86540:	00000000 4197d784 00000000 41cdcd65     .......A....e..A
   86550:	20000000 4202a05f e8000000 42374876     ... _..B....vH7B
   86560:	a2000000 426d1a94 e5400000 42a2309c     ......mB..@..0.B
   86570:	1e900000 42d6bcc4 26340000 430c6bf5     .......B..4&.k.C
   86580:	37e08000 4341c379 85d8a000 43763457     ...7y.AC....W4vC
   86590:	674ec800 43abc16d 60913d00 43e158e4     ..Ngm..C.=.`.X.C
   865a0:	78b58c40 4415af1d d6e2ef50 444b1ae4     @..x...DP.....KD
   865b0:	064dd592 4480f0cf c7e14af6 44b52d02     ..M....D.J...-.D
   865c0:	79d99db4 44ea7843                       ...yCx.D

000865c8 <p05.6055>:
   865c8:	00000005 00000019 0000007d 00000043     ........}...C...
   865d8:	49534f50 00000058 0000002e              POSIX.......

000865e4 <_ctype_>:
   865e4:	20202000 20202020 28282020 20282828     .         ((((( 
   865f4:	20202020 20202020 20202020 20202020                     
   86604:	10108820 10101010 10101010 10101010      ...............
   86614:	04040410 04040404 10040404 10101010     ................
   86624:	41411010 41414141 01010101 01010101     ..AAAAAA........
   86634:	01010101 01010101 01010101 10101010     ................
   86644:	42421010 42424242 02020202 02020202     ..BBBBBB........
   86654:	02020202 02020202 02020202 10101010     ................
   86664:	00000020 00000000 00000000 00000000      ...............
	...

000866e8 <_init>:
   866e8:	b5f8      	push	{r3, r4, r5, r6, r7, lr}
   866ea:	bf00      	nop
   866ec:	bcf8      	pop	{r3, r4, r5, r6, r7}
   866ee:	bc08      	pop	{r3}
   866f0:	469e      	mov	lr, r3
   866f2:	4770      	bx	lr

000866f4 <__init_array_start>:
   866f4:	00083345 	.word	0x00083345

000866f8 <__frame_dummy_init_array_entry>:
   866f8:	00080119 000806d9                       ........

00086700 <_fini>:
   86700:	b5f8      	push	{r3, r4, r5, r6, r7, lr}
   86702:	bf00      	nop
   86704:	bcf8      	pop	{r3, r4, r5, r6, r7}
   86706:	bc08      	pop	{r3}
   86708:	469e      	mov	lr, r3
   8670a:	4770      	bx	lr

0008670c <__fini_array_start>:
   8670c:	000800f5 	.word	0x000800f5
